

Microchip MPLAB XC8 Assembler V2.45 build 20230818022343 
                                                                                               Mon Oct 16 15:25:42 2023

Microchip MPLAB XC8 C Compiler v2.45 (Free license) build 20230818022343 Og9 
     1                           	processor	16F1829
     2                           	pagewidth 120
     3                           	opt	flic
     4                           	psect	idataBANK4,global,class=CODE,delta=2,noexec
     5                           	psect	stringtext1,global,class=STRCODE,delta=2,noexec
     6                           	psect	stringtext2,global,class=STRCODE,delta=2,noexec
     7                           	psect	stringtext3,global,class=STRCODE,delta=2,noexec
     8                           	psect	stringtext4,global,class=STRCODE,delta=2,noexec
     9                           	psect	stringtext5,global,class=STRCODE,delta=2,noexec
    10                           	psect	stringtext6,global,class=STRCODE,delta=2,noexec
    11                           	psect	stringtext7,global,class=STRCODE,delta=2,noexec
    12                           	psect	stringtext8,global,class=STRCODE,delta=2,noexec
    13                           	psect	stringtext9,global,class=STRCODE,delta=2,noexec
    14                           	psect	stringtext10,global,class=STRCODE,delta=2,noexec
    15                           	psect	stringtext11,global,class=STRCODE,delta=2,noexec
    16                           	psect	stringtext12,global,class=STRCODE,delta=2,noexec
    17                           	psect	stringtext13,global,class=STRCODE,delta=2,noexec
    18                           	psect	stringtext14,global,class=STRCODE,delta=2,noexec
    19                           	psect	stringtext15,global,class=STRCODE,delta=2,noexec
    20                           	psect	stringtext16,global,class=STRCODE,delta=2,noexec
    21                           	psect	stringtext17,global,class=STRCODE,delta=2,noexec
    22                           	psect	stringtext18,global,class=STRCODE,delta=2,noexec
    23                           	psect	stringtext19,global,class=STRCODE,delta=2,noexec
    24                           	psect	stringtext20,global,class=STRCODE,delta=2,noexec
    25                           	psect	stringtext21,global,class=STRCODE,delta=2,noexec
    26                           	psect	stringtext22,global,class=STRCODE,delta=2,noexec
    27                           	psect	stringtext23,global,class=STRCODE,delta=2,noexec
    28                           	psect	stringtext24,global,class=STRCODE,delta=2,noexec
    29                           	psect	stringtext25,global,class=STRCODE,delta=2,noexec
    30                           	psect	cinit,global,class=CODE,merge=1,delta=2
    31                           	psect	bssBANK1,global,class=BANK1,space=1,delta=1,noexec
    32                           	psect	bssBANK4,global,class=BANK4,space=1,delta=1,noexec
    33                           	psect	dataBANK4,global,class=BANK4,space=1,delta=1,noexec
    34                           	psect	clrtext,global,class=CODE,delta=2
    35                           	psect	cstackBANK4,global,class=BANK4,space=1,delta=1,noexec
    36                           	psect	cstackBANK3,global,class=BANK3,space=1,delta=1,noexec
    37                           	psect	cstackBANK2,global,class=BANK2,space=1,delta=1,noexec
    38                           	psect	cstackBANK1,global,class=BANK1,space=1,delta=1,noexec
    39                           	psect	cstackCOMMON,global,class=COMMON,space=1,delta=1,noexec
    40                           	psect	cstackBANK0,global,class=BANK0,space=1,delta=1,noexec
    41                           	psect	maintext,global,class=CODE,merge=1,split=1,delta=2
    42                           	psect	text1,local,class=CODE,merge=1,delta=2
    43                           	psect	text2,local,class=CODE,merge=1,delta=2
    44                           	psect	text3,local,class=CODE,merge=1,delta=2
    45                           	psect	intentry,global,class=CODE,delta=2
    46                           	psect	text5,local,class=CODE,merge=1,delta=2
    47                           	psect	text6,local,class=CODE,merge=1,delta=2,group=2
    48                           	psect	text7,local,class=CODE,merge=1,delta=2,group=2
    49                           	psect	text8,local,class=CODE,merge=1,delta=2,group=2
    50                           	psect	text9,local,class=CODE,merge=1,delta=2,group=2
    51                           	psect	text10,local,class=CODE,merge=1,delta=2,group=1
    52                           	psect	text11,local,class=CODE,merge=1,delta=2,group=1
    53                           	psect	text12,local,class=CODE,merge=1,delta=2,group=1
    54                           	psect	text13,local,class=CODE,merge=1,delta=2,group=1
    55                           	psect	text14,local,class=CODE,merge=1,delta=2,group=1
    56                           	psect	text15,local,class=CODE,merge=1,delta=2,group=1
    57                           	psect	text16,local,class=CODE,merge=1,delta=2,group=1
    58                           	psect	text17,local,class=CODE,merge=1,delta=2,group=1
    59                           	psect	text18,local,class=CODE,merge=1,delta=2,group=1
    60                           	psect	config,global,abs,ovrld,class=CONFIG,space=4,delta=2,noexec
    61                           	psect	text7_split_1,local,class=CODE,merge=1,delta=2
    62                           	psect	text7_split_2,local,class=CODE,merge=1,delta=2
    63                           	psect	text7_split_3,local,class=CODE,merge=1,delta=2
    64                           	psect	text7_split_4,local,class=CODE,merge=1,delta=2
    65                           	psect	text7_split_5,local,class=CODE,merge=1,delta=2
    66                           	psect	text7_split_6,local,class=CODE,merge=1,delta=2
    67                           	psect	text7_split_7,local,class=CODE,merge=1,delta=2
    68                           	psect	text7_split_8,local,class=CODE,merge=1,delta=2
    69                           	psect	text7_split_9,local,class=CODE,merge=1,delta=2
    70                           	psect	text7_split_10,local,class=CODE,merge=1,delta=2
    71                           	psect	text7_split_11,local,class=CODE,merge=1,delta=2
    72                           	psect	text7_split_12,local,class=CODE,merge=1,delta=2
    73                           	psect	text7_split_13,local,class=CODE,merge=1,delta=2
    74                           	psect	text7_split_14,local,class=CODE,merge=1,delta=2
    75                           	psect	text7_split_15,local,class=CODE,merge=1,delta=2
    76                           	dabs	1,0x620,48
    77                           	dabs	1,0x5CC,36
    78                           	dabs	1,0x5A0,44
    79                           	dabs	1,0x548,40
    80                           	dabs	1,0x520,40
    81                           	dabs	1,0x4C4,44
    82                           	dabs	1,0x4A0,36
    83                           	dabs	1,0x440,48
    84                           	dabs	1,0x22A0,0,_preload_calc_off
    85                           	dabs	1,0x22F4,0,_preload_calc_on
    86                           	dabs	1,0x2348,0,_tijd_uit
    87                           	dabs	1,0x239C,0,_tijd_aan
    88                           	dabs	1,0x7E,2
    89  0000                     
    90                           ; Generated 07/09/2023 GMT
    91                           ; 
    92                           ; Copyright © 2023, Microchip Technology Inc. and its subsidiaries ("Microchip")
    93                           ; All rights reserved.
    94                           ; 
    95                           ; This software is developed by Microchip Technology Inc. and its subsidiaries ("Microch
      +                          ip").
    96                           ; 
    97                           ; Redistribution and use in source and binary forms, with or without modification, are
    98                           ; permitted provided that the following conditions are met:
    99                           ; 
   100                           ;     1. Redistributions of source code must retain the above copyright notice, this lis
      +                          t of
   101                           ;        conditions and the following disclaimer.
   102                           ; 
   103                           ;     2. Redistributions in binary form must reproduce the above copyright notice, this 
      +                          list
   104                           ;        of conditions and the following disclaimer in the documentation and/or other
   105                           ;        materials provided with the distribution. Publication is not required when
   106                           ;        this file is used in an embedded application.
   107                           ; 
   108                           ;     3. Microchip's name may not be used to endorse or promote products derived from th
      +                          is
   109                           ;        software without specific prior written permission.
   110                           ; 
   111                           ; THIS SOFTWARE IS PROVIDED BY MICROCHIP "AS IS" AND ANY EXPRESS OR IMPLIED WARRANTIES,
   112                           ; INCLUDING, BUT NOT LIMITED TO, THE IMPLIED WARRANTIES OF MERCHANTABILITY AND FITNESS F
      +                          OR
   113                           ; PURPOSE ARE DISCLAIMED.  IN NO EVENT SHALL MICROCHIP BE LIABLE FOR ANY DIRECT, INDIREC
      +                          T,
   114                           ; INCIDENTAL, SPECIAL, EXEMPLARY, OR CONSEQUENTIAL DAMAGES (INCLUDING BUT NOT LIMITED TO
   115                           ; PROCUREMENT OF SUBSTITUTE GOODS OR SERVICES; LOSS OF USE, DATA OR PROFITS; OR BUSINESS
   116                           ; INTERRUPTION) HOWSOEVER CAUSED AND ON ANY THEORY OF LIABILITY, WHETHER IN CONTRACT, ST
      +                          RICT
   117                           ; LIABILITY, OR TORT (INCLUDING NEGLIGENCE OR OTHERWISE) ARISING IN ANY WAY OUT OF THE U
      +                          SE OF
   118                           ; THIS SOFTWARE, EVEN IF ADVISED OF THE POSSIBILITY OF SUCH DAMAGE.
   119                           ; 
   120                           ; 
   121                           ; Code-generator required, PIC16F1829 Definitions
   122                           ; 
   123                           ; SFR Addresses
   124  0000                     	;# 
   125  0001                     	;# 
   126  0002                     	;# 
   127  0003                     	;# 
   128  0004                     	;# 
   129  0005                     	;# 
   130  0006                     	;# 
   131  0007                     	;# 
   132  0008                     	;# 
   133  0009                     	;# 
   134  000A                     	;# 
   135  000B                     	;# 
   136  000C                     	;# 
   137  000D                     	;# 
   138  000E                     	;# 
   139  0011                     	;# 
   140  0012                     	;# 
   141  0013                     	;# 
   142  0014                     	;# 
   143  0015                     	;# 
   144  0016                     	;# 
   145  0016                     	;# 
   146  0017                     	;# 
   147  0018                     	;# 
   148  0019                     	;# 
   149  001A                     	;# 
   150  001B                     	;# 
   151  001C                     	;# 
   152  001E                     	;# 
   153  001F                     	;# 
   154  008C                     	;# 
   155  008D                     	;# 
   156  008E                     	;# 
   157  0091                     	;# 
   158  0092                     	;# 
   159  0093                     	;# 
   160  0094                     	;# 
   161  0095                     	;# 
   162  0096                     	;# 
   163  0097                     	;# 
   164  0098                     	;# 
   165  0099                     	;# 
   166  009A                     	;# 
   167  009B                     	;# 
   168  009B                     	;# 
   169  009C                     	;# 
   170  009D                     	;# 
   171  009E                     	;# 
   172  010C                     	;# 
   173  010D                     	;# 
   174  010E                     	;# 
   175  0111                     	;# 
   176  0112                     	;# 
   177  0113                     	;# 
   178  0114                     	;# 
   179  0115                     	;# 
   180  0116                     	;# 
   181  0117                     	;# 
   182  0118                     	;# 
   183  0119                     	;# 
   184  011A                     	;# 
   185  011B                     	;# 
   186  011D                     	;# 
   187  011E                     	;# 
   188  018C                     	;# 
   189  018D                     	;# 
   190  018E                     	;# 
   191  0191                     	;# 
   192  0191                     	;# 
   193  0192                     	;# 
   194  0193                     	;# 
   195  0193                     	;# 
   196  0193                     	;# 
   197  0194                     	;# 
   198  0195                     	;# 
   199  0196                     	;# 
   200  0199                     	;# 
   201  019A                     	;# 
   202  019B                     	;# 
   203  019B                     	;# 
   204  019C                     	;# 
   205  019D                     	;# 
   206  019E                     	;# 
   207  019F                     	;# 
   208  020C                     	;# 
   209  020D                     	;# 
   210  020E                     	;# 
   211  0211                     	;# 
   212  0211                     	;# 
   213  0212                     	;# 
   214  0212                     	;# 
   215  0213                     	;# 
   216  0213                     	;# 
   217  0214                     	;# 
   218  0214                     	;# 
   219  0215                     	;# 
   220  0215                     	;# 
   221  0215                     	;# 
   222  0216                     	;# 
   223  0216                     	;# 
   224  0217                     	;# 
   225  0217                     	;# 
   226  0219                     	;# 
   227  021A                     	;# 
   228  021B                     	;# 
   229  021C                     	;# 
   230  021D                     	;# 
   231  021E                     	;# 
   232  021F                     	;# 
   233  0291                     	;# 
   234  0291                     	;# 
   235  0292                     	;# 
   236  0293                     	;# 
   237  0294                     	;# 
   238  0295                     	;# 
   239  0295                     	;# 
   240  0296                     	;# 
   241  0298                     	;# 
   242  0298                     	;# 
   243  0299                     	;# 
   244  029A                     	;# 
   245  029B                     	;# 
   246  029C                     	;# 
   247  029D                     	;# 
   248  029E                     	;# 
   249  029E                     	;# 
   250  0311                     	;# 
   251  0311                     	;# 
   252  0312                     	;# 
   253  0313                     	;# 
   254  0318                     	;# 
   255  0318                     	;# 
   256  0319                     	;# 
   257  031A                     	;# 
   258  038C                     	;# 
   259  038D                     	;# 
   260  038E                     	;# 
   261  0391                     	;# 
   262  0392                     	;# 
   263  0393                     	;# 
   264  0394                     	;# 
   265  0395                     	;# 
   266  0396                     	;# 
   267  039A                     	;# 
   268  039C                     	;# 
   269  039D                     	;# 
   270  039E                     	;# 
   271  039F                     	;# 
   272  0415                     	;# 
   273  0416                     	;# 
   274  0417                     	;# 
   275  041C                     	;# 
   276  041D                     	;# 
   277  041E                     	;# 
   278  0FE4                     	;# 
   279  0FE5                     	;# 
   280  0FE6                     	;# 
   281  0FE7                     	;# 
   282  0FE8                     	;# 
   283  0FE9                     	;# 
   284  0FEA                     	;# 
   285  0FEB                     	;# 
   286  0FED                     	;# 
   287  0FEE                     	;# 
   288  0FEF                     	;# 
   289  0000                     	;# 
   290  0001                     	;# 
   291  0002                     	;# 
   292  0003                     	;# 
   293  0004                     	;# 
   294  0005                     	;# 
   295  0006                     	;# 
   296  0007                     	;# 
   297  0008                     	;# 
   298  0009                     	;# 
   299  000A                     	;# 
   300  000B                     	;# 
   301  000C                     	;# 
   302  000D                     	;# 
   303  000E                     	;# 
   304  0011                     	;# 
   305  0012                     	;# 
   306  0013                     	;# 
   307  0014                     	;# 
   308  0015                     	;# 
   309  0016                     	;# 
   310  0016                     	;# 
   311  0017                     	;# 
   312  0018                     	;# 
   313  0019                     	;# 
   314  001A                     	;# 
   315  001B                     	;# 
   316  001C                     	;# 
   317  001E                     	;# 
   318  001F                     	;# 
   319  008C                     	;# 
   320  008D                     	;# 
   321  008E                     	;# 
   322  0091                     	;# 
   323  0092                     	;# 
   324  0093                     	;# 
   325  0094                     	;# 
   326  0095                     	;# 
   327  0096                     	;# 
   328  0097                     	;# 
   329  0098                     	;# 
   330  0099                     	;# 
   331  009A                     	;# 
   332  009B                     	;# 
   333  009B                     	;# 
   334  009C                     	;# 
   335  009D                     	;# 
   336  009E                     	;# 
   337  010C                     	;# 
   338  010D                     	;# 
   339  010E                     	;# 
   340  0111                     	;# 
   341  0112                     	;# 
   342  0113                     	;# 
   343  0114                     	;# 
   344  0115                     	;# 
   345  0116                     	;# 
   346  0117                     	;# 
   347  0118                     	;# 
   348  0119                     	;# 
   349  011A                     	;# 
   350  011B                     	;# 
   351  011D                     	;# 
   352  011E                     	;# 
   353  018C                     	;# 
   354  018D                     	;# 
   355  018E                     	;# 
   356  0191                     	;# 
   357  0191                     	;# 
   358  0192                     	;# 
   359  0193                     	;# 
   360  0193                     	;# 
   361  0193                     	;# 
   362  0194                     	;# 
   363  0195                     	;# 
   364  0196                     	;# 
   365  0199                     	;# 
   366  019A                     	;# 
   367  019B                     	;# 
   368  019B                     	;# 
   369  019C                     	;# 
   370  019D                     	;# 
   371  019E                     	;# 
   372  019F                     	;# 
   373  020C                     	;# 
   374  020D                     	;# 
   375  020E                     	;# 
   376  0211                     	;# 
   377  0211                     	;# 
   378  0212                     	;# 
   379  0212                     	;# 
   380  0213                     	;# 
   381  0213                     	;# 
   382  0214                     	;# 
   383  0214                     	;# 
   384  0215                     	;# 
   385  0215                     	;# 
   386  0215                     	;# 
   387  0216                     	;# 
   388  0216                     	;# 
   389  0217                     	;# 
   390  0217                     	;# 
   391  0219                     	;# 
   392  021A                     	;# 
   393  021B                     	;# 
   394  021C                     	;# 
   395  021D                     	;# 
   396  021E                     	;# 
   397  021F                     	;# 
   398  0291                     	;# 
   399  0291                     	;# 
   400  0292                     	;# 
   401  0293                     	;# 
   402  0294                     	;# 
   403  0295                     	;# 
   404  0295                     	;# 
   405  0296                     	;# 
   406  0298                     	;# 
   407  0298                     	;# 
   408  0299                     	;# 
   409  029A                     	;# 
   410  029B                     	;# 
   411  029C                     	;# 
   412  029D                     	;# 
   413  029E                     	;# 
   414  029E                     	;# 
   415  0311                     	;# 
   416  0311                     	;# 
   417  0312                     	;# 
   418  0313                     	;# 
   419  0318                     	;# 
   420  0318                     	;# 
   421  0319                     	;# 
   422  031A                     	;# 
   423  038C                     	;# 
   424  038D                     	;# 
   425  038E                     	;# 
   426  0391                     	;# 
   427  0392                     	;# 
   428  0393                     	;# 
   429  0394                     	;# 
   430  0395                     	;# 
   431  0396                     	;# 
   432  039A                     	;# 
   433  039C                     	;# 
   434  039D                     	;# 
   435  039E                     	;# 
   436  039F                     	;# 
   437  0415                     	;# 
   438  0416                     	;# 
   439  0417                     	;# 
   440  041C                     	;# 
   441  041D                     	;# 
   442  041E                     	;# 
   443  0FE4                     	;# 
   444  0FE5                     	;# 
   445  0FE6                     	;# 
   446  0FE7                     	;# 
   447  0FE8                     	;# 
   448  0FE9                     	;# 
   449  0FEA                     	;# 
   450  0FEB                     	;# 
   451  0FED                     	;# 
   452  0FEE                     	;# 
   453  0FEF                     	;_preload_calc_off
   454                           
   455                           	psect	idataBANK4
   456  0000'                    __pidataBANK4:
   457                           
   458                           ;initializer for _button_1_getriggerd
   459  0000' 3401               	retlw	1
   460  0001' 3400               	retlw	0
   461                           
   462                           	psect	stringtext1
   463  0000'                    __pstringtext1:
   464  0000'                    _dp_l:
   465  0000' 3400               	retlw	0
   466  0001' 3400               	retlw	0
   467  0002' 3400               	retlw	0
   468  0003' 3400               	retlw	0
   469  0004' 34DC               	retlw	220
   470  0005' 34CF               	retlw	207
   471  0006' 34D1               	retlw	209
   472  0007' 3435               	retlw	53
   473  0008'                    __end_of_dp_l:
   474                           
   475                           	psect	stringtext2
   476  0000'                    __pstringtext2:
   477  0000'                    _dp_h:
   478  0000' 3400               	retlw	0
   479  0001' 3400               	retlw	0
   480  0002' 3400               	retlw	0
   481  0003' 3400               	retlw	0
   482  0004' 3400               	retlw	0
   483  0005' 34C0               	retlw	192
   484  0006' 3415               	retlw	21
   485  0007' 343F               	retlw	63
   486  0008'                    __end_of_dp_h:
   487                           
   488                           	psect	stringtext3
   489  0000'                    __pstringtext3:
   490  0000'                    _bp:
   491  0000' 3400               	retlw	0
   492  0001' 3400               	retlw	0
   493  0002' 3480               	retlw	128
   494  0003' 343F               	retlw	63
   495  0004' 3400               	retlw	0
   496  0005' 3400               	retlw	0
   497  0006' 34C0               	retlw	192
   498  0007' 343F               	retlw	63
   499  0008'                    __end_of_bp:
   500                           
   501                           	psect	stringtext4
   502  0000'                    __pstringtext4:
   503  0000'                    _ivln2_l:
   504  0000' 3470               	retlw	112
   505  0001' 34A5               	retlw	165
   506  0002' 34EC               	retlw	236
   507  0003' 3436               	retlw	54
   508  0004'                    __end_of_ivln2_l:
   509                           
   510                           	psect	stringtext5
   511  0000'                    __pstringtext5:
   512  0000'                    _ivln2:
   513  0000' 343B               	retlw	59
   514  0001' 34AA               	retlw	170
   515  0002' 34B8               	retlw	184
   516  0003' 343F               	retlw	63
   517  0004'                    __end_of_ivln2:
   518                           
   519                           	psect	stringtext6
   520  0000'                    __pstringtext6:
   521  0000'                    _cp:
   522  0000' 344F               	retlw	79
   523  0001' 3438               	retlw	56
   524  0002' 3476               	retlw	118
   525  0003' 343F               	retlw	63
   526  0004'                    __end_of_cp:
   527                           
   528                           	psect	stringtext7
   529  0000'                    __pstringtext7:
   530  0000'                    _ovt:
   531  0000' 343C               	retlw	60
   532  0001' 34AA               	retlw	170
   533  0002' 3438               	retlw	56
   534  0003' 3433               	retlw	51
   535  0004'                    __end_of_ovt:
   536                           
   537                           	psect	stringtext8
   538  0000'                    __pstringtext8:
   539  0000'                    _lg2_l:
   540  0000' 348C               	retlw	140
   541  0001' 34BE               	retlw	190
   542  0002' 34BF               	retlw	191
   543  0003' 3435               	retlw	53
   544  0004'                    __end_of_lg2_l:
   545                           
   546                           	psect	stringtext9
   547  0000'                    __pstringtext9:
   548  0000'                    _lg2_h:
   549  0000' 3400               	retlw	0
   550  0001' 3472               	retlw	114
   551  0002' 3431               	retlw	49
   552  0003' 343F               	retlw	63
   553  0004'                    __end_of_lg2_h:
   554                           
   555                           	psect	stringtext10
   556  0000'                    __pstringtext10:
   557  0000'                    _lg2:
   558  0000' 3418               	retlw	24
   559  0001' 3472               	retlw	114
   560  0002' 3431               	retlw	49
   561  0003' 343F               	retlw	63
   562  0004'                    __end_of_lg2:
   563                           
   564                           	psect	stringtext11
   565  0000'                    __pstringtext11:
   566  0000'                    _P5:
   567  0000' 344C               	retlw	76
   568  0001' 34BB               	retlw	187
   569  0002' 3431               	retlw	49
   570  0003' 3433               	retlw	51
   571  0004'                    __end_of_P5:
   572                           
   573                           	psect	stringtext12
   574  0000'                    __pstringtext12:
   575  0000'                    _P4:
   576  0000' 340E               	retlw	14
   577  0001' 34EA               	retlw	234
   578  0002' 34DD               	retlw	221
   579  0003' 34B5               	retlw	181
   580  0004'                    __end_of_P4:
   581                           
   582                           	psect	stringtext13
   583  0000'                    __pstringtext13:
   584  0000'                    _P3:
   585  0000' 3455               	retlw	85
   586  0001' 34B3               	retlw	179
   587  0002' 348A               	retlw	138
   588  0003' 3438               	retlw	56
   589  0004'                    __end_of_P3:
   590                           
   591                           	psect	stringtext14
   592  0000'                    __pstringtext14:
   593  0000'                    _P2:
   594  0000' 3461               	retlw	97
   595  0001' 340B               	retlw	11
   596  0002' 3436               	retlw	54
   597  0003' 34BB               	retlw	187
   598  0004'                    __end_of_P2:
   599                           
   600                           	psect	stringtext15
   601  0000'                    __pstringtext15:
   602  0000'                    _P1:
   603  0000' 34AB               	retlw	171
   604  0001' 34AA               	retlw	170
   605  0002' 342A               	retlw	42
   606  0003' 343E               	retlw	62
   607  0004'                    __end_of_P1:
   608                           
   609                           	psect	stringtext16
   610  0000'                    __pstringtext16:
   611  0000'                    _L6:
   612  0000' 3442               	retlw	66
   613  0001' 34F1               	retlw	241
   614  0002' 3453               	retlw	83
   615  0003' 343E               	retlw	62
   616  0004'                    __end_of_L6:
   617                           
   618                           	psect	stringtext17
   619  0000'                    __pstringtext17:
   620  0000'                    _L5:
   621  0000' 3455               	retlw	85
   622  0001' 3432               	retlw	50
   623  0002' 346C               	retlw	108
   624  0003' 343E               	retlw	62
   625  0004'                    __end_of_L5:
   626                           
   627                           	psect	stringtext18
   628  0000'                    __pstringtext18:
   629  0000'                    _L4:
   630  0000' 3405               	retlw	5
   631  0001' 34A3               	retlw	163
   632  0002' 348B               	retlw	139
   633  0003' 343E               	retlw	62
   634  0004'                    __end_of_L4:
   635                           
   636                           	psect	stringtext19
   637  0000'                    __pstringtext19:
   638  0000'                    _L3:
   639  0000' 34AB               	retlw	171
   640  0001' 34AA               	retlw	170
   641  0002' 34AA               	retlw	170
   642  0003' 343E               	retlw	62
   643  0004'                    __end_of_L3:
   644                           
   645                           	psect	stringtext20
   646  0000'                    __pstringtext20:
   647  0000'                    _L2:
   648  0000' 34B7               	retlw	183
   649  0001' 346D               	retlw	109
   650  0002' 34DB               	retlw	219
   651  0003' 343E               	retlw	62
   652  0004'                    __end_of_L2:
   653                           
   654                           	psect	stringtext21
   655  0000'                    __pstringtext21:
   656  0000'                    _L1:
   657  0000' 349A               	retlw	154
   658  0001' 3499               	retlw	153
   659  0002' 3419               	retlw	25
   660  0003' 343F               	retlw	63
   661  0004'                    __end_of_L1:
   662                           
   663                           	psect	stringtext22
   664  0000'                    __pstringtext22:
   665  0000'                    _two24:
   666  0000' 3400               	retlw	0
   667  0001' 3400               	retlw	0
   668  0002' 3480               	retlw	128
   669  0003' 344B               	retlw	75
   670  0004'                    __end_of_two24:
   671                           
   672                           	psect	stringtext23
   673  0000'                    __pstringtext23:
   674  0000'                    _ivln2_h:
   675  0000' 3400               	retlw	0
   676  0001' 34AA               	retlw	170
   677  0002' 34B8               	retlw	184
   678  0003' 343F               	retlw	63
   679  0004'                    __end_of_ivln2_h:
   680                           
   681                           	psect	stringtext24
   682  0000'                    __pstringtext24:
   683  0000'                    _cp_l:
   684  0000' 34C6               	retlw	198
   685  0001' 3423               	retlw	35
   686  0002' 34F6               	retlw	246
   687  0003' 34B8               	retlw	184
   688  0004'                    __end_of_cp_l:
   689                           
   690                           	psect	stringtext25
   691  0000'                    __pstringtext25:
   692  0000'                    _cp_h:
   693  0000' 3400               	retlw	0
   694  0001' 3440               	retlw	64
   695  0002' 3476               	retlw	118
   696  0003' 343F               	retlw	63
   697  0004'                    __end_of_cp_h:
   698  0016                     _TMR1	set	22
   699  000B                     _INTCONbits	set	11
   700  001A                     _TMR2	set	26
   701  001B                     _PR2	set	27
   702  001C                     _T2CON	set	28
   703  0018                     _T1CONbits	set	24
   704  0019                     _T1GCON	set	25
   705  0018                     _T1CON	set	24
   706  0088                     _TMR1IF	set	136
   707  0089                     _TMR2IF	set	137
   708  00C0                     _TMR1ON	set	192
   709  00E0                     _T2CKPS0	set	224
   710  00E1                     _T2CKPS1	set	225
   711  00E2                     _TMR2ON	set	226
   712  005F                     _GIE	set	95
   713  005E                     _PEIE	set	94
   714  0095                     _OPTION_REGbits	set	149
   715  008E                     _TRISC	set	142
   716  008C                     _TRISAbits	set	140
   717  0099                     _OSCCON	set	153
   718  0489                     _TMR2IE	set	1161
   719  0488                     _TMR1IE	set	1160
   720  010E                     _LATCbits	set	270
   721  018C                     _ANSELAbits	set	396
   722                           
   723                           	psect	cinit
   724  0000'                    start_initialization:	
   725                           ; #config settings
   726                           
   727  0000'                    __initialization:	;BIGRAM
   728                           
   729                           ; Initialize objects allocated to BANK4
   730  0000' 0024               	movlb	4	; select bank4
   731  0001' 3180' 2000' 3180'  	fcall	__pidataBANK4	;fetch initializer
   732  0004' 0080'              	movwf	__pdataBANK4& (0+127)
   733  0005' 3180' 2000' 3180'  	fcall	__pidataBANK4+1	;fetch initializer
   734  0008' 0080'              	movwf	(__pdataBANK4+1)& (0+127)
   735                           
   736                           ; Clear objects allocated to BIGRAM
   737  0009' 30A0               	movlw	low (0+8864)
   738  000A' 0084               	movwf	4
   739  000B' 3022               	movlw	high (0+8864)
   740  000C' 0085               	movwf	5
   741  000D' 3050               	movlw	80
   742  000E' 00FE               	movwf	btemp
   743  000F' 3001               	movlw	1
   744  0010' 00FF               	movwf	btemp+1
   745  0011' 3180' 2000' 3180'  	fcall	clear_ram0
   746                           
   747                           ; Clear objects allocated to BANK1
   748  0014' 0021               	movlb	1	; select bank1
   749  0015' 0180'              	clrf	__pbssBANK1& (0+127)
   750  0016' 0180'              	clrf	(__pbssBANK1+1)& (0+127)
   751                           
   752                           ; Clear objects allocated to BANK4
   753  0017' 3000'              	movlw	low __pbssBANK4
   754  0018' 0084               	movwf	4
   755  0019' 3000'              	movlw	high __pbssBANK4
   756  001A' 0085               	movwf	5
   757  001B' 300E               	movlw	14
   758  001C' 00FE               	movwf	btemp
   759  001D' 3000               	movlw	0
   760  001E' 00FF               	movwf	btemp+1
   761  001F' 3180' 2000'        	fcall	clear_ram0
   762  0021'                    end_of_initialization:	
   763                           ;End of C runtime variable initialization code
   764                           
   765  0021'                    __end_of__initialization:
   766  0021' 107E               	bcf	int$flags,0	;clear compiler interrupt flag (level 1)
   767  0022' 0020               	movlb	0
   768  0023' 3180' 2800'        	ljmp	_main	;jump to C main() function
   769                           
   770                           	psect	bssBANK1
   771  0000'                    __pbssBANK1:
   772  0000'                    _errno:
   773  0000'                    	ds	2
   774                           
   775                           	psect	bssBANK4
   776  0000'                    __pbssBANK4:
   777  0000'                    _tijd_opname:
   778  0000'                    	ds	4
   779  0004'                    _index_counter:
   780  0004'                    	ds	2
   781  0006'                    _aan_uit_schakelaar:
   782  0006'                    	ds	2
   783  0008'                    _release_2:
   784  0008'                    	ds	2
   785  000A'                    _release:
   786  000A'                    	ds	2
   787  000C'                    _timer_opname_100ms:
   788  000C'                    	ds	2
   789                           
   790                           	psect	dataBANK4
   791  0000'                    __pdataBANK4:
   792  0000'                    _button_1_getriggerd:
   793  0000'                    	ds	2
   794                           
   795                           	psect	clrtext
   796  0000'                    clear_ram0:	
   797                           ;	Called with FSR0 containing the base address, and
   798                           ;	btemp/btemp+1 has the size to clear
   799                           
   800  0000' 0064               	clrwdt	;clear the watchdog before getting into this loop
   801  0001'                    clrloop0:
   802  0001' 0180               	clrf	0	;clear RAM location pointed to by FSR
   803  0002' 3101               	addfsr 0,1
   804  0003' 3001               	movlw	1
   805  0004' 02FE               	subwf	126,f
   806  0005' 3000               	movlw	0
   807  0006' 3BFF               	subwfb	127,f
   808  0007' 087F               	movf	127,w
   809  0008' 047E               	iorwf	126,w
   810  0009' 1903               	btfsc	3,2
   811  000A' 3400               	retlw	0	;all done for this memory range, return
   812  000B' 2800'              	goto	clrloop0	;have we reached the end yet?
   813                           
   814                           	psect	cstackBANK4
   815  0000'                    __pcstackBANK4:
   816  0000'                    _timer_calc$1033:
   817                           
   818                           ; 4 bytes @ 0x0
   819  0000'                    	ds	4
   820  0004'                    _timer_calc$1034:
   821                           
   822                           ; 4 bytes @ 0x4
   823  0004'                    	ds	4
   824  0008'                    _timer_calc$1035:
   825                           
   826                           ; 4 bytes @ 0x8
   827  0008'                    	ds	4
   828  000C'                    timer_calc@round_253:
   829                           
   830                           ; 2 bytes @ 0xC
   831  000C'                    	ds	2
   832  000E'                    timer_calc@round:
   833                           
   834                           ; 2 bytes @ 0xE
   835  000E'                    	ds	2
   836  0010'                    ??_init_osc:
   837  0010'                    ??_init_gpio:	
   838                           ; 1 bytes @ 0x10
   839                           
   840                           
   841                           ; 1 bytes @ 0x10
   842  0010'                    	ds	1
   843  0011'                    ??_pic_init:
   844  0011'                    ??_main:	
   845                           ; 1 bytes @ 0x11
   846                           
   847                           
   848                           	psect	cstackBANK3
   849  0000'                    __pcstackBANK3:	
   850                           ; 1 bytes @ 0x11
   851                           
   852  0000'                    powf@v:
   853                           
   854                           ; 4 bytes @ 0x0
   855  0000'                    	ds	4
   856  0004'                    powf@hy:
   857                           
   858                           ; 4 bytes @ 0x4
   859  0004'                    	ds	4
   860  0008'                    powf@t1:
   861                           
   862                           ; 4 bytes @ 0x8
   863  0008'                    	ds	4
   864  000C'                    powf@s2:
   865                           
   866                           ; 4 bytes @ 0xC
   867  000C'                    	ds	4
   868  0010'                    powf@is:
   869                           
   870                           ; 4 bytes @ 0x10
   871  0010'                    	ds	4
   872  0014'                    _powf$1039:
   873                           
   874                           ; 4 bytes @ 0x14
   875  0014'                    	ds	4
   876  0018'                    powf@iy:
   877                           
   878                           ; 4 bytes @ 0x18
   879  0018'                    	ds	4
   880  001C'                    powf@p_h:
   881                           
   882                           ; 4 bytes @ 0x1C
   883  001C'                    	ds	4
   884  0020'                    powf@k:
   885                           
   886                           ; 4 bytes @ 0x20
   887  0020'                    	ds	4
   888  0024'                    powf@j:
   889                           
   890                           ; 4 bytes @ 0x24
   891  0024'                    	ds	4
   892  0028'                    powf@ix:
   893                           
   894                           ; 4 bytes @ 0x28
   895  0028'                    	ds	4
   896  002C'                    powf@t:
   897                           
   898                           ; 4 bytes @ 0x2C
   899  002C'                    	ds	4
   900  0030'                    powf@z:
   901                           
   902                           ; 4 bytes @ 0x30
   903  0030'                    	ds	4
   904  0034'                    ?_pow:
   905  0034'                    pow@x:	
   906                           ; 4 bytes @ 0x34
   907                           
   908                           
   909                           ; 4 bytes @ 0x34
   910  0034'                    	ds	4
   911  0038'                    pow@y:
   912                           
   913                           ; 4 bytes @ 0x38
   914  0038'                    	ds	4
   915  003C'                    ??_timer_calc:
   916                           
   917                           ; 1 bytes @ 0x3C
   918  003C'                    	ds	8
   919  0044'                    ??_isr:
   920                           
   921                           ; 1 bytes @ 0x44
   922  0044'                    	ds	4
   923                           
   924                           	psect	cstackBANK2
   925  0000'                    __pcstackBANK2:
   926  0000'                    powf@t_l:
   927                           
   928                           ; 4 bytes @ 0x0
   929  0000'                    	ds	4
   930  0004'                    _powf$1040:
   931                           
   932                           ; 4 bytes @ 0x4
   933  0004'                    	ds	4
   934  0008'                    _powf$1044:
   935                           
   936                           ; 4 bytes @ 0x8
   937  0008'                    	ds	4
   938  000C'                    _powf$1045:
   939                           
   940                           ; 4 bytes @ 0xC
   941  000C'                    	ds	4
   942  0010'                    powf@w:
   943                           
   944                           ; 4 bytes @ 0x10
   945  0010'                    	ds	4
   946  0014'                    _powf$1036:
   947                           
   948                           ; 4 bytes @ 0x14
   949  0014'                    	ds	4
   950  0018'                    _powf$1038:
   951                           
   952                           ; 4 bytes @ 0x18
   953  0018'                    	ds	4
   954  001C'                    powf@r:
   955                           
   956                           ; 4 bytes @ 0x1C
   957  001C'                    	ds	4
   958  0020'                    powf@yisint:
   959                           
   960                           ; 4 bytes @ 0x20
   961  0020'                    	ds	4
   962  0024'                    _powf$1037:
   963                           
   964                           ; 4 bytes @ 0x24
   965  0024'                    	ds	4
   966  0028'                    _powf$1043:
   967                           
   968                           ; 4 bytes @ 0x28
   969  0028'                    	ds	4
   970  002C'                    powf@s:
   971                           
   972                           ; 4 bytes @ 0x2C
   973  002C'                    	ds	4
   974  0030'                    powf@sn:
   975                           
   976                           ; 4 bytes @ 0x30
   977  0030'                    	ds	4
   978  0034'                    powf@hx:
   979                           
   980                           ; 4 bytes @ 0x34
   981  0034'                    	ds	4
   982  0038'                    powf@p_l:
   983                           
   984                           ; 4 bytes @ 0x38
   985  0038'                    	ds	4
   986  003C'                    powf@t_h:
   987                           
   988                           ; 4 bytes @ 0x3C
   989  003C'                    	ds	4
   990  0040'                    powf@s_h:
   991                           
   992                           ; 4 bytes @ 0x40
   993  0040'                    	ds	4
   994  0044'                    powf@ax:
   995                           
   996                           ; 4 bytes @ 0x44
   997  0044'                    	ds	4
   998  0048'                    powf@u:
   999                           
  1000                           ; 4 bytes @ 0x48
  1001  0048'                    	ds	4
  1002  004C'                    powf@n:
  1003                           
  1004                           ; 4 bytes @ 0x4C
  1005  004C'                    	ds	4
  1006                           
  1007                           	psect	cstackBANK1
  1008  0000'                    __pcstackBANK1:
  1009  0000'                    ?___flge:
  1010  0000'                    ___flge@ff1:	
  1011                           ; 1 bit 
  1012                           
  1013                           
  1014                           ; 4 bytes @ 0x0
  1015  0000'                    	ds	4
  1016  0004'                    ___flge@ff2:
  1017                           
  1018                           ; 4 bytes @ 0x4
  1019  0004'                    	ds	4
  1020  0008'                    ?_powf:
  1021  0008'                    powf@x:	
  1022                           ; 4 bytes @ 0x8
  1023                           
  1024                           
  1025                           ; 4 bytes @ 0x8
  1026  0008'                    	ds	4
  1027  000C'                    powf@y:
  1028                           
  1029                           ; 4 bytes @ 0xC
  1030  000C'                    	ds	4
  1031  0010'                    ??_powf:
  1032                           
  1033                           ; 1 bytes @ 0x10
  1034  0010'                    	ds	9
  1035  0019'                    _powf$1041:
  1036                           
  1037                           ; 4 bytes @ 0x19
  1038  0019'                    	ds	4
  1039  001D'                    _powf$1042:
  1040                           
  1041                           ; 4 bytes @ 0x1D
  1042  001D'                    	ds	4
  1043  0021'                    _powf$1046:
  1044                           
  1045                           ; 4 bytes @ 0x21
  1046  0021'                    	ds	4
  1047  0025'                    _powf$1047:
  1048                           
  1049                           ; 4 bytes @ 0x25
  1050  0025'                    	ds	4
  1051  0029'                    _powf$1048:
  1052                           
  1053                           ; 4 bytes @ 0x29
  1054  0029'                    	ds	4
  1055  002D'                    _powf$1049:
  1056                           
  1057                           ; 4 bytes @ 0x2D
  1058  002D'                    	ds	4
  1059  0031'                    _powf$1050:
  1060                           
  1061                           ; 4 bytes @ 0x31
  1062  0031'                    	ds	4
  1063  0035'                    powf@t2:
  1064                           
  1065                           ; 4 bytes @ 0x35
  1066  0035'                    	ds	4
  1067  0039'                    powf@z_h:
  1068                           
  1069                           ; 4 bytes @ 0x39
  1070  0039'                    	ds	4
  1071  003D'                    powf@z_l:
  1072                           
  1073                           ; 4 bytes @ 0x3D
  1074  003D'                    	ds	4
  1075  0041'                    powf@i:
  1076                           
  1077                           ; 4 bytes @ 0x41
  1078  0041'                    	ds	4
  1079  0045'                    powf@y1:
  1080                           
  1081                           ; 4 bytes @ 0x45
  1082  0045'                    	ds	4
  1083  0049'                    powf@s_l:
  1084                           
  1085                           ; 4 bytes @ 0x49
  1086  0049'                    	ds	4
  1087                           
  1088                           	psect	cstackCOMMON
  1089  0000'                    __pcstackCOMMON:
  1090  0000'                    ?_pic_init:
  1091  0000'                    ?_init_osc:	
  1092                           ; 1 bytes @ 0x0
  1093                           
  1094  0000'                    ?_init_gpio:	
  1095                           ; 1 bytes @ 0x0
  1096                           
  1097  0000'                    ?_main:	
  1098                           ; 1 bytes @ 0x0
  1099                           
  1100  0000'                    ?_timer_calc:	
  1101                           ; 1 bytes @ 0x0
  1102                           
  1103  0000'                    ?_isr:	
  1104                           ; 1 bytes @ 0x0
  1105                           
  1106  0000'                    ?__Umul8_16:	
  1107                           ; 1 bytes @ 0x0
  1108                           
  1109  0000'                    ?_sqrtf:	
  1110                           ; 2 bytes @ 0x0
  1111                           
  1112  0000'                    ?___flneg:	
  1113                           ; 4 bytes @ 0x0
  1114                           
  1115  0000'                    ?___fltol:	
  1116                           ; 4 bytes @ 0x0
  1117                           
  1118  0000'                    ?___xxtofl:	
  1119                           ; 4 bytes @ 0x0
  1120                           
  1121  0000'                    __Umul8_16@multiplicand:	
  1122                           ; 4 bytes @ 0x0
  1123                           
  1124  0000'                    ___flneg@f1:	
  1125                           ; 1 bytes @ 0x0
  1126                           
  1127  0000'                    ___fltol@f1:	
  1128                           ; 4 bytes @ 0x0
  1129                           
  1130  0000'                    ___xxtofl@val:	
  1131                           ; 4 bytes @ 0x0
  1132                           
  1133  0000'                    sqrtf@x:	
  1134                           ; 4 bytes @ 0x0
  1135                           
  1136                           
  1137                           ; 4 bytes @ 0x0
  1138  0000'                    	ds	2
  1139  0002'                    ??__Umul8_16:
  1140                           
  1141                           ; 1 bytes @ 0x2
  1142  0002'                    	ds	2
  1143  0004'                    ??_sqrtf:
  1144  0004'                    ??___flneg:	
  1145                           ; 1 bytes @ 0x4
  1146                           
  1147  0004'                    ??___fltol:	
  1148                           ; 1 bytes @ 0x4
  1149                           
  1150  0004'                    ??___xxtofl:	
  1151                           ; 1 bytes @ 0x4
  1152                           
  1153  0004'                    __Umul8_16@product:	
  1154                           ; 1 bytes @ 0x4
  1155                           
  1156                           
  1157                           ; 2 bytes @ 0x4
  1158  0004'                    	ds	2
  1159  0006'                    __Umul8_16@word_mpld:
  1160                           
  1161                           ; 2 bytes @ 0x6
  1162  0006'                    	ds	2
  1163  0008'                    ___fltol@sign1:
  1164  0008'                    __Umul8_16@multiplier:	
  1165                           ; 1 bytes @ 0x8
  1166                           
  1167  0008'                    ___xxtofl@sign:	
  1168                           ; 1 bytes @ 0x8
  1169                           
  1170                           
  1171                           ; 1 bytes @ 0x8
  1172  0008'                    	ds	1
  1173  0009'                    ??___flmul:
  1174  0009'                    ___fltol@exp1:	
  1175                           ; 1 bytes @ 0x9
  1176                           
  1177  0009'                    ___xxtofl@exp:	
  1178                           ; 1 bytes @ 0x9
  1179                           
  1180                           
  1181                           ; 1 bytes @ 0x9
  1182  0009'                    	ds	1
  1183  000A'                    ___xxtofl@arg:
  1184                           
  1185                           ; 4 bytes @ 0xA
  1186  000A'                    	ds	4
  1187  000E'                    ??_pow:
  1188  000E'                    ??___flsub:	
  1189                           ; 1 bytes @ 0xE
  1190                           
  1191                           
  1192                           	psect	cstackBANK0
  1193  0000'                    __pcstackBANK0:	
  1194                           ; 1 bytes @ 0xE
  1195                           
  1196  0000'                    ?___flmul:
  1197  0000'                    ___flmul@b:	
  1198                           ; 4 bytes @ 0x0
  1199                           
  1200  0000'                    sqrtf@s:	
  1201                           ; 4 bytes @ 0x0
  1202                           
  1203                           
  1204                           ; 4 bytes @ 0x0
  1205  0000'                    	ds	4
  1206  0004'                    ___flmul@a:
  1207  0004'                    sqrtf@i:	
  1208                           ; 4 bytes @ 0x4
  1209                           
  1210                           
  1211                           ; 4 bytes @ 0x4
  1212  0004'                    	ds	4
  1213  0008'                    ___flmul@sign:
  1214  0008'                    sqrtf@q:	
  1215                           ; 1 bytes @ 0x8
  1216                           
  1217                           
  1218                           ; 4 bytes @ 0x8
  1219  0008'                    	ds	1
  1220  0009'                    ___flmul@aexp:
  1221                           
  1222                           ; 1 bytes @ 0x9
  1223  0009'                    	ds	1
  1224  000A'                    ___flmul@grs:
  1225                           
  1226                           ; 4 bytes @ 0xA
  1227  000A'                    	ds	2
  1228  000C'                    sqrtf@t:
  1229                           
  1230                           ; 4 bytes @ 0xC
  1231  000C'                    	ds	2
  1232  000E'                    ___flmul@bexp:
  1233                           
  1234                           ; 1 bytes @ 0xE
  1235  000E'                    	ds	1
  1236  000F'                    ___flmul@prod:
  1237                           
  1238                           ; 4 bytes @ 0xF
  1239  000F'                    	ds	1
  1240  0010'                    sqrtf@m:
  1241                           
  1242                           ; 4 bytes @ 0x10
  1243  0010'                    	ds	3
  1244  0013'                    ___flmul@temp:
  1245                           
  1246                           ; 2 bytes @ 0x13
  1247  0013'                    	ds	1
  1248  0014'                    sqrtf@r:
  1249                           
  1250                           ; 4 bytes @ 0x14
  1251  0014'                    	ds	1
  1252  0015'                    ?_scalbnf:
  1253  0015'                    ?___fladd:	
  1254                           ; 4 bytes @ 0x15
  1255                           
  1256  0015'                    ___fladd@b:	
  1257                           ; 4 bytes @ 0x15
  1258                           
  1259  0015'                    scalbnf@x:	
  1260                           ; 4 bytes @ 0x15
  1261                           
  1262                           
  1263                           ; 4 bytes @ 0x15
  1264  0015'                    	ds	3
  1265  0018'                    sqrtf@ix:
  1266                           
  1267                           ; 4 bytes @ 0x18
  1268  0018'                    	ds	1
  1269  0019'                    scalbnf@n:
  1270  0019'                    ___fladd@a:	
  1271                           ; 2 bytes @ 0x19
  1272                           
  1273                           
  1274                           ; 4 bytes @ 0x19
  1275  0019'                    	ds	2
  1276  001B'                    ??_scalbnf:
  1277                           
  1278                           ; 1 bytes @ 0x1B
  1279  001B'                    	ds	2
  1280  001D'                    ??___fladd:
  1281                           
  1282                           ; 1 bytes @ 0x1D
  1283  001D'                    	ds	4
  1284  0021'                    scalbnf@u:
  1285                           
  1286                           ; 4 bytes @ 0x21
  1287  0021'                    	ds	4
  1288  0025'                    ___fladd@signs:
  1289  0025'                    scalbnf@y:	
  1290                           ; 1 bytes @ 0x25
  1291                           
  1292                           
  1293                           ; 4 bytes @ 0x25
  1294  0025'                    	ds	1
  1295  0026'                    ___fladd@aexp:
  1296                           
  1297                           ; 1 bytes @ 0x26
  1298  0026'                    	ds	1
  1299  0027'                    ___fladd@bexp:
  1300                           
  1301                           ; 1 bytes @ 0x27
  1302  0027'                    	ds	1
  1303  0028'                    ___fladd@grs:
  1304                           
  1305                           ; 1 bytes @ 0x28
  1306  0028'                    	ds	1
  1307  0029'                    ?___fldiv:
  1308  0029'                    ___fldiv@a:	
  1309                           ; 4 bytes @ 0x29
  1310                           
  1311                           
  1312                           ; 4 bytes @ 0x29
  1313  0029'                    	ds	4
  1314  002D'                    ___fldiv@b:
  1315                           
  1316                           ; 4 bytes @ 0x2D
  1317  002D'                    	ds	4
  1318  0031'                    ??___fldiv:
  1319                           
  1320                           ; 1 bytes @ 0x31
  1321  0031'                    	ds	5
  1322  0036'                    ___fldiv@rem:
  1323                           
  1324                           ; 4 bytes @ 0x36
  1325  0036'                    	ds	4
  1326  003A'                    ___fldiv@sign:
  1327                           
  1328                           ; 1 bytes @ 0x3A
  1329  003A'                    	ds	1
  1330  003B'                    ___fldiv@new_exp:
  1331                           
  1332                           ; 2 bytes @ 0x3B
  1333  003B'                    	ds	2
  1334  003D'                    ___fldiv@grs:
  1335                           
  1336                           ; 4 bytes @ 0x3D
  1337  003D'                    	ds	4
  1338  0041'                    ___fldiv@bexp:
  1339                           
  1340                           ; 1 bytes @ 0x41
  1341  0041'                    	ds	1
  1342  0042'                    ___fldiv@aexp:
  1343                           
  1344                           ; 1 bytes @ 0x42
  1345  0042'                    	ds	1
  1346  0043'                    ?___flsub:
  1347  0043'                    ___flsub@a:	
  1348                           ; 4 bytes @ 0x43
  1349                           
  1350                           
  1351                           ; 4 bytes @ 0x43
  1352  0043'                    	ds	4
  1353  0047'                    ___flsub@b:
  1354                           
  1355                           ; 4 bytes @ 0x47
  1356  0047'                    	ds	4
  1357  004B'                    ??___flge:
  1358                           
  1359                           ; 1 bytes @ 0x4B
  1360  004B'                    	ds	4
  1361                           
  1362                           	psect	maintext
  1363  0000'                    __pmaintext:	
  1364 ;;
  1365 ;;Main: autosize = 0, tempsize = 0, incstack = 0, save=0
  1366 ;;
  1367 ;; *************** function _main *****************
  1368 ;; Defined at:
  1369 ;;		line 100 in file "newmain.c"
  1370 ;; Parameters:    Size  Location     Type
  1371 ;;		None
  1372 ;; Auto vars:     Size  Location     Type
  1373 ;;		None
  1374 ;; Return value:  Size  Location     Type
  1375 ;;                  1    wreg      void 
  1376 ;; Registers used:
  1377 ;;		wreg, status,2, status,0, pclath, cstack
  1378 ;; Tracked objects:
  1379 ;;		On entry : B1F/0
  1380 ;;		On exit  : B1F/0
  1381 ;;		Unchanged: B00/0
  1382 ;; Data sizes:     COMMON   BANK0   BANK1   BANK2   BANK3   BANK4   BANK5   BANK6   BANK7   BANK8   BANK9  BANK10  BANK1
      +1  BANK12
  1383 ;;      Params:         0       0       0       0       0       0       0       0       0       0       0       0       
      +0       0
  1384 ;;      Locals:         0       0       0       0       0       0       0       0       0       0       0       0       
      +0       0
  1385 ;;      Temps:          0       0       0       0       0       0       0       0       0       0       0       0       
      +0       0
  1386 ;;      Totals:         0       0       0       0       0       0       0       0       0       0       0       0       
      +0       0
  1387 ;;Total ram usage:        0 bytes
  1388 ;; Hardware stack levels required when called: 9
  1389 ;; This function calls:
  1390 ;;		_pic_init
  1391 ;; This function is called by:
  1392 ;;		Startup code after reset
  1393 ;; This function uses a non-reentrant model
  1394 ;;
  1395                           
  1396  0000'                    _main:	
  1397                           ;psect for function _main
  1398                           
  1399                           
  1400                           ;newmain.c: 103:     pic_init();
  1401                           
  1402                           ;incstack = 0
  1403                           ; Regs used in _main: [wreg+status,2+status,0+pclath+cstack]
  1404  0000' 3180' 2000' 3180'  	fcall	_pic_init
  1405  0003'                    l83:	
  1406                           ;newmain.c: 104:     while (1)
  1407                           
  1408                           
  1409                           ;newmain.c: 105:         {;newmain.c: 107:         }
  1410  0003' 2800'              	goto	l83
  1411  0004'                    __end_of_main:
  1412                           
  1413                           	psect	text1
  1414  0000'                    __ptext1:	
  1415 ;; *************** function _pic_init *****************
  1416 ;; Defined at:
  1417 ;;		line 110 in file "newmain.c"
  1418 ;; Parameters:    Size  Location     Type
  1419 ;;		None
  1420 ;; Auto vars:     Size  Location     Type
  1421 ;;		None
  1422 ;; Return value:  Size  Location     Type
  1423 ;;                  1    wreg      void 
  1424 ;; Registers used:
  1425 ;;		wreg, status,2, status,0, pclath, cstack
  1426 ;; Tracked objects:
  1427 ;;		On entry : B1F/0
  1428 ;;		On exit  : B1F/0
  1429 ;;		Unchanged: B00/0
  1430 ;; Data sizes:     COMMON   BANK0   BANK1   BANK2   BANK3   BANK4   BANK5   BANK6   BANK7   BANK8   BANK9  BANK10  BANK1
      +1  BANK12
  1431 ;;      Params:         0       0       0       0       0       0       0       0       0       0       0       0       
      +0       0
  1432 ;;      Locals:         0       0       0       0       0       0       0       0       0       0       0       0       
      +0       0
  1433 ;;      Temps:          0       0       0       0       0       0       0       0       0       0       0       0       
      +0       0
  1434 ;;      Totals:         0       0       0       0       0       0       0       0       0       0       0       0       
      +0       0
  1435 ;;Total ram usage:        0 bytes
  1436 ;; Hardware stack levels used: 1
  1437 ;; Hardware stack levels required when called: 8
  1438 ;; This function calls:
  1439 ;;		_init_gpio
  1440 ;;		_init_osc
  1441 ;; This function is called by:
  1442 ;;		_main
  1443 ;; This function uses a non-reentrant model
  1444 ;;
  1445                           
  1446  0000'                    _pic_init:	
  1447                           ;psect for function _pic_init
  1448                           
  1449                           
  1450                           ;newmain.c: 112:     init_osc();
  1451                           
  1452                           ;incstack = 0
  1453                           ; Regs used in _pic_init: [wreg+status,2+status,0+pclath+cstack]
  1454  0000' 3180' 2000' 3180'  	fcall	_init_osc
  1455                           
  1456                           ;newmain.c: 113:     init_gpio();
  1457  0003' 3180' 2000'        	fcall	_init_gpio
  1458  0005' 0008               	return
  1459  0006'                    __end_of_pic_init:
  1460                           
  1461                           	psect	text2
  1462  0000'                    __ptext2:	
  1463 ;; *************** function _init_osc *****************
  1464 ;; Defined at:
  1465 ;;		line 116 in file "newmain.c"
  1466 ;; Parameters:    Size  Location     Type
  1467 ;;		None
  1468 ;; Auto vars:     Size  Location     Type
  1469 ;;		None
  1470 ;; Return value:  Size  Location     Type
  1471 ;;                  1    wreg      void 
  1472 ;; Registers used:
  1473 ;;		wreg
  1474 ;; Tracked objects:
  1475 ;;		On entry : B1F/0
  1476 ;;		On exit  : B1F/1
  1477 ;;		Unchanged: B00/0
  1478 ;; Data sizes:     COMMON   BANK0   BANK1   BANK2   BANK3   BANK4   BANK5   BANK6   BANK7   BANK8   BANK9  BANK10  BANK1
      +1  BANK12
  1479 ;;      Params:         0       0       0       0       0       0       0       0       0       0       0       0       
      +0       0
  1480 ;;      Locals:         0       0       0       0       0       0       0       0       0       0       0       0       
      +0       0
  1481 ;;      Temps:          0       0       0       0       0       0       0       0       0       0       0       0       
      +0       0
  1482 ;;      Totals:         0       0       0       0       0       0       0       0       0       0       0       0       
      +0       0
  1483 ;;Total ram usage:        0 bytes
  1484 ;; Hardware stack levels used: 1
  1485 ;; Hardware stack levels required when called: 7
  1486 ;; This function calls:
  1487 ;;		Nothing
  1488 ;; This function is called by:
  1489 ;;		_pic_init
  1490 ;; This function uses a non-reentrant model
  1491 ;;
  1492                           
  1493  0000'                    _init_osc:	
  1494                           ;psect for function _init_osc
  1495                           
  1496                           
  1497                           ;newmain.c: 126:     OSCCON = 0b00101000;
  1498                           
  1499                           ;incstack = 0
  1500                           ; Regs used in _init_osc: [wreg]
  1501  0000' 3028               	movlw	40
  1502  0001' 0021               	movlb	1	; select bank1
  1503  0002' 0099               	movwf	25	;volatile
  1504  0003' 0008               	return
  1505  0004'                    __end_of_init_osc:
  1506                           
  1507                           	psect	text3
  1508  0000'                    __ptext3:	
  1509 ;; *************** function _init_gpio *****************
  1510 ;; Defined at:
  1511 ;;		line 130 in file "newmain.c"
  1512 ;; Parameters:    Size  Location     Type
  1513 ;;		None
  1514 ;; Auto vars:     Size  Location     Type
  1515 ;;		None
  1516 ;; Return value:  Size  Location     Type
  1517 ;;                  1    wreg      void 
  1518 ;; Registers used:
  1519 ;;		wreg, status,2, status,0
  1520 ;; Tracked objects:
  1521 ;;		On entry : B1F/1
  1522 ;;		On exit  : B1F/0
  1523 ;;		Unchanged: B00/0
  1524 ;; Data sizes:     COMMON   BANK0   BANK1   BANK2   BANK3   BANK4   BANK5   BANK6   BANK7   BANK8   BANK9  BANK10  BANK1
      +1  BANK12
  1525 ;;      Params:         0       0       0       0       0       0       0       0       0       0       0       0       
      +0       0
  1526 ;;      Locals:         0       0       0       0       0       0       0       0       0       0       0       0       
      +0       0
  1527 ;;      Temps:          0       0       0       0       0       1       0       0       0       0       0       0       
      +0       0
  1528 ;;      Totals:         0       0       0       0       0       1       0       0       0       0       0       0       
      +0       0
  1529 ;;Total ram usage:        1 bytes
  1530 ;; Hardware stack levels used: 1
  1531 ;; Hardware stack levels required when called: 7
  1532 ;; This function calls:
  1533 ;;		Nothing
  1534 ;; This function is called by:
  1535 ;;		_pic_init
  1536 ;; This function uses a non-reentrant model
  1537 ;;
  1538                           
  1539  0000'                    _init_gpio:	
  1540                           ;psect for function _init_gpio
  1541                           
  1542                           
  1543                           ;newmain.c: 133:     TRISAbits.TRISA2 = 1;
  1544                           
  1545                           ;incstack = 0
  1546                           ; Regs used in _init_gpio: [wreg+status,2+status,0]
  1547  0000' 150C               	bsf	12,2	;volatile
  1548                           
  1549                           ;newmain.c: 134:     TRISC = 0;
  1550  0001' 018E               	clrf	14	;volatile
  1551                           
  1552                           ;newmain.c: 135:     ANSELAbits.ANSA2 = 0;
  1553  0002' 0023               	movlb	3	; select bank3
  1554  0003' 110C               	bcf	12,2	;volatile
  1555                           
  1556                           ;newmain.c: 136:     LATCbits.LATC3 = 0;
  1557  0004' 0022               	movlb	2	; select bank2
  1558  0005' 118E               	bcf	14,3	;volatile
  1559                           
  1560                           ;newmain.c: 137:     LATCbits.LATC0 = 0;
  1561  0006' 100E               	bcf	14,0	;volatile
  1562                           
  1563                           ;newmain.c: 138:     LATCbits.LATC1 = 1;
  1564  0007' 148E               	bsf	14,1	;volatile
  1565                           
  1566                           ;newmain.c: 141:     T1CON = 0x10;
  1567  0008' 3010               	movlw	16
  1568  0009' 0020               	movlb	0	; select bank0
  1569  000A' 0098               	movwf	24	;volatile
  1570                           
  1571                           ;newmain.c: 142:     T1GCON = 0x00;
  1572  000B' 0199               	clrf	25	;volatile
  1573                           
  1574                           ;newmain.c: 143:     T1CONbits.T1CKPS = 0b11;
  1575  000C' 3030               	movlw	48
  1576  000D' 0498               	iorwf	24,f	;volatile
  1577                           
  1578                           ;newmain.c: 146:     PEIE = 1;
  1579  000E' 170B               	bsf	11,6	;volatile
  1580                           
  1581                           ;newmain.c: 147:     GIE = 1;
  1582  000F' 178B               	bsf	11,7	;volatile
  1583                           
  1584                           ;newmain.c: 150:     T2CON |= 56;
  1585  0010' 3038               	movlw	56
  1586  0011' 0024               	movlb	4	; select bank4
  1587  0012' 0080'              	movwf	??_init_gpio^(0+512)
  1588  0013' 0800'              	movf	??_init_gpio^(0+512),w
  1589  0014' 0020               	movlb	0	; select bank0
  1590  0015' 049C               	iorwf	28,f	;volatile
  1591                           
  1592                           ;newmain.c: 151:     TMR2ON = 1;
  1593  0016' 151C               	bsf	28,2	;volatile
  1594                           
  1595                           ;newmain.c: 152:     T2CKPS1 = 1;
  1596  0017' 149C               	bsf	28,1	;volatile
  1597                           
  1598                           ;newmain.c: 153:     T2CKPS0 = 0;
  1599  0018' 101C               	bcf	28,0	;volatile
  1600                           
  1601                           ;newmain.c: 154:     PR2 = 123;
  1602  0019' 307B               	movlw	123
  1603  001A' 009B               	movwf	27	;volatile
  1604                           
  1605                           ;newmain.c: 157:     TMR1IE = 1;
  1606  001B' 0021               	movlb	1	; select bank1
  1607  001C' 1411               	bsf	17,0	;volatile
  1608                           
  1609                           ;newmain.c: 158:     TMR2IE = 1;
  1610  001D' 1491               	bsf	17,1	;volatile
  1611                           
  1612                           ;newmain.c: 160:     TMR1ON = 1;
  1613  001E' 0020               	movlb	0	; select bank0
  1614  001F' 1418               	bsf	24,0	;volatile
  1615                           
  1616                           ;newmain.c: 161:     TMR2ON = 1;
  1617  0020' 151C               	bsf	28,2	;volatile
  1618                           
  1619                           ;newmain.c: 162:     TMR1 = 61629;
  1620  0021' 30F0               	movlw	240
  1621  0022' 0097               	movwf	23	;volatile
  1622  0023' 30BD               	movlw	189
  1623  0024' 0096               	movwf	22	;volatile
  1624                           
  1625                           ;newmain.c: 163:     TMR2 = 123;
  1626  0025' 307B               	movlw	123
  1627  0026' 009A               	movwf	26	;volatile
  1628  0027' 0008               	return
  1629  0028'                    __end_of_init_gpio:
  1630                           
  1631                           	psect	intentry
  1632  0000'                    __pintentry:	
  1633 ;; *************** function _isr *****************
  1634 ;; Defined at:
  1635 ;;		line 198 in file "newmain.c"
  1636 ;; Parameters:    Size  Location     Type
  1637 ;;		None
  1638 ;; Auto vars:     Size  Location     Type
  1639 ;;		None
  1640 ;; Return value:  Size  Location     Type
  1641 ;;                  1    wreg      void 
  1642 ;; Registers used:
  1643 ;;		wreg, fsr0l, fsr0h, fsr1l, fsr1h, status,2, status,0, pclath, cstack
  1644 ;; Tracked objects:
  1645 ;;		On entry : 0/0
  1646 ;;		On exit  : 1F/4
  1647 ;;		Unchanged: 0/0
  1648 ;; Data sizes:     COMMON   BANK0   BANK1   BANK2   BANK3   BANK4   BANK5   BANK6   BANK7   BANK8   BANK9  BANK10  BANK1
      +1  BANK12
  1649 ;;      Params:         0       0       0       0       0       0       0       0       0       0       0       0       
      +0       0
  1650 ;;      Locals:         0       0       0       0       0       0       0       0       0       0       0       0       
      +0       0
  1651 ;;      Temps:          0       0       0       0       4       0       0       0       0       0       0       0       
      +0       0
  1652 ;;      Totals:         0       0       0       0       4       0       0       0       0       0       0       0       
      +0       0
  1653 ;;Total ram usage:        4 bytes
  1654 ;; Hardware stack levels used: 1
  1655 ;; Hardware stack levels required when called: 6
  1656 ;; This function calls:
  1657 ;;		___fltol
  1658 ;;		___xxtofl
  1659 ;;		_timer_calc
  1660 ;; This function is called by:
  1661 ;;		Interrupt level 1
  1662 ;; This function uses a non-reentrant model
  1663 ;;
  1664                           
  1665  0000'                    _isr:
  1666                           
  1667                           ;incstack = 0
  1668  0000' 147E               	bsf	126,0	;set compiler interrupt flag (level 1)
  1669                           
  1670                           ; Regs used in _isr: [wreg-fsr1h+status,2+status,0+pclath+cstack]
  1671  0001' 3180'              	pagesel	$
  1672                           
  1673                           ;newmain.c: 200:     if (TMR2IF && button_1_getriggerd == 1)
  1674  0002' 0020               	movlb	0	; select bank0
  1675  0003' 1C91               	btfss	17,1	;volatile
  1676  0004' 2800'              	goto	i1l3317
  1677  0005' 0024               	movlb	4	; select bank4
  1678  0006' 0300'              	decf	_button_1_getriggerd^(0+512),w
  1679  0007' 0400'              	iorwf	(_button_1_getriggerd+1)^(0+512),w
  1680  0008' 1D03               	btfss	3,2
  1681  0009' 2800'              	goto	i1l3317
  1682                           
  1683                           ;newmain.c: 201:         {;newmain.c: 202:         TMR2IF = 0;
  1684  000A' 0020               	movlb	0	; select bank0
  1685  000B' 1091               	bcf	17,1	;volatile
  1686                           
  1687                           ;newmain.c: 203:         LATCbits.LATC1 ^= 1;
  1688  000C' 0022               	movlb	2	; select bank2
  1689  000D' 0C0E               	rrf	14,w	;volatile
  1690  000E' 3901               	andlw	1
  1691  000F' 0023               	movlb	3	; select bank3
  1692  0010' 0080'              	movwf	??_isr^(0+384)
  1693  0011' 3001               	movlw	1
  1694  0012' 0680'              	xorwf	??_isr^(0+384),f
  1695  0013' 0D80'              	rlf	??_isr^(0+384),f
  1696  0014' 0022               	movlb	2	; select bank2
  1697  0015' 080E               	movf	14,w	;volatile
  1698  0016' 0023               	movlb	3	; select bank3
  1699  0017' 0600'              	xorwf	??_isr^(0+384),w
  1700  0018' 39FD               	andlw	-3
  1701  0019' 0600'              	xorwf	??_isr^(0+384),w
  1702  001A' 0022               	movlb	2	; select bank2
  1703  001B' 008E               	movwf	14	;volatile
  1704  001C'                    i1l3317:
  1705                           
  1706                           ;newmain.c: 206:     if (INTCONbits.INTF)
  1707  001C' 1C8B               	btfss	11,1	;volatile
  1708  001D' 2800'              	goto	i1l110
  1709                           
  1710                           ;newmain.c: 207:         {;newmain.c: 208:         button_1_getriggerd ^= 1;
  1711  001E' 3001               	movlw	1
  1712  001F' 0024               	movlb	4	; select bank4
  1713  0020' 0680'              	xorwf	_button_1_getriggerd^(0+512),f
  1714  0021' 3000               	movlw	0
  1715  0022' 0680'              	xorwf	(_button_1_getriggerd+1)^(0+512),f
  1716                           
  1717                           ;newmain.c: 209:         switch (button_1_getriggerd)
  1718  0023' 2800'              	goto	i1l3323
  1719  0024'                    i1l112:	
  1720                           ;newmain.c: 210:             {;newmain.c: 211:             case 0:
  1721                           
  1722                           
  1723                           ;newmain.c: 212:                 OPTION_REGbits.INTEDG = 0;
  1724  0024' 0021               	movlb	1	; select bank1
  1725  0025' 1315               	bcf	21,6	;volatile
  1726  0026' 2800'              	goto	L1
  1727  0027'                    i1l114:	
  1728                           ;newmain.c: 215:             case 1:
  1729                           
  1730                           ;newmain.c: 214:                 break;
  1731                           
  1732                           ;newmain.c: 213:                 INTCONbits.INTF = 0;
  1733                           
  1734                           
  1735                           ;newmain.c: 216:                 OPTION_REGbits.INTEDG = 1;
  1736  0027' 0021               	movlb	1	; select bank1
  1737  0028' 1715               	bsf	21,6	;volatile
  1738  0029'                    L1:
  1739                           
  1740                           ;newmain.c: 217:                 INTCONbits.INTF = 0;
  1741  0029' 108B               	bcf	11,1	;volatile
  1742                           
  1743                           ;newmain.c: 218:                 break;
  1744  002A' 2800'              	goto	i1l110
  1745  002B'                    i1l3323:
  1746                           
  1747                           ; Switch on 2 bytes has been partitioned into a top level switch of size 1, and 1 sub-sw
      +                          itches
  1748                           ; Switch size 1, requested type "simple"
  1749                           ; Number of cases is 1, Range of values is 0 to 0
  1750                           ; switch strategies available:
  1751                           ; Name         Instructions Cycles
  1752                           ; simple_byte            4     3 (average)
  1753                           ; direct_byte            8     6 (fixed)
  1754                           ; jumptable            260     6 (fixed)
  1755                           ;	Chosen strategy is simple_byte
  1756  002B' 0800'              	movf	(_button_1_getriggerd+1)^(0+512),w
  1757  002C' 3A00               	xorlw	0	; case 0
  1758  002D' 1903               	skipnz
  1759  002E' 2800'              	goto	i1l3413
  1760  002F' 2800'              	goto	i1l110
  1761  0030'                    i1l3413:
  1762                           
  1763                           ; Switch size 1, requested type "simple"
  1764                           ; Number of cases is 2, Range of values is 0 to 1
  1765                           ; switch strategies available:
  1766                           ; Name         Instructions Cycles
  1767                           ; simple_byte            7     4 (average)
  1768                           ; direct_byte           10     6 (fixed)
  1769                           ; jumptable            260     6 (fixed)
  1770                           ;	Chosen strategy is simple_byte
  1771  0030' 0800'              	movf	_button_1_getriggerd^(0+512),w
  1772  0031' 3A00               	xorlw	0	; case 0
  1773  0032' 1903               	skipnz
  1774  0033' 2800'              	goto	i1l112
  1775  0034' 3A01               	xorlw	1	; case 1
  1776  0035' 1903               	skipnz
  1777  0036' 2800'              	goto	i1l114
  1778  0037' 2800'              	goto	i1l110
  1779  0038'                    i1l110:	
  1780                           ;newmain.c: 220:         }
  1781                           
  1782                           
  1783                           ;newmain.c: 222:     if (TMR1IF && button_1_getriggerd == 1 && release == 0)
  1784  0038' 0020               	movlb	0	; select bank0
  1785  0039' 1C11               	btfss	17,0	;volatile
  1786  003A' 2800'              	goto	i1l3337
  1787  003B' 0024               	movlb	4	; select bank4
  1788  003C' 0300'              	decf	_button_1_getriggerd^(0+512),w
  1789  003D' 0400'              	iorwf	(_button_1_getriggerd+1)^(0+512),w
  1790  003E' 1D03               	btfss	3,2
  1791  003F' 2800'              	goto	i1l3337
  1792  0040' 0800'              	movf	_release^(0+512),w
  1793  0041' 0400'              	iorwf	(_release+1)^(0+512),w
  1794  0042' 1D03               	btfss	3,2
  1795  0043' 2800'              	goto	i1l3337
  1796                           
  1797                           ;newmain.c: 223:         {;newmain.c: 224:         release_2 = 1;
  1798  0044' 3001               	movlw	1
  1799  0045' 0080'              	movwf	_release_2^(0+512)
  1800  0046' 3000               	movlw	0
  1801  0047' 0081'              	movwf	(_release_2^(0+512)+1)
  1802                           
  1803                           ;newmain.c: 225:         TMR1IF = 0;
  1804  0048' 0020               	movlb	0	; select bank0
  1805  0049' 1011               	bcf	17,0	;volatile
  1806                           
  1807                           ;newmain.c: 226:         timer_opname_100ms += 1;
  1808  004A' 3001               	movlw	1
  1809  004B' 0024               	movlb	4	; select bank4
  1810  004C' 0780'              	addwf	_timer_opname_100ms^(0+512),f
  1811  004D' 3000               	movlw	0
  1812  004E' 3D80'              	addwfc	(_timer_opname_100ms+1)^(0+512),f
  1813                           
  1814                           ;newmain.c: 227:         tijd_opname = (timer_opname_100ms);
  1815  004F' 0800'              	movf	_timer_opname_100ms^(0+512),w
  1816  0050' 0080'              	movwf	___xxtofl@val
  1817  0051' 0800'              	movf	(_timer_opname_100ms+1)^(0+512),w
  1818  0052' 0081'              	movwf	___xxtofl@val+1
  1819  0053' 0D89               	rlf	9,f
  1820  0054' 3B89               	subwfb	9,f
  1821  0055' 0989               	comf	9,f
  1822  0056' 0082'              	movwf	___xxtofl@val+2
  1823  0057' 0083'              	movwf	___xxtofl@val+3
  1824  0058' 3001               	movlw	1
  1825  0059' 3180' 2000' 3180'  	fcall	___xxtofl
  1826  005C' 0803'              	movf	?___xxtofl+3,w
  1827  005D' 0024               	movlb	4	; select bank4
  1828  005E' 0080'              	movwf	(_tijd_opname+3)^(0+512)
  1829  005F' 0802'              	movf	?___xxtofl+2,w
  1830  0060' 0080'              	movwf	(_tijd_opname+2)^(0+512)
  1831  0061' 0801'              	movf	?___xxtofl+1,w
  1832  0062' 0080'              	movwf	(_tijd_opname+1)^(0+512)
  1833  0063' 0800'              	movf	?___xxtofl,w
  1834  0064' 0080'              	movwf	_tijd_opname^(0+512)
  1835                           
  1836                           ;newmain.c: 228:         TMR1 = 61629;
  1837  0065' 30F0               	movlw	240
  1838  0066' 0020               	movlb	0	; select bank0
  1839  0067' 0097               	movwf	23	;volatile
  1840  0068' 30BD               	movlw	189
  1841  0069' 0096               	movwf	22	;volatile
  1842                           
  1843                           ;newmain.c: 229:         }
  1844  006A' 2800'              	goto	i1l3347
  1845  006B'                    i1l3337:
  1846  006B' 0024               	movlb	4	; select bank4
  1847  006C' 0800'              	movf	_button_1_getriggerd^(0+512),w
  1848  006D' 0400'              	iorwf	(_button_1_getriggerd+1)^(0+512),w
  1849  006E' 1D03               	btfss	3,2
  1850  006F' 2800'              	goto	i1l3347
  1851  0070' 0800'              	movf	_release^(0+512),w
  1852  0071' 0400'              	iorwf	(_release+1)^(0+512),w
  1853  0072' 1D03               	btfss	3,2
  1854  0073' 2800'              	goto	i1l3347
  1855  0074' 0300'              	decf	_release_2^(0+512),w
  1856  0075' 0400'              	iorwf	(_release_2+1)^(0+512),w
  1857  0076' 1D03               	btfss	3,2
  1858  0077' 2800'              	goto	i1l3347
  1859                           
  1860                           ;newmain.c: 232:         {;newmain.c: 233:         timer_calc();
  1861  0078' 3180' 2000' 3180'  	fcall	_timer_calc
  1862                           
  1863                           ;newmain.c: 234:         release = 1;
  1864  007B' 3001               	movlw	1
  1865  007C' 0024               	movlb	4	; select bank4
  1866  007D' 0080'              	movwf	_release^(0+512)
  1867  007E' 3000               	movlw	0
  1868  007F' 0081'              	movwf	(_release^(0+512)+1)
  1869  0080'                    i1l3347:
  1870                           
  1871                           ;newmain.c: 238:     if (aan_uit_schakelaar == 0 && TMR1IF && button_1_getriggerd == 0 &
      +                          & release == 1)
  1872  0080' 0024               	movlb	4	; select bank4
  1873  0081' 0800'              	movf	_aan_uit_schakelaar^(0+512),w
  1874  0082' 0400'              	iorwf	(_aan_uit_schakelaar+1)^(0+512),w
  1875  0083' 1D03               	btfss	3,2
  1876  0084' 2800'              	goto	i1l3361
  1877  0085' 0020               	movlb	0	; select bank0
  1878  0086' 1C11               	btfss	17,0	;volatile
  1879  0087' 2800'              	goto	i1l3361
  1880  0088' 0024               	movlb	4	; select bank4
  1881  0089' 0800'              	movf	_button_1_getriggerd^(0+512),w
  1882  008A' 0400'              	iorwf	(_button_1_getriggerd+1)^(0+512),w
  1883  008B' 1D03               	btfss	3,2
  1884  008C' 2800'              	goto	i1l3361
  1885  008D' 0300'              	decf	_release^(0+512),w
  1886  008E' 0400'              	iorwf	(_release+1)^(0+512),w
  1887  008F' 1D03               	btfss	3,2
  1888  0090' 2800'              	goto	i1l3361
  1889                           
  1890                           ;newmain.c: 239:         {;newmain.c: 240:         LATCbits.LATC0 = 1;
  1891  0091' 0022               	movlb	2	; select bank2
  1892  0092' 140E               	bsf	14,0	;volatile
  1893                           
  1894                           ;newmain.c: 241:         TMR1IF = 0;
  1895  0093' 0020               	movlb	0	; select bank0
  1896  0094' 1011               	bcf	17,0	;volatile
  1897                           
  1898                           ;newmain.c: 242:         TMR1 = (unsigned short) preload_calc_on[index_counter];
  1899  0095' 0024               	movlb	4	; select bank4
  1900  0096' 0800'              	movf	(_index_counter+1)^(0+512),w
  1901  0097' 0023               	movlb	3	; select bank3
  1902  0098' 0081'              	movwf	(??_isr^(0+384)+1)
  1903  0099' 0024               	movlb	4	; select bank4
  1904  009A' 0800'              	movf	_index_counter^(0+512),w
  1905  009B' 0023               	movlb	3	; select bank3
  1906  009C' 0080'              	movwf	??_isr^(0+384)
  1907  009D' 3580'              	lslf	??_isr^(0+384),f
  1908  009E' 0D81'              	rlf	(??_isr^(0+384)+1),f
  1909  009F' 3580'              	lslf	??_isr^(0+384),f
  1910  00A0' 0D81'              	rlf	(??_isr^(0+384)+1),f
  1911  00A1' 30F4               	movlw	244
  1912  00A2' 0080'              	movwf	(??_isr+2)^(0+384)
  1913  00A3' 3022               	movlw	34
  1914  00A4' 0081'              	movwf	((??_isr+2)^(0+384)+1)
  1915  00A5' 0800'              	movf	??_isr^(0+384),w
  1916  00A6' 0700'              	addwf	(??_isr+2)^(0+384),w
  1917  00A7' 0086               	movwf	6
  1918  00A8' 0800'              	movf	(??_isr+1)^(0+384),w
  1919  00A9' 3D00'              	addwfc	(??_isr+3)^(0+384),w
  1920  00AA' 0087               	movwf	7
  1921  00AB' 3F40               	moviw [0]fsr1
  1922  00AC' 0080'              	movwf	___fltol@f1
  1923  00AD' 3F41               	moviw [1]fsr1
  1924  00AE' 0081'              	movwf	___fltol@f1+1
  1925  00AF' 3F42               	moviw [2]fsr1
  1926  00B0' 0082'              	movwf	___fltol@f1+2
  1927  00B1' 3F43               	moviw [3]fsr1
  1928  00B2' 0083'              	movwf	___fltol@f1+3
  1929  00B3' 3180' 2000' 3180'  	fcall	___fltol
  1930  00B6' 0801'              	movf	?___fltol+1,w
  1931  00B7' 0020               	movlb	0	; select bank0
  1932  00B8' 0097               	movwf	23	;volatile
  1933  00B9' 0800'              	movf	?___fltol,w
  1934  00BA' 0096               	movwf	22	;volatile
  1935                           
  1936                           ;newmain.c: 244:         aan_uit_schakelaar = 1;
  1937  00BB' 3001               	movlw	1
  1938  00BC' 0024               	movlb	4	; select bank4
  1939  00BD' 0080'              	movwf	_aan_uit_schakelaar^(0+512)
  1940  00BE' 3000               	movlw	0
  1941  00BF' 2800'              	goto	L2
  1942  00C0'                    i1l3361:	
  1943                           ;newmain.c: 245:         }
  1944                           
  1945  00C0' 0024               	movlb	4	; select bank4
  1946  00C1' 0300'              	decf	_aan_uit_schakelaar^(0+512),w
  1947  00C2' 0400'              	iorwf	(_aan_uit_schakelaar+1)^(0+512),w
  1948  00C3' 1D03               	btfss	3,2
  1949  00C4' 2800'              	goto	i1l3381
  1950  00C5' 0020               	movlb	0	; select bank0
  1951  00C6' 1C11               	btfss	17,0	;volatile
  1952  00C7' 2800'              	goto	i1l3381
  1953  00C8' 0024               	movlb	4	; select bank4
  1954  00C9' 0800'              	movf	_button_1_getriggerd^(0+512),w
  1955  00CA' 0400'              	iorwf	(_button_1_getriggerd+1)^(0+512),w
  1956  00CB' 1D03               	btfss	3,2
  1957  00CC' 2800'              	goto	i1l3381
  1958  00CD' 0300'              	decf	_release^(0+512),w
  1959  00CE' 0400'              	iorwf	(_release+1)^(0+512),w
  1960  00CF' 1D03               	btfss	3,2
  1961  00D0' 2800'              	goto	i1l3381
  1962                           
  1963                           ;newmain.c: 247:         {;newmain.c: 248:         LATCbits.LATC0 = 0;
  1964  00D1' 0022               	movlb	2	; select bank2
  1965  00D2' 100E               	bcf	14,0	;volatile
  1966                           
  1967                           ;newmain.c: 249:         TMR1IF = 0;
  1968  00D3' 0020               	movlb	0	; select bank0
  1969  00D4' 1011               	bcf	17,0	;volatile
  1970                           
  1971                           ;newmain.c: 250:         TMR1 = (unsigned short) preload_calc_off[index_counter];
  1972  00D5' 0024               	movlb	4	; select bank4
  1973  00D6' 0800'              	movf	(_index_counter+1)^(0+512),w
  1974  00D7' 0023               	movlb	3	; select bank3
  1975  00D8' 0081'              	movwf	(??_isr^(0+384)+1)
  1976  00D9' 0024               	movlb	4	; select bank4
  1977  00DA' 0800'              	movf	_index_counter^(0+512),w
  1978  00DB' 0023               	movlb	3	; select bank3
  1979  00DC' 0080'              	movwf	??_isr^(0+384)
  1980  00DD' 3580'              	lslf	??_isr^(0+384),f
  1981  00DE' 0D81'              	rlf	(??_isr^(0+384)+1),f
  1982  00DF' 3580'              	lslf	??_isr^(0+384),f
  1983  00E0' 0D81'              	rlf	(??_isr^(0+384)+1),f
  1984  00E1' 30A0               	movlw	160
  1985  00E2' 0080'              	movwf	(??_isr+2)^(0+384)
  1986  00E3' 3022               	movlw	34
  1987  00E4' 0081'              	movwf	((??_isr+2)^(0+384)+1)
  1988  00E5' 0800'              	movf	??_isr^(0+384),w
  1989  00E6' 0700'              	addwf	(??_isr+2)^(0+384),w
  1990  00E7' 0086               	movwf	6
  1991  00E8' 0800'              	movf	(??_isr+1)^(0+384),w
  1992  00E9' 3D00'              	addwfc	(??_isr+3)^(0+384),w
  1993  00EA' 0087               	movwf	7
  1994  00EB' 3F40               	moviw [0]fsr1
  1995  00EC' 0080'              	movwf	___fltol@f1
  1996  00ED' 3F41               	moviw [1]fsr1
  1997  00EE' 0081'              	movwf	___fltol@f1+1
  1998  00EF' 3F42               	moviw [2]fsr1
  1999  00F0' 0082'              	movwf	___fltol@f1+2
  2000  00F1' 3F43               	moviw [3]fsr1
  2001  00F2' 0083'              	movwf	___fltol@f1+3
  2002  00F3' 3180' 2000' 3180'  	fcall	___fltol
  2003  00F6' 0801'              	movf	?___fltol+1,w
  2004  00F7' 0020               	movlb	0	; select bank0
  2005  00F8' 0097               	movwf	23	;volatile
  2006  00F9' 0800'              	movf	?___fltol,w
  2007  00FA' 0096               	movwf	22	;volatile
  2008                           
  2009                           ;newmain.c: 252:         index_counter += 1;
  2010  00FB' 3001               	movlw	1
  2011  00FC' 0024               	movlb	4	; select bank4
  2012  00FD' 0780'              	addwf	_index_counter^(0+512),f
  2013  00FE' 3000               	movlw	0
  2014  00FF' 3D80'              	addwfc	(_index_counter+1)^(0+512),f
  2015                           
  2016                           ;newmain.c: 253:         if (index_counter >= 20)
  2017  0100' 0800'              	movf	(_index_counter+1)^(0+512),w
  2018  0101' 3A80               	xorlw	128
  2019  0102' 0023               	movlb	3	; select bank3
  2020  0103' 0080'              	movwf	??_isr^(0+384)
  2021  0104' 3080               	movlw	128
  2022  0105' 0200'              	subwf	??_isr^(0+384),w
  2023  0106' 1D03               	skipz
  2024  0107' 2800'              	goto	u471_25
  2025  0108' 3014               	movlw	20
  2026  0109' 0024               	movlb	4	; select bank4
  2027  010A' 0200'              	subwf	_index_counter^(0+512),w
  2028  010B'                    u471_25:
  2029  010B' 1C03               	skipc
  2030  010C' 2800'              	goto	i1l3379
  2031                           
  2032                           ;newmain.c: 254:             aan_uit_schakelaar = -1;
  2033  010D' 30FF               	movlw	255
  2034  010E' 0024               	movlb	4	; select bank4
  2035  010F' 0080'              	movwf	_aan_uit_schakelaar^(0+512)
  2036  0110' 30FF               	movlw	255
  2037  0111'                    L2:
  2038  0111' 0081'              	movwf	(_aan_uit_schakelaar^(0+512)+1)
  2039  0112' 2800'              	goto	i1l3381
  2040  0113'                    i1l3379:
  2041                           
  2042                           ;newmain.c: 256:             aan_uit_schakelaar = 0;
  2043  0113' 0024               	movlb	4	; select bank4
  2044  0114' 0180'              	clrf	_aan_uit_schakelaar^(0+512)
  2045  0115' 0180'              	clrf	(_aan_uit_schakelaar+1)^(0+512)
  2046  0116'                    i1l3381:
  2047                           
  2048                           ;newmain.c: 258:     if (aan_uit_schakelaar == -1)
  2049  0116' 0024               	movlb	4	; select bank4
  2050  0117' 0A00'              	incf	_aan_uit_schakelaar^(0+512),w
  2051  0118' 1D03               	skipz
  2052  0119' 2800'              	goto	i1l124
  2053  011A' 0A00'              	incf	(_aan_uit_schakelaar+1)^(0+512),w
  2054  011B' 1D03               	btfss	3,2
  2055  011C' 2800'              	goto	i1l124
  2056                           
  2057                           ;newmain.c: 259:         {;newmain.c: 260:         timer_opname_100ms = 0;
  2058  011D' 0180'              	clrf	_timer_opname_100ms^(0+512)
  2059  011E' 0180'              	clrf	(_timer_opname_100ms+1)^(0+512)
  2060                           
  2061                           ;newmain.c: 261:         release = 0;
  2062  011F' 0180'              	clrf	_release^(0+512)
  2063  0120' 0180'              	clrf	(_release+1)^(0+512)
  2064                           
  2065                           ;newmain.c: 262:         release_2 = 0;
  2066  0121' 0180'              	clrf	_release_2^(0+512)
  2067  0122' 0180'              	clrf	(_release_2+1)^(0+512)
  2068                           
  2069                           ;newmain.c: 263:         button_1_getriggerd = 0;
  2070  0123' 0180'              	clrf	_button_1_getriggerd^(0+512)
  2071  0124' 0180'              	clrf	(_button_1_getriggerd+1)^(0+512)
  2072                           
  2073                           ;newmain.c: 264:         aan_uit_schakelaar = 0;
  2074  0125' 0180'              	clrf	_aan_uit_schakelaar^(0+512)
  2075  0126' 0180'              	clrf	(_aan_uit_schakelaar+1)^(0+512)
  2076                           
  2077                           ;newmain.c: 265:         tijd_opname = 0;
  2078  0127' 3000               	movlw	0
  2079  0128' 0080'              	movwf	(_tijd_opname+3)^(0+512)
  2080  0129' 3000               	movlw	0
  2081  012A' 0080'              	movwf	(_tijd_opname+2)^(0+512)
  2082  012B' 3000               	movlw	0
  2083  012C' 0080'              	movwf	(_tijd_opname+1)^(0+512)
  2084  012D' 3000               	movlw	0
  2085  012E' 0080'              	movwf	_tijd_opname^(0+512)
  2086                           
  2087                           ;newmain.c: 266:         index_counter = 0;
  2088  012F' 0180'              	clrf	_index_counter^(0+512)
  2089  0130' 0180'              	clrf	(_index_counter+1)^(0+512)
  2090  0131'                    i1l124:
  2091  0131' 107E               	bcf	126,0	;clear compiler interrupt flag (level 1)
  2092  0132' 0009               	retfie
  2093  0133'                    __end_of_isr:
  2094                           
  2095                           	psect	text5
  2096  0000'                    __ptext5:	
  2097 ;; *************** function _timer_calc *****************
  2098 ;; Defined at:
  2099 ;;		line 178 in file "newmain.c"
  2100 ;; Parameters:    Size  Location     Type
  2101 ;;		None
  2102 ;; Auto vars:     Size  Location     Type
  2103 ;;  round           2   12[BANK4 ] int 
  2104 ;;  round           2   14[BANK4 ] int 
  2105 ;; Return value:  Size  Location     Type
  2106 ;;                  1    wreg      void 
  2107 ;; Registers used:
  2108 ;;		wreg, fsr0l, fsr0h, fsr1l, fsr1h, status,2, status,0, pclath, cstack
  2109 ;; Tracked objects:
  2110 ;;		On entry : 1F/4
  2111 ;;		On exit  : 1F/2
  2112 ;;		Unchanged: 0/0
  2113 ;; Data sizes:     COMMON   BANK0   BANK1   BANK2   BANK3   BANK4   BANK5   BANK6   BANK7   BANK8   BANK9  BANK10  BANK1
      +1  BANK12
  2114 ;;      Params:         0       0       0       0       0       0       0       0       0       0       0       0       
      +0       0
  2115 ;;      Locals:         0       0       0       0       0      16       0       0       0       0       0       0       
      +0       0
  2116 ;;      Temps:          0       0       0       0       8       0       0       0       0       0       0       0       
      +0       0
  2117 ;;      Totals:         0       0       0       0       8      16       0       0       0       0       0       0       
      +0       0
  2118 ;;Total ram usage:       24 bytes
  2119 ;; Hardware stack levels used: 1
  2120 ;; Hardware stack levels required when called: 5
  2121 ;; This function calls:
  2122 ;;		___fladd
  2123 ;;		___fldiv
  2124 ;;		___flmul
  2125 ;;		___xxtofl
  2126 ;;		_pow
  2127 ;; This function is called by:
  2128 ;;		_isr
  2129 ;; This function uses a non-reentrant model
  2130 ;;
  2131                           
  2132  0000'                    _timer_calc:	
  2133                           ;psect for function _timer_calc
  2134                           
  2135                           
  2136                           ;newmain.c: 180:     LATCbits.LATC1 = 0;
  2137                           
  2138                           ;incstack = 0
  2139                           ; Regs used in _timer_calc: [wreg-fsr1h+status,2+status,0+pclath+cstack]
  2140  0000' 0022               	movlb	2	; select bank2
  2141  0001' 108E               	bcf	14,1	;volatile
  2142                           
  2143                           ;newmain.c: 181:     LATCbits.LATC3 = 1;
  2144  0002' 158E               	bsf	14,3	;volatile
  2145                           
  2146                           ;newmain.c: 182:     for (int round = 0; round <= 20; round++)
  2147  0003' 0024               	movlb	4	; select bank4
  2148  0004' 0180'              	clrf	timer_calc@round^(0+512)
  2149  0005' 0180'              	clrf	(timer_calc@round+1)^(0+512)
  2150  0006'                    i1l3243:
  2151                           
  2152                           ;newmain.c: 183:         {;newmain.c: 184:         if(round == 0)
  2153  0006' 0024               	movlb	4	; select bank4
  2154  0007' 0800'              	movf	timer_calc@round^(0+512),w
  2155  0008' 0400'              	iorwf	(timer_calc@round+1)^(0+512),w
  2156  0009' 1D03               	btfss	3,2
  2157  000A' 2800'              	goto	i1l3247
  2158                           
  2159                           ;newmain.c: 185:             tijd_aan[round] = tijd_opname;
  2160  000B' 0800'              	movf	(timer_calc@round+1)^(0+512),w
  2161  000C' 0023               	movlb	3	; select bank3
  2162  000D' 0081'              	movwf	(??_timer_calc^(0+384)+1)
  2163  000E' 0024               	movlb	4	; select bank4
  2164  000F' 0800'              	movf	timer_calc@round^(0+512),w
  2165  0010' 0023               	movlb	3	; select bank3
  2166  0011' 0080'              	movwf	??_timer_calc^(0+384)
  2167  0012' 3580'              	lslf	??_timer_calc^(0+384),f
  2168  0013' 0D81'              	rlf	(??_timer_calc^(0+384)+1),f
  2169  0014' 3580'              	lslf	??_timer_calc^(0+384),f
  2170  0015' 0D81'              	rlf	(??_timer_calc^(0+384)+1),f
  2171  0016' 309C               	movlw	156
  2172  0017' 0080'              	movwf	(??_timer_calc+2)^(0+384)
  2173  0018' 3023               	movlw	35
  2174  0019' 0081'              	movwf	((??_timer_calc+2)^(0+384)+1)
  2175  001A' 0800'              	movf	??_timer_calc^(0+384),w
  2176  001B' 0700'              	addwf	(??_timer_calc+2)^(0+384),w
  2177  001C' 0086               	movwf	6
  2178  001D' 0800'              	movf	(??_timer_calc+1)^(0+384),w
  2179  001E' 3D00'              	addwfc	(??_timer_calc+3)^(0+384),w
  2180  001F' 0087               	movwf	7
  2181  0020' 0024               	movlb	4	; select bank4
  2182  0021' 0800'              	movf	_tijd_opname^(0+512),w
  2183  0022' 3FC0               	movwi [0]fsr1
  2184  0023' 0800'              	movf	(_tijd_opname+1)^(0+512),w
  2185  0024' 3FC1               	movwi [1]fsr1
  2186  0025' 0800'              	movf	(_tijd_opname+2)^(0+512),w
  2187  0026' 3FC2               	movwi [2]fsr1
  2188  0027' 0800'              	movf	(_tijd_opname+3)^(0+512),w
  2189  0028' 3FC3               	movwi [3]fsr1
  2190  0029' 2800'              	goto	i1l3253
  2191  002A'                    i1l3247:
  2192                           
  2193                           ;newmain.c: 187:             tijd_aan[round] = tijd_opname / (pow(round,2));
  2194  002A' 0800'              	movf	timer_calc@round^(0+512),w
  2195  002B' 0080'              	movwf	___xxtofl@val
  2196  002C' 0800'              	movf	(timer_calc@round+1)^(0+512),w
  2197  002D' 0081'              	movwf	___xxtofl@val+1
  2198  002E' 0D89               	rlf	9,f
  2199  002F' 3B89               	subwfb	9,f
  2200  0030' 0989               	comf	9,f
  2201  0031' 0082'              	movwf	___xxtofl@val+2
  2202  0032' 0083'              	movwf	___xxtofl@val+3
  2203  0033' 3001               	movlw	1
  2204  0034' 3180' 2000' 3180'  	fcall	___xxtofl
  2205  0037' 0803'              	movf	?___xxtofl+3,w
  2206  0038' 0024               	movlb	4	; select bank4
  2207  0039' 0080'              	movwf	(_timer_calc$1033+3)^(0+512)
  2208  003A' 0802'              	movf	?___xxtofl+2,w
  2209  003B' 0080'              	movwf	(_timer_calc$1033+2)^(0+512)
  2210  003C' 0801'              	movf	?___xxtofl+1,w
  2211  003D' 0080'              	movwf	(_timer_calc$1033+1)^(0+512)
  2212  003E' 0800'              	movf	?___xxtofl,w
  2213  003F' 0080'              	movwf	_timer_calc$1033^(0+512)
  2214                           
  2215                           ;newmain.c: 187:             tijd_aan[round] = tijd_opname / (pow(round,2));
  2216  0040' 3040               	movlw	64
  2217  0041' 0023               	movlb	3	; select bank3
  2218  0042' 0080'              	movwf	(pow@y+3)^(0+384)
  2219  0043' 3000               	movlw	0
  2220  0044' 0080'              	movwf	(pow@y+2)^(0+384)
  2221  0045' 3000               	movlw	0
  2222  0046' 0080'              	movwf	(pow@y+1)^(0+384)
  2223  0047' 3000               	movlw	0
  2224  0048' 0080'              	movwf	pow@y^(0+384)
  2225  0049' 0024               	movlb	4	; select bank4
  2226  004A' 0800'              	movf	(_timer_calc$1033+3)^(0+512),w
  2227  004B' 0023               	movlb	3	; select bank3
  2228  004C' 0080'              	movwf	(pow@x+3)^(0+384)
  2229  004D' 0024               	movlb	4	; select bank4
  2230  004E' 0800'              	movf	(_timer_calc$1033+2)^(0+512),w
  2231  004F' 0023               	movlb	3	; select bank3
  2232  0050' 0080'              	movwf	(pow@x+2)^(0+384)
  2233  0051' 0024               	movlb	4	; select bank4
  2234  0052' 0800'              	movf	(_timer_calc$1033+1)^(0+512),w
  2235  0053' 0023               	movlb	3	; select bank3
  2236  0054' 0080'              	movwf	(pow@x+1)^(0+384)
  2237  0055' 0024               	movlb	4	; select bank4
  2238  0056' 0800'              	movf	_timer_calc$1033^(0+512),w
  2239  0057' 0023               	movlb	3	; select bank3
  2240  0058' 0080'              	movwf	pow@x^(0+384)
  2241  0059' 3180' 2000' 3180'  	fcall	_pow
  2242  005C' 0800'              	movf	(?_pow+3)^(0+384),w
  2243  005D' 0024               	movlb	4	; select bank4
  2244  005E' 0080'              	movwf	(_timer_calc$1034+3)^(0+512)
  2245  005F' 0023               	movlb	3	; select bank3
  2246  0060' 0800'              	movf	(?_pow+2)^(0+384),w
  2247  0061' 0024               	movlb	4	; select bank4
  2248  0062' 0080'              	movwf	(_timer_calc$1034+2)^(0+512)
  2249  0063' 0023               	movlb	3	; select bank3
  2250  0064' 0800'              	movf	(?_pow+1)^(0+384),w
  2251  0065' 0024               	movlb	4	; select bank4
  2252  0066' 0080'              	movwf	(_timer_calc$1034+1)^(0+512)
  2253  0067' 0023               	movlb	3	; select bank3
  2254  0068' 0800'              	movf	?_pow^(0+384),w
  2255  0069' 0024               	movlb	4	; select bank4
  2256  006A' 0080'              	movwf	_timer_calc$1034^(0+512)
  2257                           
  2258                           ;newmain.c: 187:             tijd_aan[round] = tijd_opname / (pow(round,2));
  2259  006B' 0800'              	movf	(_timer_calc$1034+3)^(0+512),w
  2260  006C' 0020               	movlb	0	; select bank0
  2261  006D' 00AC'              	movwf	___fldiv@a+3
  2262  006E' 0024               	movlb	4	; select bank4
  2263  006F' 0800'              	movf	(_timer_calc$1034+2)^(0+512),w
  2264  0070' 0020               	movlb	0	; select bank0
  2265  0071' 00AB'              	movwf	___fldiv@a+2
  2266  0072' 0024               	movlb	4	; select bank4
  2267  0073' 0800'              	movf	(_timer_calc$1034+1)^(0+512),w
  2268  0074' 0020               	movlb	0	; select bank0
  2269  0075' 00AA'              	movwf	___fldiv@a+1
  2270  0076' 0024               	movlb	4	; select bank4
  2271  0077' 0800'              	movf	_timer_calc$1034^(0+512),w
  2272  0078' 0020               	movlb	0	; select bank0
  2273  0079' 00A9'              	movwf	___fldiv@a
  2274  007A' 0024               	movlb	4	; select bank4
  2275  007B' 0800'              	movf	(_tijd_opname+3)^(0+512),w
  2276  007C' 0020               	movlb	0	; select bank0
  2277  007D' 00B0'              	movwf	___fldiv@b+3
  2278  007E' 0024               	movlb	4	; select bank4
  2279  007F' 0800'              	movf	(_tijd_opname+2)^(0+512),w
  2280  0080' 0020               	movlb	0	; select bank0
  2281  0081' 00AF'              	movwf	___fldiv@b+2
  2282  0082' 0024               	movlb	4	; select bank4
  2283  0083' 0800'              	movf	(_tijd_opname+1)^(0+512),w
  2284  0084' 0020               	movlb	0	; select bank0
  2285  0085' 00AE'              	movwf	___fldiv@b+1
  2286  0086' 0024               	movlb	4	; select bank4
  2287  0087' 0800'              	movf	_tijd_opname^(0+512),w
  2288  0088' 0020               	movlb	0	; select bank0
  2289  0089' 00AD'              	movwf	___fldiv@b
  2290  008A' 3180' 2000' 3180'  	fcall	___fldiv
  2291  008D' 0024               	movlb	4	; select bank4
  2292  008E' 0800'              	movf	(timer_calc@round+1)^(0+512),w
  2293  008F' 0023               	movlb	3	; select bank3
  2294  0090' 0081'              	movwf	(??_timer_calc^(0+384)+1)
  2295  0091' 0024               	movlb	4	; select bank4
  2296  0092' 0800'              	movf	timer_calc@round^(0+512),w
  2297  0093' 0023               	movlb	3	; select bank3
  2298  0094' 0080'              	movwf	??_timer_calc^(0+384)
  2299  0095' 3580'              	lslf	??_timer_calc^(0+384),f
  2300  0096' 0D81'              	rlf	(??_timer_calc^(0+384)+1),f
  2301  0097' 3580'              	lslf	??_timer_calc^(0+384),f
  2302  0098' 0D81'              	rlf	(??_timer_calc^(0+384)+1),f
  2303  0099' 309C               	movlw	156
  2304  009A' 0080'              	movwf	(??_timer_calc+2)^(0+384)
  2305  009B' 3023               	movlw	35
  2306  009C' 0081'              	movwf	((??_timer_calc+2)^(0+384)+1)
  2307  009D' 0800'              	movf	??_timer_calc^(0+384),w
  2308  009E' 0700'              	addwf	(??_timer_calc+2)^(0+384),w
  2309  009F' 0086               	movwf	6
  2310  00A0' 0800'              	movf	(??_timer_calc+1)^(0+384),w
  2311  00A1' 3D00'              	addwfc	(??_timer_calc+3)^(0+384),w
  2312  00A2' 0087               	movwf	7
  2313  00A3' 0020               	movlb	0	; select bank0
  2314  00A4' 0829'              	movf	?___fldiv,w
  2315  00A5' 3FC0               	movwi [0]fsr1
  2316  00A6' 082A'              	movf	?___fldiv+1,w
  2317  00A7' 3FC1               	movwi [1]fsr1
  2318  00A8' 082B'              	movf	?___fldiv+2,w
  2319  00A9' 3FC2               	movwi [2]fsr1
  2320  00AA' 082C'              	movf	?___fldiv+3,w
  2321  00AB' 3FC3               	movwi [3]fsr1
  2322  00AC'                    i1l3253:
  2323                           
  2324                           ;newmain.c: 188:         tijd_uit[round] = 0.3 * tijd_aan[round];
  2325  00AC' 303E               	movlw	62
  2326  00AD' 0020               	movlb	0	; select bank0
  2327  00AE' 0083'              	movwf	___flmul@b+3
  2328  00AF' 3099               	movlw	153
  2329  00B0' 0082'              	movwf	___flmul@b+2
  2330  00B1' 3099               	movlw	153
  2331  00B2' 0081'              	movwf	___flmul@b+1
  2332  00B3' 309A               	movlw	154
  2333  00B4' 0080'              	movwf	___flmul@b
  2334  00B5' 0024               	movlb	4	; select bank4
  2335  00B6' 0800'              	movf	(timer_calc@round+1)^(0+512),w
  2336  00B7' 0023               	movlb	3	; select bank3
  2337  00B8' 0081'              	movwf	(??_timer_calc^(0+384)+1)
  2338  00B9' 0024               	movlb	4	; select bank4
  2339  00BA' 0800'              	movf	timer_calc@round^(0+512),w
  2340  00BB' 0023               	movlb	3	; select bank3
  2341  00BC' 0080'              	movwf	??_timer_calc^(0+384)
  2342  00BD' 3580'              	lslf	??_timer_calc^(0+384),f
  2343  00BE' 0D81'              	rlf	(??_timer_calc^(0+384)+1),f
  2344  00BF' 3580'              	lslf	??_timer_calc^(0+384),f
  2345  00C0' 0D81'              	rlf	(??_timer_calc^(0+384)+1),f
  2346  00C1' 309C               	movlw	156
  2347  00C2' 0080'              	movwf	(??_timer_calc+2)^(0+384)
  2348  00C3' 3023               	movlw	35
  2349  00C4' 0081'              	movwf	((??_timer_calc+2)^(0+384)+1)
  2350  00C5' 0800'              	movf	??_timer_calc^(0+384),w
  2351  00C6' 0700'              	addwf	(??_timer_calc+2)^(0+384),w
  2352  00C7' 0086               	movwf	6
  2353  00C8' 0800'              	movf	(??_timer_calc+1)^(0+384),w
  2354  00C9' 3D00'              	addwfc	(??_timer_calc+3)^(0+384),w
  2355  00CA' 0087               	movwf	7
  2356  00CB' 3F40               	moviw [0]fsr1
  2357  00CC' 0020               	movlb	0	; select bank0
  2358  00CD' 0084'              	movwf	___flmul@a
  2359  00CE' 3F41               	moviw [1]fsr1
  2360  00CF' 0085'              	movwf	___flmul@a+1
  2361  00D0' 3F42               	moviw [2]fsr1
  2362  00D1' 0086'              	movwf	___flmul@a+2
  2363  00D2' 3F43               	moviw [3]fsr1
  2364  00D3' 0087'              	movwf	___flmul@a+3
  2365  00D4' 3180' 2000' 3180'  	fcall	___flmul
  2366  00D7' 0024               	movlb	4	; select bank4
  2367  00D8' 0800'              	movf	(timer_calc@round+1)^(0+512),w
  2368  00D9' 0023               	movlb	3	; select bank3
  2369  00DA' 0081'              	movwf	((??_timer_calc+4)^(0+384)+1)
  2370  00DB' 0024               	movlb	4	; select bank4
  2371  00DC' 0800'              	movf	timer_calc@round^(0+512),w
  2372  00DD' 0023               	movlb	3	; select bank3
  2373  00DE' 0080'              	movwf	(??_timer_calc+4)^(0+384)
  2374  00DF' 3580'              	lslf	(??_timer_calc+4)^(0+384),f
  2375  00E0' 0D81'              	rlf	((??_timer_calc+4)^(0+384)+1),f
  2376  00E1' 3580'              	lslf	(??_timer_calc+4)^(0+384),f
  2377  00E2' 0D81'              	rlf	((??_timer_calc+4)^(0+384)+1),f
  2378  00E3' 3048               	movlw	72
  2379  00E4' 0080'              	movwf	(??_timer_calc+6)^(0+384)
  2380  00E5' 3023               	movlw	35
  2381  00E6' 0081'              	movwf	((??_timer_calc+6)^(0+384)+1)
  2382  00E7' 0800'              	movf	(??_timer_calc+4)^(0+384),w
  2383  00E8' 0700'              	addwf	(??_timer_calc+6)^(0+384),w
  2384  00E9' 0086               	movwf	6
  2385  00EA' 0800'              	movf	(??_timer_calc+5)^(0+384),w
  2386  00EB' 3D00'              	addwfc	(??_timer_calc+7)^(0+384),w
  2387  00EC' 0087               	movwf	7
  2388  00ED' 0020               	movlb	0	; select bank0
  2389  00EE' 0800'              	movf	?___flmul,w
  2390  00EF' 3FC0               	movwi [0]fsr1
  2391  00F0' 0801'              	movf	?___flmul+1,w
  2392  00F1' 3FC1               	movwi [1]fsr1
  2393  00F2' 0802'              	movf	?___flmul+2,w
  2394  00F3' 3FC2               	movwi [2]fsr1
  2395  00F4' 0803'              	movf	?___flmul+3,w
  2396  00F5' 3FC3               	movwi [3]fsr1
  2397                           
  2398                           ;newmain.c: 189:         }
  2399  00F6' 3001               	movlw	1
  2400  00F7' 0024               	movlb	4	; select bank4
  2401  00F8' 0780'              	addwf	timer_calc@round^(0+512),f
  2402  00F9' 3000               	movlw	0
  2403  00FA' 3D80'              	addwfc	(timer_calc@round+1)^(0+512),f
  2404  00FB' 0800'              	movf	(timer_calc@round+1)^(0+512),w
  2405  00FC' 3A80               	xorlw	128
  2406  00FD' 0023               	movlb	3	; select bank3
  2407  00FE' 0080'              	movwf	??_timer_calc^(0+384)
  2408  00FF' 3080               	movlw	128
  2409  0100' 0200'              	subwf	??_timer_calc^(0+384),w
  2410  0101' 1D03               	skipz
  2411  0102' 2800'              	goto	u442_25
  2412  0103' 3015               	movlw	21
  2413  0104' 0024               	movlb	4	; select bank4
  2414  0105' 0200'              	subwf	timer_calc@round^(0+512),w
  2415  0106'                    u442_25:
  2416  0106' 1C03               	skipc
  2417  0107' 2800'              	goto	i1l3243
  2418                           
  2419                           ;newmain.c: 190:     for (int round = 0; round <= 20; round++)
  2420  0108' 0024               	movlb	4	; select bank4
  2421  0109' 0180'              	clrf	timer_calc@round_253^(0+512)
  2422  010A' 0180'              	clrf	(timer_calc@round_253+1)^(0+512)
  2423  010B'                    i1l3265:
  2424                           
  2425                           ;newmain.c: 191:         {;newmain.c: 192:         preload_calc_on[round] = (-1 * (((125
      +                          000 / 4) / 8) * tijd_aan[round] - 65536));
  2426  010B' 30C7               	movlw	199
  2427  010C' 0020               	movlb	0	; select bank0
  2428  010D' 0098'              	movwf	___fladd@b+3
  2429  010E' 3080               	movlw	128
  2430  010F' 0097'              	movwf	___fladd@b+2
  2431  0110' 3000               	movlw	0
  2432  0111' 0096'              	movwf	___fladd@b+1
  2433  0112' 3000               	movlw	0
  2434  0113' 0095'              	movwf	___fladd@b
  2435  0114' 3045               	movlw	69
  2436  0115' 0083'              	movwf	___flmul@b+3
  2437  0116' 3074               	movlw	116
  2438  0117' 0082'              	movwf	___flmul@b+2
  2439  0118' 3020               	movlw	32
  2440  0119' 0081'              	movwf	___flmul@b+1
  2441  011A' 3000               	movlw	0
  2442  011B' 0080'              	movwf	___flmul@b
  2443  011C' 0024               	movlb	4	; select bank4
  2444  011D' 0800'              	movf	(timer_calc@round_253+1)^(0+512),w
  2445  011E' 0023               	movlb	3	; select bank3
  2446  011F' 0081'              	movwf	(??_timer_calc^(0+384)+1)
  2447  0120' 0024               	movlb	4	; select bank4
  2448  0121' 0800'              	movf	timer_calc@round_253^(0+512),w
  2449  0122' 0023               	movlb	3	; select bank3
  2450  0123' 0080'              	movwf	??_timer_calc^(0+384)
  2451  0124' 3580'              	lslf	??_timer_calc^(0+384),f
  2452  0125' 0D81'              	rlf	(??_timer_calc^(0+384)+1),f
  2453  0126' 3580'              	lslf	??_timer_calc^(0+384),f
  2454  0127' 0D81'              	rlf	(??_timer_calc^(0+384)+1),f
  2455  0128' 309C               	movlw	156
  2456  0129' 0080'              	movwf	(??_timer_calc+2)^(0+384)
  2457  012A' 3023               	movlw	35
  2458  012B' 0081'              	movwf	((??_timer_calc+2)^(0+384)+1)
  2459  012C' 0800'              	movf	??_timer_calc^(0+384),w
  2460  012D' 0700'              	addwf	(??_timer_calc+2)^(0+384),w
  2461  012E' 0086               	movwf	6
  2462  012F' 0800'              	movf	(??_timer_calc+1)^(0+384),w
  2463  0130' 3D00'              	addwfc	(??_timer_calc+3)^(0+384),w
  2464  0131' 0087               	movwf	7
  2465  0132' 3F40               	moviw [0]fsr1
  2466  0133' 0020               	movlb	0	; select bank0
  2467  0134' 0084'              	movwf	___flmul@a
  2468  0135' 3F41               	moviw [1]fsr1
  2469  0136' 0085'              	movwf	___flmul@a+1
  2470  0137' 3F42               	moviw [2]fsr1
  2471  0138' 0086'              	movwf	___flmul@a+2
  2472  0139' 3F43               	moviw [3]fsr1
  2473  013A' 0087'              	movwf	___flmul@a+3
  2474  013B' 3180' 2000' 3180'  	fcall	___flmul
  2475  013E' 0803'              	movf	?___flmul+3,w
  2476  013F' 009C'              	movwf	___fladd@a+3
  2477  0140' 0802'              	movf	?___flmul+2,w
  2478  0141' 009B'              	movwf	___fladd@a+2
  2479  0142' 0801'              	movf	?___flmul+1,w
  2480  0143' 009A'              	movwf	___fladd@a+1
  2481  0144' 0800'              	movf	?___flmul,w
  2482  0145' 0099'              	movwf	___fladd@a
  2483  0146' 3180' 2000' 3180'  	fcall	___fladd
  2484  0149' 0818'              	movf	?___fladd+3,w
  2485  014A' 0024               	movlb	4	; select bank4
  2486  014B' 0080'              	movwf	(_timer_calc$1035+3)^(0+512)
  2487  014C' 0020               	movlb	0	; select bank0
  2488  014D' 0817'              	movf	?___fladd+2,w
  2489  014E' 0024               	movlb	4	; select bank4
  2490  014F' 0080'              	movwf	(_timer_calc$1035+2)^(0+512)
  2491  0150' 0020               	movlb	0	; select bank0
  2492  0151' 0816'              	movf	?___fladd+1,w
  2493  0152' 0024               	movlb	4	; select bank4
  2494  0153' 0080'              	movwf	(_timer_calc$1035+1)^(0+512)
  2495  0154' 0020               	movlb	0	; select bank0
  2496  0155' 0815'              	movf	?___fladd,w
  2497  0156' 0024               	movlb	4	; select bank4
  2498  0157' 0080'              	movwf	_timer_calc$1035^(0+512)
  2499                           
  2500                           ;newmain.c: 191:         {;newmain.c: 192:         preload_calc_on[round] = (-1 * (((125
      +                          000 / 4) / 8) * tijd_aan[round] - 65536));
  2501  0158' 30BF               	movlw	191
  2502  0159' 0020               	movlb	0	; select bank0
  2503  015A' 0083'              	movwf	___flmul@b+3
  2504  015B' 3080               	movlw	128
  2505  015C' 0082'              	movwf	___flmul@b+2
  2506  015D' 3000               	movlw	0
  2507  015E' 0081'              	movwf	___flmul@b+1
  2508  015F' 3000               	movlw	0
  2509  0160' 0080'              	movwf	___flmul@b
  2510  0161' 0024               	movlb	4	; select bank4
  2511  0162' 0800'              	movf	(_timer_calc$1035+3)^(0+512),w
  2512  0163' 0020               	movlb	0	; select bank0
  2513  0164' 0087'              	movwf	___flmul@a+3
  2514  0165' 0024               	movlb	4	; select bank4
  2515  0166' 0800'              	movf	(_timer_calc$1035+2)^(0+512),w
  2516  0167' 0020               	movlb	0	; select bank0
  2517  0168' 0086'              	movwf	___flmul@a+2
  2518  0169' 0024               	movlb	4	; select bank4
  2519  016A' 0800'              	movf	(_timer_calc$1035+1)^(0+512),w
  2520  016B' 0020               	movlb	0	; select bank0
  2521  016C' 0085'              	movwf	___flmul@a+1
  2522  016D' 0024               	movlb	4	; select bank4
  2523  016E' 0800'              	movf	_timer_calc$1035^(0+512),w
  2524  016F' 0020               	movlb	0	; select bank0
  2525  0170' 0084'              	movwf	___flmul@a
  2526  0171' 3180' 2000' 3180'  	fcall	___flmul
  2527  0174' 0024               	movlb	4	; select bank4
  2528  0175' 0800'              	movf	(timer_calc@round_253+1)^(0+512),w
  2529  0176' 0023               	movlb	3	; select bank3
  2530  0177' 0081'              	movwf	(??_timer_calc^(0+384)+1)
  2531  0178' 0024               	movlb	4	; select bank4
  2532  0179' 0800'              	movf	timer_calc@round_253^(0+512),w
  2533  017A' 0023               	movlb	3	; select bank3
  2534  017B' 0080'              	movwf	??_timer_calc^(0+384)
  2535  017C' 3580'              	lslf	??_timer_calc^(0+384),f
  2536  017D' 0D81'              	rlf	(??_timer_calc^(0+384)+1),f
  2537  017E' 3580'              	lslf	??_timer_calc^(0+384),f
  2538  017F' 0D81'              	rlf	(??_timer_calc^(0+384)+1),f
  2539  0180' 30F4               	movlw	244
  2540  0181' 0080'              	movwf	(??_timer_calc+2)^(0+384)
  2541  0182' 3022               	movlw	34
  2542  0183' 0081'              	movwf	((??_timer_calc+2)^(0+384)+1)
  2543  0184' 0800'              	movf	??_timer_calc^(0+384),w
  2544  0185' 0700'              	addwf	(??_timer_calc+2)^(0+384),w
  2545  0186' 0086               	movwf	6
  2546  0187' 0800'              	movf	(??_timer_calc+1)^(0+384),w
  2547  0188' 3D00'              	addwfc	(??_timer_calc+3)^(0+384),w
  2548  0189' 0087               	movwf	7
  2549  018A' 0020               	movlb	0	; select bank0
  2550  018B' 0800'              	movf	?___flmul,w
  2551  018C' 3FC0               	movwi [0]fsr1
  2552  018D' 0801'              	movf	?___flmul+1,w
  2553  018E' 3FC1               	movwi [1]fsr1
  2554  018F' 0802'              	movf	?___flmul+2,w
  2555  0190' 3FC2               	movwi [2]fsr1
  2556  0191' 0803'              	movf	?___flmul+3,w
  2557  0192' 3FC3               	movwi [3]fsr1
  2558                           
  2559                           ;newmain.c: 193:         preload_calc_off[round] = (-1 * (((125000 / 4) / 8) * tijd_uit[
      +                          round] - 65536));
  2560  0193' 30C7               	movlw	199
  2561  0194' 0098'              	movwf	___fladd@b+3
  2562  0195' 3080               	movlw	128
  2563  0196' 0097'              	movwf	___fladd@b+2
  2564  0197' 3000               	movlw	0
  2565  0198' 0096'              	movwf	___fladd@b+1
  2566  0199' 3000               	movlw	0
  2567  019A' 0095'              	movwf	___fladd@b
  2568  019B' 3045               	movlw	69
  2569  019C' 0083'              	movwf	___flmul@b+3
  2570  019D' 3074               	movlw	116
  2571  019E' 0082'              	movwf	___flmul@b+2
  2572  019F' 3020               	movlw	32
  2573  01A0' 0081'              	movwf	___flmul@b+1
  2574  01A1' 3000               	movlw	0
  2575  01A2' 0080'              	movwf	___flmul@b
  2576  01A3' 0024               	movlb	4	; select bank4
  2577  01A4' 0800'              	movf	(timer_calc@round_253+1)^(0+512),w
  2578  01A5' 0023               	movlb	3	; select bank3
  2579  01A6' 0081'              	movwf	(??_timer_calc^(0+384)+1)
  2580  01A7' 0024               	movlb	4	; select bank4
  2581  01A8' 0800'              	movf	timer_calc@round_253^(0+512),w
  2582  01A9' 0023               	movlb	3	; select bank3
  2583  01AA' 0080'              	movwf	??_timer_calc^(0+384)
  2584  01AB' 3580'              	lslf	??_timer_calc^(0+384),f
  2585  01AC' 0D81'              	rlf	(??_timer_calc^(0+384)+1),f
  2586  01AD' 3580'              	lslf	??_timer_calc^(0+384),f
  2587  01AE' 0D81'              	rlf	(??_timer_calc^(0+384)+1),f
  2588  01AF' 3048               	movlw	72
  2589  01B0' 0080'              	movwf	(??_timer_calc+2)^(0+384)
  2590  01B1' 3023               	movlw	35
  2591  01B2' 0081'              	movwf	((??_timer_calc+2)^(0+384)+1)
  2592  01B3' 0800'              	movf	??_timer_calc^(0+384),w
  2593  01B4' 0700'              	addwf	(??_timer_calc+2)^(0+384),w
  2594  01B5' 0086               	movwf	6
  2595  01B6' 0800'              	movf	(??_timer_calc+1)^(0+384),w
  2596  01B7' 3D00'              	addwfc	(??_timer_calc+3)^(0+384),w
  2597  01B8' 0087               	movwf	7
  2598  01B9' 3F40               	moviw [0]fsr1
  2599  01BA' 0020               	movlb	0	; select bank0
  2600  01BB' 0084'              	movwf	___flmul@a
  2601  01BC' 3F41               	moviw [1]fsr1
  2602  01BD' 0085'              	movwf	___flmul@a+1
  2603  01BE' 3F42               	moviw [2]fsr1
  2604  01BF' 0086'              	movwf	___flmul@a+2
  2605  01C0' 3F43               	moviw [3]fsr1
  2606  01C1' 0087'              	movwf	___flmul@a+3
  2607  01C2' 3180' 2000' 3180'  	fcall	___flmul
  2608  01C5' 0803'              	movf	?___flmul+3,w
  2609  01C6' 009C'              	movwf	___fladd@a+3
  2610  01C7' 0802'              	movf	?___flmul+2,w
  2611  01C8' 009B'              	movwf	___fladd@a+2
  2612  01C9' 0801'              	movf	?___flmul+1,w
  2613  01CA' 009A'              	movwf	___fladd@a+1
  2614  01CB' 0800'              	movf	?___flmul,w
  2615  01CC' 0099'              	movwf	___fladd@a
  2616  01CD' 3180' 2000' 3180'  	fcall	___fladd
  2617  01D0' 0818'              	movf	?___fladd+3,w
  2618  01D1' 0024               	movlb	4	; select bank4
  2619  01D2' 0080'              	movwf	(_timer_calc$1035+3)^(0+512)
  2620  01D3' 0020               	movlb	0	; select bank0
  2621  01D4' 0817'              	movf	?___fladd+2,w
  2622  01D5' 0024               	movlb	4	; select bank4
  2623  01D6' 0080'              	movwf	(_timer_calc$1035+2)^(0+512)
  2624  01D7' 0020               	movlb	0	; select bank0
  2625  01D8' 0816'              	movf	?___fladd+1,w
  2626  01D9' 0024               	movlb	4	; select bank4
  2627  01DA' 0080'              	movwf	(_timer_calc$1035+1)^(0+512)
  2628  01DB' 0020               	movlb	0	; select bank0
  2629  01DC' 0815'              	movf	?___fladd,w
  2630  01DD' 0024               	movlb	4	; select bank4
  2631  01DE' 0080'              	movwf	_timer_calc$1035^(0+512)
  2632                           
  2633                           ;newmain.c: 193:         preload_calc_off[round] = (-1 * (((125000 / 4) / 8) * tijd_uit[
      +                          round] - 65536));
  2634  01DF' 30BF               	movlw	191
  2635  01E0' 0020               	movlb	0	; select bank0
  2636  01E1' 0083'              	movwf	___flmul@b+3
  2637  01E2' 3080               	movlw	128
  2638  01E3' 0082'              	movwf	___flmul@b+2
  2639  01E4' 3000               	movlw	0
  2640  01E5' 0081'              	movwf	___flmul@b+1
  2641  01E6' 3000               	movlw	0
  2642  01E7' 0080'              	movwf	___flmul@b
  2643  01E8' 0024               	movlb	4	; select bank4
  2644  01E9' 0800'              	movf	(_timer_calc$1035+3)^(0+512),w
  2645  01EA' 0020               	movlb	0	; select bank0
  2646  01EB' 0087'              	movwf	___flmul@a+3
  2647  01EC' 0024               	movlb	4	; select bank4
  2648  01ED' 0800'              	movf	(_timer_calc$1035+2)^(0+512),w
  2649  01EE' 0020               	movlb	0	; select bank0
  2650  01EF' 0086'              	movwf	___flmul@a+2
  2651  01F0' 0024               	movlb	4	; select bank4
  2652  01F1' 0800'              	movf	(_timer_calc$1035+1)^(0+512),w
  2653  01F2' 0020               	movlb	0	; select bank0
  2654  01F3' 0085'              	movwf	___flmul@a+1
  2655  01F4' 0024               	movlb	4	; select bank4
  2656  01F5' 0800'              	movf	_timer_calc$1035^(0+512),w
  2657  01F6' 0020               	movlb	0	; select bank0
  2658  01F7' 0084'              	movwf	___flmul@a
  2659  01F8' 3180' 2000' 3180'  	fcall	___flmul
  2660  01FB' 0024               	movlb	4	; select bank4
  2661  01FC' 0800'              	movf	(timer_calc@round_253+1)^(0+512),w
  2662  01FD' 0023               	movlb	3	; select bank3
  2663  01FE' 0081'              	movwf	(??_timer_calc^(0+384)+1)
  2664  01FF' 0024               	movlb	4	; select bank4
  2665  0200' 0800'              	movf	timer_calc@round_253^(0+512),w
  2666  0201' 0023               	movlb	3	; select bank3
  2667  0202' 0080'              	movwf	??_timer_calc^(0+384)
  2668  0203' 3580'              	lslf	??_timer_calc^(0+384),f
  2669  0204' 0D81'              	rlf	(??_timer_calc^(0+384)+1),f
  2670  0205' 3580'              	lslf	??_timer_calc^(0+384),f
  2671  0206' 0D81'              	rlf	(??_timer_calc^(0+384)+1),f
  2672  0207' 30A0               	movlw	160
  2673  0208' 0080'              	movwf	(??_timer_calc+2)^(0+384)
  2674  0209' 3022               	movlw	34
  2675  020A' 0081'              	movwf	((??_timer_calc+2)^(0+384)+1)
  2676  020B' 0800'              	movf	??_timer_calc^(0+384),w
  2677  020C' 0700'              	addwf	(??_timer_calc+2)^(0+384),w
  2678  020D' 0086               	movwf	6
  2679  020E' 0800'              	movf	(??_timer_calc+1)^(0+384),w
  2680  020F' 3D00'              	addwfc	(??_timer_calc+3)^(0+384),w
  2681  0210' 0087               	movwf	7
  2682  0211' 0020               	movlb	0	; select bank0
  2683  0212' 0800'              	movf	?___flmul,w
  2684  0213' 3FC0               	movwi [0]fsr1
  2685  0214' 0801'              	movf	?___flmul+1,w
  2686  0215' 3FC1               	movwi [1]fsr1
  2687  0216' 0802'              	movf	?___flmul+2,w
  2688  0217' 3FC2               	movwi [2]fsr1
  2689  0218' 0803'              	movf	?___flmul+3,w
  2690  0219' 3FC3               	movwi [3]fsr1
  2691                           
  2692                           ;newmain.c: 194:         }
  2693  021A' 3001               	movlw	1
  2694  021B' 0024               	movlb	4	; select bank4
  2695  021C' 0780'              	addwf	timer_calc@round_253^(0+512),f
  2696  021D' 3000               	movlw	0
  2697  021E' 3D80'              	addwfc	(timer_calc@round_253+1)^(0+512),f
  2698  021F' 0800'              	movf	(timer_calc@round_253+1)^(0+512),w
  2699  0220' 3A80               	xorlw	128
  2700  0221' 0023               	movlb	3	; select bank3
  2701  0222' 0080'              	movwf	??_timer_calc^(0+384)
  2702  0223' 3080               	movlw	128
  2703  0224' 0200'              	subwf	??_timer_calc^(0+384),w
  2704  0225' 1D03               	skipz
  2705  0226' 2800'              	goto	u443_25
  2706  0227' 3015               	movlw	21
  2707  0228' 0024               	movlb	4	; select bank4
  2708  0229' 0200'              	subwf	timer_calc@round_253^(0+512),w
  2709  022A'                    u443_25:
  2710  022A' 1C03               	skipc
  2711  022B' 2800'              	goto	i1l3265
  2712                           
  2713                           ;newmain.c: 195:     LATCbits.LATC3 = 0;
  2714  022C' 0022               	movlb	2	; select bank2
  2715  022D' 118E               	bcf	14,3	;volatile
  2716  022E' 0008               	return
  2717  022F'                    __end_of_timer_calc:
  2718                           
  2719                           	psect	text6
  2720  0000'                    __ptext6:	
  2721 ;; *************** function _pow *****************
  2722 ;; Defined at:
  2723 ;;		line 5 in file "/opt/microchip/xc8/v2.45/pic/sources/c99/common/pow.c"
  2724 ;; Parameters:    Size  Location     Type
  2725 ;;  x               4   52[BANK3 ] void 
  2726 ;;  y               4   56[BANK3 ] void 
  2727 ;; Auto vars:     Size  Location     Type
  2728 ;;		None
  2729 ;; Return value:  Size  Location     Type
  2730 ;;                  4   52[BANK3 ] void 
  2731 ;; Registers used:
  2732 ;;		wreg, fsr0l, fsr0h, status,2, status,0, pclath, cstack
  2733 ;; Tracked objects:
  2734 ;;		On entry : 1F/3
  2735 ;;		On exit  : 1F/3
  2736 ;;		Unchanged: 0/0
  2737 ;; Data sizes:     COMMON   BANK0   BANK1   BANK2   BANK3   BANK4   BANK5   BANK6   BANK7   BANK8   BANK9  BANK10  BANK1
      +1  BANK12
  2738 ;;      Params:         0       0       0       0       8       0       0       0       0       0       0       0       
      +0       0
  2739 ;;      Locals:         0       0       0       0       0       0       0       0       0       0       0       0       
      +0       0
  2740 ;;      Temps:          0       0       0       0       0       0       0       0       0       0       0       0       
      +0       0
  2741 ;;      Totals:         0       0       0       0       8       0       0       0       0       0       0       0       
      +0       0
  2742 ;;Total ram usage:        8 bytes
  2743 ;; Hardware stack levels used: 1
  2744 ;; Hardware stack levels required when called: 4
  2745 ;; This function calls:
  2746 ;;		_powf
  2747 ;; This function is called by:
  2748 ;;		_timer_calc
  2749 ;; This function uses a non-reentrant model
  2750 ;;
  2751                           
  2752  0000'                    _pow:	
  2753                           ;psect for function _pow
  2754                           
  2755                           
  2756                           ;incstack = 0
  2757                           ; Regs used in _pow: [wreg-fsr0h+status,2+status,0+pclath+cstack]
  2758  0000' 0800'              	movf	(pow@x+3)^(0+384),w
  2759  0001' 0021               	movlb	1	; select bank1
  2760  0002' 0080'              	movwf	(powf@x+3)^(0+128)
  2761  0003' 0023               	movlb	3	; select bank3
  2762  0004' 0800'              	movf	(pow@x+2)^(0+384),w
  2763  0005' 0021               	movlb	1	; select bank1
  2764  0006' 0080'              	movwf	(powf@x+2)^(0+128)
  2765  0007' 0023               	movlb	3	; select bank3
  2766  0008' 0800'              	movf	(pow@x+1)^(0+384),w
  2767  0009' 0021               	movlb	1	; select bank1
  2768  000A' 0080'              	movwf	(powf@x+1)^(0+128)
  2769  000B' 0023               	movlb	3	; select bank3
  2770  000C' 0800'              	movf	pow@x^(0+384),w
  2771  000D' 0021               	movlb	1	; select bank1
  2772  000E' 0080'              	movwf	powf@x^(0+128)
  2773  000F' 0023               	movlb	3	; select bank3
  2774  0010' 0800'              	movf	(pow@y+3)^(0+384),w
  2775  0011' 0021               	movlb	1	; select bank1
  2776  0012' 0080'              	movwf	(powf@y+3)^(0+128)
  2777  0013' 0023               	movlb	3	; select bank3
  2778  0014' 0800'              	movf	(pow@y+2)^(0+384),w
  2779  0015' 0021               	movlb	1	; select bank1
  2780  0016' 0080'              	movwf	(powf@y+2)^(0+128)
  2781  0017' 0023               	movlb	3	; select bank3
  2782  0018' 0800'              	movf	(pow@y+1)^(0+384),w
  2783  0019' 0021               	movlb	1	; select bank1
  2784  001A' 0080'              	movwf	(powf@y+1)^(0+128)
  2785  001B' 0023               	movlb	3	; select bank3
  2786  001C' 0800'              	movf	pow@y^(0+384),w
  2787  001D' 0021               	movlb	1	; select bank1
  2788  001E' 0080'              	movwf	powf@y^(0+128)
  2789  001F' 3180' 2000'        	fcall	_powf
  2790  0021' 0021               	movlb	1	; select bank1
  2791  0022' 0800'              	movf	(?_powf+3)^(0+128),w
  2792  0023' 0023               	movlb	3	; select bank3
  2793  0024' 0080'              	movwf	(?_pow+3)^(0+384)
  2794  0025' 0021               	movlb	1	; select bank1
  2795  0026' 0800'              	movf	(?_powf+2)^(0+128),w
  2796  0027' 0023               	movlb	3	; select bank3
  2797  0028' 0080'              	movwf	(?_pow+2)^(0+384)
  2798  0029' 0021               	movlb	1	; select bank1
  2799  002A' 0800'              	movf	(?_powf+1)^(0+128),w
  2800  002B' 0023               	movlb	3	; select bank3
  2801  002C' 0080'              	movwf	(?_pow+1)^(0+384)
  2802  002D' 0021               	movlb	1	; select bank1
  2803  002E' 0800'              	movf	?_powf^(0+128),w
  2804  002F' 0023               	movlb	3	; select bank3
  2805  0030' 0080'              	movwf	?_pow^(0+384)
  2806  0031' 0008               	return
  2807  0032'                    __end_of_pow:
  2808                           
  2809                           	psect	text7
  2810  0000'                    __ptext7:	
  2811 ;; *************** function _powf *****************
  2812 ;; Defined at:
  2813 ;;		line 55 in file "/opt/microchip/xc8/v2.45/pic/sources/c99/common/powf.c"
  2814 ;; Parameters:    Size  Location     Type
  2815 ;;  x               4    8[BANK1 ] float 
  2816 ;;  y               4   12[BANK1 ] float 
  2817 ;; Auto vars:     Size  Location     Type
  2818 ;;  s2              4   12[BANK3 ] float 
  2819 ;;  s_h             4   64[BANK2 ] struct fui
  2820 ;;  t_h             4   60[BANK2 ] struct fui
  2821 ;;  t_l             4    0[BANK2 ] float 
  2822 ;;  s_l             4   73[BANK1 ] float 
  2823 ;;  z               4   48[BANK3 ] struct fui
  2824 ;;  t               4   44[BANK3 ] struct fui
  2825 ;;  ix              4   40[BANK3 ] struct fui
  2826 ;;  j               4   36[BANK3 ] long 
  2827 ;;  k               4   32[BANK3 ] long 
  2828 ;;  p_h             4   28[BANK3 ] struct fui
  2829 ;;  iy              4   24[BANK3 ] long 
  2830 ;;  is              4   16[BANK3 ] struct fui
  2831 ;;  t1              4    8[BANK3 ] struct fui
  2832 ;;  hy              4    4[BANK3 ] struct fui
  2833 ;;  n               4   76[BANK2 ] long 
  2834 ;;  v               4    0[BANK3 ] float 
  2835 ;;  u               4   72[BANK2 ] float 
  2836 ;;  ax              4   68[BANK2 ] struct fui
  2837 ;;  p_l             4   56[BANK2 ] float 
  2838 ;;  hx              4   52[BANK2 ] struct fui
  2839 ;;  sn              4   48[BANK2 ] unsigned long 
  2840 ;;  s               4   44[BANK2 ] float 
  2841 ;;  yisint          4   32[BANK2 ] long 
  2842 ;;  r               4   28[BANK2 ] float 
  2843 ;;  w               4   16[BANK2 ] float 
  2844 ;;  y1              4   69[BANK1 ] struct fui
  2845 ;;  i               4   65[BANK1 ] long 
  2846 ;;  z_l             4   61[BANK1 ] float 
  2847 ;;  z_h             4   57[BANK1 ] float 
  2848 ;;  t2              4   53[BANK1 ] float 
  2849 ;; Return value:  Size  Location     Type
  2850 ;;                  4    8[BANK1 ] float 
  2851 ;; Registers used:
  2852 ;;		wreg, fsr0l, fsr0h, status,2, status,0, pclath, cstack
  2853 ;; Tracked objects:
  2854 ;;		On entry : 1F/1
  2855 ;;		On exit  : 1D/1
  2856 ;;		Unchanged: 0/0
  2857 ;; Data sizes:     COMMON   BANK0   BANK1   BANK2   BANK3   BANK4   BANK5   BANK6   BANK7   BANK8   BANK9  BANK10  BANK1
      +1  BANK12
  2858 ;;      Params:         0       0       8       0       0       0       0       0       0       0       0       0       
      +0       0
  2859 ;;      Locals:         0       0      52      80      52       0       0       0       0       0       0       0       
      +0       0
  2860 ;;      Temps:          0       0       9       0       0       0       0       0       0       0       0       0       
      +0       0
  2861 ;;      Totals:         0       0      69      80      52       0       0       0       0       0       0       0       
      +0       0
  2862 ;;Total ram usage:      201 bytes
  2863 ;; Hardware stack levels used: 1
  2864 ;; Hardware stack levels required when called: 3
  2865 ;; This function calls:
  2866 ;;		___fladd
  2867 ;;		___fldiv
  2868 ;;		___flge
  2869 ;;		___flmul
  2870 ;;		___flneg
  2871 ;;		___flsub
  2872 ;;		___xxtofl
  2873 ;;		_scalbnf
  2874 ;;		_sqrtf
  2875 ;; This function is called by:
  2876 ;;		_pow
  2877 ;; This function uses a non-reentrant model
  2878 ;;
  2879                           
  2880  0000'                    _powf:	
  2881                           ;psect for function _powf
  2882                           
  2883                           
  2884                           ;incstack = 0
  2885                           ; Regs used in _powf: [wreg-fsr0h+status,2+status,0+pclath+cstack]
  2886  0000' 0800'              	movf	(powf@x+3)^(0+128),w
  2887  0001' 0022               	movlb	2	; select bank2
  2888  0002' 0080'              	movwf	(powf@hx+3)^(0+256)
  2889  0003' 0021               	movlb	1	; select bank1
  2890  0004' 0800'              	movf	(powf@x+2)^(0+128),w
  2891  0005' 0022               	movlb	2	; select bank2
  2892  0006' 0080'              	movwf	(powf@hx+2)^(0+256)
  2893  0007' 0021               	movlb	1	; select bank1
  2894  0008' 0800'              	movf	(powf@x+1)^(0+128),w
  2895  0009' 0022               	movlb	2	; select bank2
  2896  000A' 0080'              	movwf	(powf@hx+1)^(0+256)
  2897  000B' 0021               	movlb	1	; select bank1
  2898  000C' 0800'              	movf	powf@x^(0+128),w
  2899  000D' 0022               	movlb	2	; select bank2
  2900  000E' 0080'              	movwf	powf@hx^(0+256)
  2901  000F' 0021               	movlb	1	; select bank1
  2902  0010' 0800'              	movf	(powf@y+3)^(0+128),w
  2903  0011' 0023               	movlb	3	; select bank3
  2904  0012' 0080'              	movwf	(powf@hy+3)^(0+384)
  2905  0013' 0021               	movlb	1	; select bank1
  2906  0014' 0800'              	movf	(powf@y+2)^(0+128),w
  2907  0015' 0023               	movlb	3	; select bank3
  2908  0016' 0080'              	movwf	(powf@hy+2)^(0+384)
  2909  0017' 0021               	movlb	1	; select bank1
  2910  0018' 0800'              	movf	(powf@y+1)^(0+128),w
  2911  0019' 0023               	movlb	3	; select bank3
  2912  001A' 0080'              	movwf	(powf@hy+1)^(0+384)
  2913  001B' 0021               	movlb	1	; select bank1
  2914  001C' 0800'              	movf	powf@y^(0+128),w
  2915  001D' 0023               	movlb	3	; select bank3
  2916  001E' 0080'              	movwf	powf@hy^(0+384)
  2917  001F' 30FF               	movlw	255
  2918  0020' 0022               	movlb	2	; select bank2
  2919  0021' 0500'              	andwf	powf@hx^(0+256),w
  2920  0022' 0023               	movlb	3	; select bank3
  2921  0023' 0080'              	movwf	powf@ix^(0+384)
  2922  0024' 30FF               	movlw	255
  2923  0025' 0022               	movlb	2	; select bank2
  2924  0026' 0500'              	andwf	(powf@hx+1)^(0+256),w
  2925  0027' 0023               	movlb	3	; select bank3
  2926  0028' 0080'              	movwf	(powf@ix+1)^(0+384)
  2927  0029' 30FF               	movlw	255
  2928  002A' 0022               	movlb	2	; select bank2
  2929  002B' 0500'              	andwf	(powf@hx+2)^(0+256),w
  2930  002C' 0023               	movlb	3	; select bank3
  2931  002D' 0080'              	movwf	(powf@ix+2)^(0+384)
  2932  002E' 307F               	movlw	127
  2933  002F' 0022               	movlb	2	; select bank2
  2934  0030' 0500'              	andwf	(powf@hx+3)^(0+256),w
  2935  0031' 0023               	movlb	3	; select bank3
  2936  0032' 0080'              	movwf	(powf@ix+3)^(0+384)
  2937  0033' 30FF               	movlw	255
  2938  0034' 0500'              	andwf	powf@hy^(0+384),w
  2939  0035' 0080'              	movwf	powf@iy^(0+384)
  2940  0036' 30FF               	movlw	255
  2941  0037' 0500'              	andwf	(powf@hy+1)^(0+384),w
  2942  0038' 0080'              	movwf	(powf@iy+1)^(0+384)
  2943  0039' 30FF               	movlw	255
  2944  003A' 0500'              	andwf	(powf@hy+2)^(0+384),w
  2945  003B' 0080'              	movwf	(powf@iy+2)^(0+384)
  2946  003C' 307F               	movlw	127
  2947  003D' 0500'              	andwf	(powf@hy+3)^(0+384),w
  2948  003E' 0080'              	movwf	(powf@iy+3)^(0+384)
  2949  003F' 0800'              	movf	(powf@iy+3)^(0+384),w
  2950  0040' 0400'              	iorwf	(powf@iy+2)^(0+384),w
  2951  0041' 0400'              	iorwf	(powf@iy+1)^(0+384),w
  2952  0042' 0400'              	iorwf	powf@iy^(0+384),w
  2953  0043' 1D03               	skipz
  2954  0044' 2800'              	goto	i1l2831
  2955  0045' 303F               	movlw	63
  2956  0046' 0021               	movlb	1	; select bank1
  2957  0047' 0080'              	movwf	(?_powf+3)^(0+128)
  2958  0048' 3080               	movlw	128
  2959  0049' 0080'              	movwf	(?_powf+2)^(0+128)
  2960  004A' 3000               	movlw	0
  2961  004B' 0080'              	movwf	(?_powf+1)^(0+128)
  2962  004C' 3000               	movlw	0
  2963  004D' 0080'              	movwf	?_powf^(0+128)
  2964  004E' 0008               	return
  2965  004F'                    i1l2831:
  2966  004F' 3080               	movlw	128
  2967  0050' 0022               	movlb	2	; select bank2
  2968  0051' 0600'              	xorwf	(powf@hx+2)^(0+256),w
  2969  0052' 303F               	movlw	63
  2970  0053' 1903               	skipnz
  2971  0054' 0600'              	xorwf	(powf@hx+3)^(0+256),w
  2972  0055' 0400'              	iorwf	powf@hx^(0+256),w
  2973  0056' 0400'              	iorwf	(powf@hx+1)^(0+256),w
  2974  0057' 1D03               	btfss	3,2
  2975  0058' 2800'              	goto	i1l2837
  2976  0059' 303F               	movlw	63
  2977  005A' 0021               	movlb	1	; select bank1
  2978  005B' 0080'              	movwf	(?_powf+3)^(0+128)
  2979  005C' 3080               	movlw	128
  2980  005D' 0080'              	movwf	(?_powf+2)^(0+128)
  2981  005E' 3000               	movlw	0
  2982  005F' 0080'              	movwf	(?_powf+1)^(0+128)
  2983  0060' 3000               	movlw	0
  2984  0061' 0080'              	movwf	?_powf^(0+128)
  2985  0062' 0008               	return
  2986  0063'                    i1l2837:
  2987  0063' 0023               	movlb	3	; select bank3
  2988  0064' 1B80'              	btfsc	(powf@ix+3)^(0+384),7
  2989  0065' 2800'              	goto	i1l2839
  2990  0066' 3001               	movlw	1
  2991  0067' 0200'              	subwf	powf@ix^(0+384),w
  2992  0068' 3000               	movlw	0
  2993  0069' 3B00'              	subwfb	(powf@ix+1)^(0+384),w
  2994  006A' 3080               	movlw	128
  2995  006B' 3B00'              	subwfb	(powf@ix+2)^(0+384),w
  2996  006C' 307F               	movlw	127
  2997  006D' 3B00'              	subwfb	(powf@ix+3)^(0+384),w
  2998  006E' 1803               	btfsc	3,0
  2999  006F' 2800'              	goto	i1l2841
  3000  0070'                    i1l2839:
  3001  0070' 0023               	movlb	3	; select bank3
  3002  0071' 1B80'              	btfsc	(powf@iy+3)^(0+384),7
  3003  0072' 2800'              	goto	L11
  3004  0073' 3001               	movlw	1
  3005  0074' 0200'              	subwf	powf@iy^(0+384),w
  3006  0075' 3000               	movlw	0
  3007  0076' 3B00'              	subwfb	(powf@iy+1)^(0+384),w
  3008  0077' 3080               	movlw	128
  3009  0078' 3B00'              	subwfb	(powf@iy+2)^(0+384),w
  3010  0079' 307F               	movlw	127
  3011  007A' 3B00'              	subwfb	(powf@iy+3)^(0+384),w
  3012  007B' 1C03               	btfss	3,0
  3013  007C' 2800'              	goto	L12
  3014  007D'                    i1l2841:
  3015  007D' 0021               	movlb	1	; select bank1
  3016  007E' 0800'              	movf	(powf@y+3)^(0+128),w
  3017  007F' 0020               	movlb	0	; select bank0
  3018  0080' 0098'              	movwf	___fladd@b+3
  3019  0081' 0021               	movlb	1	; select bank1
  3020  0082' 0800'              	movf	(powf@y+2)^(0+128),w
  3021  0083' 0020               	movlb	0	; select bank0
  3022  0084' 0097'              	movwf	___fladd@b+2
  3023  0085' 0021               	movlb	1	; select bank1
  3024  0086' 0800'              	movf	(powf@y+1)^(0+128),w
  3025  0087' 0020               	movlb	0	; select bank0
  3026  0088' 0096'              	movwf	___fladd@b+1
  3027  0089' 0021               	movlb	1	; select bank1
  3028  008A' 0800'              	movf	powf@y^(0+128),w
  3029  008B' 0020               	movlb	0	; select bank0
  3030  008C' 0095'              	movwf	___fladd@b
  3031  008D' 0021               	movlb	1	; select bank1
  3032  008E' 0800'              	movf	(powf@x+3)^(0+128),w
  3033  008F' 0020               	movlb	0	; select bank0
  3034  0090' 009C'              	movwf	___fladd@a+3
  3035  0091' 0021               	movlb	1	; select bank1
  3036  0092' 0800'              	movf	(powf@x+2)^(0+128),w
  3037  0093' 0020               	movlb	0	; select bank0
  3038  0094' 009B'              	movwf	___fladd@a+2
  3039  0095' 0021               	movlb	1	; select bank1
  3040  0096' 0800'              	movf	(powf@x+1)^(0+128),w
  3041  0097' 0020               	movlb	0	; select bank0
  3042  0098' 009A'              	movwf	___fladd@a+1
  3043  0099' 0021               	movlb	1	; select bank1
  3044  009A' 0800'              	movf	powf@x^(0+128),w
  3045  009B' 0020               	movlb	0	; select bank0
  3046  009C' 0099'              	movwf	___fladd@a
  3047  009D' 3180' 2000'        	fcall	___fladd
  3048  009F' 0818'              	movf	?___fladd+3,w
  3049  00A0' 0021               	movlb	1	; select bank1
  3050  00A1' 0080'              	movwf	(?_powf+3)^(0+128)
  3051  00A2' 0020               	movlb	0	; select bank0
  3052  00A3' 0817'              	movf	?___fladd+2,w
  3053  00A4' 0021               	movlb	1	; select bank1
  3054  00A5' 0080'              	movwf	(?_powf+2)^(0+128)
  3055  00A6' 0020               	movlb	0	; select bank0
  3056  00A7' 0816'              	movf	?___fladd+1,w
  3057  00A8' 0021               	movlb	1	; select bank1
  3058  00A9' 0080'              	movwf	(?_powf+1)^(0+128)
  3059  00AA' 0020               	movlb	0	; select bank0
  3060  00AB' 0815'              	movf	?___fladd,w
  3061  00AC' 0021               	movlb	1	; select bank1
  3062  00AD' 0080'              	movwf	?_powf^(0+128)
  3063  00AE' 0008               	return
  3064  00AF'                    L12:
  3065  00AF'                    L11:
  3066  00AF' 3180' 2800'        	ljmp	i1l2845
  3067                           
  3068                           	psect	text8
  3069  0000'                    __ptext8:	
  3070 ;; *************** function _sqrtf *****************
  3071 ;; Defined at:
  3072 ;;		line 24 in file "/opt/microchip/xc8/v2.45/pic/sources/c99/common/sqrtf.c"
  3073 ;; Parameters:    Size  Location     Type
  3074 ;;  x               4    0[COMMON] float 
  3075 ;; Auto vars:     Size  Location     Type
  3076 ;;  ix              4   24[BANK0 ] struct .
  3077 ;;  r               4   20[BANK0 ] unsigned long 
  3078 ;;  m               4   16[BANK0 ] long 
  3079 ;;  t               4   12[BANK0 ] long 
  3080 ;;  q               4    8[BANK0 ] long 
  3081 ;;  i               4    4[BANK0 ] long 
  3082 ;;  s               4    0[BANK0 ] long 
  3083 ;;  z               4    0        float 
  3084 ;; Return value:  Size  Location     Type
  3085 ;;                  4    0[COMMON] float 
  3086 ;; Registers used:
  3087 ;;		wreg, status,2, status,0
  3088 ;; Tracked objects:
  3089 ;;		On entry : 1F/1
  3090 ;;		On exit  : 1F/0
  3091 ;;		Unchanged: 0/0
  3092 ;; Data sizes:     COMMON   BANK0   BANK1   BANK2   BANK3   BANK4   BANK5   BANK6   BANK7   BANK8   BANK9  BANK10  BANK1
      +1  BANK12
  3093 ;;      Params:         4       0       0       0       0       0       0       0       0       0       0       0       
      +0       0
  3094 ;;      Locals:         0      28       0       0       0       0       0       0       0       0       0       0       
      +0       0
  3095 ;;      Temps:          8       0       0       0       0       0       0       0       0       0       0       0       
      +0       0
  3096 ;;      Totals:        12      28       0       0       0       0       0       0       0       0       0       0       
      +0       0
  3097 ;;Total ram usage:       40 bytes
  3098 ;; Hardware stack levels used: 1
  3099 ;; This function calls:
  3100 ;;		Nothing
  3101 ;; This function is called by:
  3102 ;;		_powf
  3103 ;; This function uses a non-reentrant model
  3104 ;;
  3105                           
  3106  0000'                    _sqrtf:	
  3107                           ;psect for function _sqrtf
  3108                           
  3109                           
  3110                           ;incstack = 0
  3111                           ; Regs used in _sqrtf: [wreg+status,2+status,0]
  3112  0000' 0803'              	movf	sqrtf@x+3,w
  3113  0001' 0020               	movlb	0	; select bank0
  3114  0002' 009B'              	movwf	sqrtf@ix+3
  3115  0003' 0802'              	movf	sqrtf@x+2,w
  3116  0004' 009A'              	movwf	sqrtf@ix+2
  3117  0005' 0801'              	movf	sqrtf@x+1,w
  3118  0006' 0099'              	movwf	sqrtf@ix+1
  3119  0007' 0800'              	movf	sqrtf@x,w
  3120  0008' 0098'              	movwf	sqrtf@ix
  3121  0009' 3000               	movlw	0
  3122  000A' 0518'              	andwf	sqrtf@ix,w
  3123  000B' 0084'              	movwf	??_sqrtf
  3124  000C' 3000               	movlw	0
  3125  000D' 0519'              	andwf	sqrtf@ix+1,w
  3126  000E' 0085'              	movwf	??_sqrtf+1
  3127  000F' 3080               	movlw	128
  3128  0010' 051A'              	andwf	sqrtf@ix+2,w
  3129  0011' 0086'              	movwf	??_sqrtf+2
  3130  0012' 307F               	movlw	127
  3131  0013' 051B'              	andwf	sqrtf@ix+3,w
  3132  0014' 0087'              	movwf	??_sqrtf+3
  3133  0015' 3080               	movlw	128
  3134  0016' 0606'              	xorwf	??_sqrtf+2,w
  3135  0017' 307F               	movlw	127
  3136  0018' 1903               	skipnz
  3137  0019' 0607'              	xorwf	??_sqrtf+3,w
  3138  001A' 0404'              	iorwf	??_sqrtf,w
  3139  001B' 0405'              	iorwf	??_sqrtf+1,w
  3140  001C' 1D03               	btfss	3,2
  3141  001D' 2800'              	goto	i1l2737
  3142  001E' 30FF               	movlw	255
  3143  001F' 0020               	movlb	0	; select bank0
  3144  0020' 0518'              	andwf	sqrtf@ix,w
  3145  0021' 0084'              	movwf	??_sqrtf
  3146  0022' 30FF               	movlw	255
  3147  0023' 0519'              	andwf	sqrtf@ix+1,w
  3148  0024' 0085'              	movwf	??_sqrtf+1
  3149  0025' 307F               	movlw	127
  3150  0026' 051A'              	andwf	sqrtf@ix+2,w
  3151  0027' 0086'              	movwf	??_sqrtf+2
  3152  0028' 3000               	movlw	0
  3153  0029' 051B'              	andwf	sqrtf@ix+3,w
  3154  002A' 0087'              	movwf	??_sqrtf+3
  3155  002B' 0807'              	movf	??_sqrtf+3,w
  3156  002C' 0406'              	iorwf	??_sqrtf+2,w
  3157  002D' 0405'              	iorwf	??_sqrtf+1,w
  3158  002E' 0404'              	iorwf	??_sqrtf,w
  3159  002F' 1D03               	skipz
  3160  0030' 2800'              	goto	i1l2733
  3161  0031' 1F9B'              	btfss	sqrtf@ix+3,7
  3162  0032' 2800'              	goto	i1l881
  3163  0033'                    i1l2733:
  3164  0033' 30FF               	movlw	255
  3165  0034' 0498'              	iorwf	sqrtf@ix,f
  3166  0035' 30FF               	movlw	255
  3167  0036' 0499'              	iorwf	sqrtf@ix+1,f
  3168  0037' 307F               	movlw	127
  3169  0038' 049A'              	iorwf	sqrtf@ix+2,f
  3170  0039' 3000               	movlw	0
  3171  003A' 049B'              	iorwf	sqrtf@ix+3,f
  3172  003B'                    i1l881:
  3173  003B' 081B'              	movf	sqrtf@ix+3,w
  3174  003C' 0083'              	movwf	?_sqrtf+3
  3175  003D' 081A'              	movf	sqrtf@ix+2,w
  3176  003E' 0082'              	movwf	?_sqrtf+2
  3177  003F' 0819'              	movf	sqrtf@ix+1,w
  3178  0040' 0081'              	movwf	?_sqrtf+1
  3179  0041' 0818'              	movf	sqrtf@ix,w
  3180  0042' 0080'              	movwf	?_sqrtf
  3181  0043' 0008               	return
  3182  0044'                    i1l2737:
  3183  0044' 0020               	movlb	0	; select bank0
  3184  0045' 1B9B'              	btfsc	sqrtf@ix+3,7
  3185  0046' 2800'              	goto	i1l2739
  3186  0047' 081B'              	movf	sqrtf@ix+3,w
  3187  0048' 1D03               	btfss	3,2
  3188  0049' 2800'              	goto	i1l2749
  3189  004A' 081A'              	movf	sqrtf@ix+2,w
  3190  004B' 1D03               	btfss	3,2
  3191  004C' 2800'              	goto	i1l2749
  3192  004D' 0819'              	movf	sqrtf@ix+1,w
  3193  004E' 1D03               	btfss	3,2
  3194  004F' 2800'              	goto	i1l2749
  3195  0050' 3001               	movlw	1
  3196  0051' 0218'              	subwf	sqrtf@ix,w
  3197  0052' 1803               	btfsc	3,0
  3198  0053' 2800'              	goto	i1l2749
  3199  0054'                    i1l2739:
  3200  0054' 30FF               	movlw	255
  3201  0055' 0020               	movlb	0	; select bank0
  3202  0056' 0518'              	andwf	sqrtf@ix,w
  3203  0057' 0084'              	movwf	??_sqrtf
  3204  0058' 30FF               	movlw	255
  3205  0059' 0519'              	andwf	sqrtf@ix+1,w
  3206  005A' 0085'              	movwf	??_sqrtf+1
  3207  005B' 30FF               	movlw	255
  3208  005C' 051A'              	andwf	sqrtf@ix+2,w
  3209  005D' 0086'              	movwf	??_sqrtf+2
  3210  005E' 307F               	movlw	127
  3211  005F' 051B'              	andwf	sqrtf@ix+3,w
  3212  0060' 0087'              	movwf	??_sqrtf+3
  3213  0061' 0807'              	movf	??_sqrtf+3,w
  3214  0062' 0406'              	iorwf	??_sqrtf+2,w
  3215  0063' 0405'              	iorwf	??_sqrtf+1,w
  3216  0064' 0404'              	iorwf	??_sqrtf,w
  3217  0065' 1D03               	skipz
  3218  0066' 2800'              	goto	i1l886
  3219  0067' 3000               	movlw	0
  3220  0068' 0083'              	movwf	?_sqrtf+3
  3221  0069' 3000               	movlw	0
  3222  006A' 0082'              	movwf	?_sqrtf+2
  3223  006B' 3000               	movlw	0
  3224  006C' 0081'              	movwf	?_sqrtf+1
  3225  006D' 3000               	movlw	0
  3226  006E' 0080'              	movwf	?_sqrtf
  3227  006F' 0008               	return
  3228  0070'                    i1l886:
  3229  0070' 1F9B'              	btfss	sqrtf@ix+3,7
  3230  0071' 2800'              	goto	i1l2749
  3231  0072' 3021               	movlw	33
  3232  0073' 0021               	movlb	1	; select bank1
  3233  0074' 0080'              	movwf	_errno^(0+128)
  3234  0075' 3000               	movlw	0
  3235  0076' 0081'              	movwf	(_errno^(0+128)+1)
  3236  0077' 307F               	movlw	127
  3237  0078' 0020               	movlb	0	; select bank0
  3238  0079' 009B'              	movwf	sqrtf@ix+3
  3239  007A' 30FF               	movlw	255
  3240  007B' 009A'              	movwf	sqrtf@ix+2
  3241  007C' 30FF               	movlw	255
  3242  007D' 0099'              	movwf	sqrtf@ix+1
  3243  007E' 30FF               	movlw	255
  3244  007F' 0098'              	movwf	sqrtf@ix
  3245  0080' 081B'              	movf	sqrtf@ix+3,w
  3246  0081' 0083'              	movwf	?_sqrtf+3
  3247  0082' 081A'              	movf	sqrtf@ix+2,w
  3248  0083' 0082'              	movwf	?_sqrtf+2
  3249  0084' 0819'              	movf	sqrtf@ix+1,w
  3250  0085' 0081'              	movwf	?_sqrtf+1
  3251  0086' 0818'              	movf	sqrtf@ix,w
  3252  0087' 0080'              	movwf	?_sqrtf
  3253  0088' 0008               	return
  3254  0089'                    i1l2749:
  3255  0089' 0020               	movlb	0	; select bank0
  3256  008A' 0818'              	movf	sqrtf@ix,w
  3257  008B' 0084'              	movwf	??_sqrtf
  3258  008C' 0819'              	movf	sqrtf@ix+1,w
  3259  008D' 0085'              	movwf	??_sqrtf+1
  3260  008E' 081A'              	movf	sqrtf@ix+2,w
  3261  008F' 0086'              	movwf	??_sqrtf+2
  3262  0090' 081B'              	movf	sqrtf@ix+3,w
  3263  0091' 0087'              	movwf	??_sqrtf+3
  3264  0092' 3017               	movlw	23
  3265  0093' 0088'              	movwf	??_sqrtf+4
  3266  0094'                    u363_25:
  3267  0094' 3787'              	asrf	??_sqrtf+3,f
  3268  0095' 0C86'              	rrf	??_sqrtf+2,f
  3269  0096' 0C85'              	rrf	??_sqrtf+1,f
  3270  0097' 0C84'              	rrf	??_sqrtf,f
  3271  0098' 0B88'              	decfsz	??_sqrtf+4,f
  3272  0099' 2800'              	goto	u363_25
  3273  009A' 0807'              	movf	??_sqrtf+3,w
  3274  009B' 0093'              	movwf	sqrtf@m+3
  3275  009C' 0806'              	movf	??_sqrtf+2,w
  3276  009D' 0092'              	movwf	sqrtf@m+2
  3277  009E' 0805'              	movf	??_sqrtf+1,w
  3278  009F' 0091'              	movwf	sqrtf@m+1
  3279  00A0' 0804'              	movf	??_sqrtf,w
  3280  00A1' 0090'              	movwf	sqrtf@m
  3281  00A2' 0813'              	movf	sqrtf@m+3,w
  3282  00A3' 0412'              	iorwf	sqrtf@m+2,w
  3283  00A4' 0411'              	iorwf	sqrtf@m+1,w
  3284  00A5' 0410'              	iorwf	sqrtf@m,w
  3285  00A6' 1D03               	skipz
  3286  00A7' 2800'              	goto	i1l888
  3287  00A8' 3000               	movlw	0
  3288  00A9' 0087'              	movwf	sqrtf@i+3
  3289  00AA' 3000               	movlw	0
  3290  00AB' 0086'              	movwf	sqrtf@i+2
  3291  00AC' 3000               	movlw	0
  3292  00AD' 0085'              	movwf	sqrtf@i+1
  3293  00AE' 3000               	movlw	0
  3294  00AF' 0084'              	movwf	sqrtf@i
  3295  00B0'                    i1l2759:
  3296  00B0' 1B9A'              	btfsc	sqrtf@ix+2,7
  3297  00B1' 2800'              	goto	i1l2761
  3298  00B2' 3001               	movlw	1
  3299  00B3'                    u365_25:
  3300  00B3' 3598'              	lslf	sqrtf@ix,f
  3301  00B4' 0D99'              	rlf	sqrtf@ix+1,f
  3302  00B5' 0D9A'              	rlf	sqrtf@ix+2,f
  3303  00B6' 0D9B'              	rlf	sqrtf@ix+3,f
  3304  00B7' 0B89               	decfsz	9,f
  3305  00B8' 2800'              	goto	u365_25
  3306  00B9' 3001               	movlw	1
  3307  00BA' 0784'              	addwf	sqrtf@i,f
  3308  00BB' 3000               	movlw	0
  3309  00BC' 3D85'              	addwfc	sqrtf@i+1,f
  3310  00BD' 3000               	movlw	0
  3311  00BE' 3D86'              	addwfc	sqrtf@i+2,f
  3312  00BF' 3000               	movlw	0
  3313  00C0' 3D87'              	addwfc	sqrtf@i+3,f
  3314  00C1' 2800'              	goto	i1l2759
  3315  00C2'                    i1l2761:
  3316  00C2' 30FF               	movlw	255
  3317  00C3' 0084'              	movwf	??_sqrtf
  3318  00C4' 30FF               	movlw	255
  3319  00C5' 0085'              	movwf	??_sqrtf+1
  3320  00C6' 30FF               	movlw	255
  3321  00C7' 0086'              	movwf	??_sqrtf+2
  3322  00C8' 30FF               	movlw	255
  3323  00C9' 0087'              	movwf	??_sqrtf+3
  3324  00CA' 0804'              	movf	sqrtf@i,w
  3325  00CB' 0784'              	addwf	??_sqrtf,f
  3326  00CC' 0805'              	movf	sqrtf@i+1,w
  3327  00CD' 3D85'              	addwfc	??_sqrtf+1,f
  3328  00CE' 0806'              	movf	sqrtf@i+2,w
  3329  00CF' 3D86'              	addwfc	??_sqrtf+2,f
  3330  00D0' 0807'              	movf	sqrtf@i+3,w
  3331  00D1' 3D87'              	addwfc	??_sqrtf+3,f
  3332  00D2' 0804'              	movf	??_sqrtf,w
  3333  00D3' 0290'              	subwf	sqrtf@m,f
  3334  00D4' 0805'              	movf	??_sqrtf+1,w
  3335  00D5' 3B91'              	subwfb	sqrtf@m+1,f
  3336  00D6' 0806'              	movf	??_sqrtf+2,w
  3337  00D7' 3B92'              	subwfb	sqrtf@m+2,f
  3338  00D8' 0807'              	movf	??_sqrtf+3,w
  3339  00D9' 3B93'              	subwfb	sqrtf@m+3,f
  3340  00DA'                    i1l888:
  3341  00DA' 3081               	movlw	129
  3342  00DB' 0790'              	addwf	sqrtf@m,f
  3343  00DC' 30FF               	movlw	255
  3344  00DD' 3D91'              	addwfc	sqrtf@m+1,f
  3345  00DE' 30FF               	movlw	255
  3346  00DF' 3D92'              	addwfc	sqrtf@m+2,f
  3347  00E0' 30FF               	movlw	255
  3348  00E1' 3D93'              	addwfc	sqrtf@m+3,f
  3349  00E2' 3000               	movlw	0
  3350  00E3' 0084'              	movwf	??_sqrtf
  3351  00E4' 3000               	movlw	0
  3352  00E5' 0085'              	movwf	??_sqrtf+1
  3353  00E6' 3080               	movlw	128
  3354  00E7' 0086'              	movwf	??_sqrtf+2
  3355  00E8' 3000               	movlw	0
  3356  00E9' 0087'              	movwf	??_sqrtf+3
  3357  00EA' 30FF               	movlw	255
  3358  00EB' 0518'              	andwf	sqrtf@ix,w
  3359  00EC' 0088'              	movwf	??_sqrtf+4
  3360  00ED' 30FF               	movlw	255
  3361  00EE' 0519'              	andwf	sqrtf@ix+1,w
  3362  00EF' 0089'              	movwf	??_sqrtf+5
  3363  00F0' 307F               	movlw	127
  3364  00F1' 051A'              	andwf	sqrtf@ix+2,w
  3365  00F2' 008A'              	movwf	??_sqrtf+6
  3366  00F3' 3000               	movlw	0
  3367  00F4' 051B'              	andwf	sqrtf@ix+3,w
  3368  00F5' 008B'              	movwf	??_sqrtf+7
  3369  00F6' 0808'              	movf	??_sqrtf+4,w
  3370  00F7' 0484'              	iorwf	??_sqrtf,f
  3371  00F8' 0809'              	movf	??_sqrtf+5,w
  3372  00F9' 0485'              	iorwf	??_sqrtf+1,f
  3373  00FA' 080A'              	movf	??_sqrtf+6,w
  3374  00FB' 0486'              	iorwf	??_sqrtf+2,f
  3375  00FC' 080B'              	movf	??_sqrtf+7,w
  3376  00FD' 0487'              	iorwf	??_sqrtf+3,f
  3377  00FE' 0807'              	movf	??_sqrtf+3,w
  3378  00FF' 009B'              	movwf	sqrtf@ix+3
  3379  0100' 0806'              	movf	??_sqrtf+2,w
  3380  0101' 009A'              	movwf	sqrtf@ix+2
  3381  0102' 0805'              	movf	??_sqrtf+1,w
  3382  0103' 0099'              	movwf	sqrtf@ix+1
  3383  0104' 0804'              	movf	??_sqrtf,w
  3384  0105' 0098'              	movwf	sqrtf@ix
  3385  0106' 1C10'              	btfss	sqrtf@m,0
  3386  0107' 2800'              	goto	i1l892
  3387  0108' 0818'              	movf	sqrtf@ix,w
  3388  0109' 0798'              	addwf	sqrtf@ix,f
  3389  010A' 0819'              	movf	sqrtf@ix+1,w
  3390  010B' 3D99'              	addwfc	sqrtf@ix+1,f
  3391  010C' 081A'              	movf	sqrtf@ix+2,w
  3392  010D' 3D9A'              	addwfc	sqrtf@ix+2,f
  3393  010E' 081B'              	movf	sqrtf@ix+3,w
  3394  010F' 3D9B'              	addwfc	sqrtf@ix+3,f
  3395  0110'                    i1l892:
  3396  0110' 3001               	movlw	1
  3397  0111' 0084'              	movwf	??_sqrtf
  3398  0112'                    u368_25:
  3399  0112' 3793'              	asrf	sqrtf@m+3,f
  3400  0113' 0C92'              	rrf	sqrtf@m+2,f
  3401  0114' 0C91'              	rrf	sqrtf@m+1,f
  3402  0115' 0C90'              	rrf	sqrtf@m,f
  3403  0116' 0B80'              	decfsz	??_sqrtf& (0+127),f
  3404  0117' 2800'              	goto	u368_25
  3405  0118' 0818'              	movf	sqrtf@ix,w
  3406  0119' 0798'              	addwf	sqrtf@ix,f
  3407  011A' 0819'              	movf	sqrtf@ix+1,w
  3408  011B' 3D99'              	addwfc	sqrtf@ix+1,f
  3409  011C' 081A'              	movf	sqrtf@ix+2,w
  3410  011D' 3D9A'              	addwfc	sqrtf@ix+2,f
  3411  011E' 081B'              	movf	sqrtf@ix+3,w
  3412  011F' 3D9B'              	addwfc	sqrtf@ix+3,f
  3413  0120' 3000               	movlw	0
  3414  0121' 0083'              	movwf	sqrtf@s+3
  3415  0122' 3000               	movlw	0
  3416  0123' 0082'              	movwf	sqrtf@s+2
  3417  0124' 3000               	movlw	0
  3418  0125' 0081'              	movwf	sqrtf@s+1
  3419  0126' 3000               	movlw	0
  3420  0127' 0080'              	movwf	sqrtf@s
  3421  0128' 0803'              	movf	sqrtf@s+3,w
  3422  0129' 008B'              	movwf	sqrtf@q+3
  3423  012A' 0802'              	movf	sqrtf@s+2,w
  3424  012B' 008A'              	movwf	sqrtf@q+2
  3425  012C' 0801'              	movf	sqrtf@s+1,w
  3426  012D' 0089'              	movwf	sqrtf@q+1
  3427  012E' 0800'              	movf	sqrtf@s,w
  3428  012F' 0088'              	movwf	sqrtf@q
  3429  0130' 3001               	movlw	1
  3430  0131' 0097'              	movwf	sqrtf@r+3
  3431  0132' 3000               	movlw	0
  3432  0133' 0096'              	movwf	sqrtf@r+2
  3433  0134' 3000               	movlw	0
  3434  0135' 0095'              	movwf	sqrtf@r+1
  3435  0136' 3000               	movlw	0
  3436  0137' 0094'              	movwf	sqrtf@r
  3437  0138'                    i1l2773:
  3438  0138' 0817'              	movf	sqrtf@r+3,w
  3439  0139' 0416'              	iorwf	sqrtf@r+2,w
  3440  013A' 0415'              	iorwf	sqrtf@r+1,w
  3441  013B' 0414'              	iorwf	sqrtf@r,w
  3442  013C' 1903               	btfsc	3,2
  3443  013D' 2800'              	goto	i1l2775
  3444  013E' 0814'              	movf	sqrtf@r,w
  3445  013F' 0700'              	addwf	sqrtf@s,w
  3446  0140' 0084'              	movwf	??_sqrtf
  3447  0141' 0815'              	movf	sqrtf@r+1,w
  3448  0142' 3D01'              	addwfc	sqrtf@s+1,w
  3449  0143' 0085'              	movwf	??_sqrtf+1
  3450  0144' 0816'              	movf	sqrtf@r+2,w
  3451  0145' 3D02'              	addwfc	sqrtf@s+2,w
  3452  0146' 0086'              	movwf	??_sqrtf+2
  3453  0147' 0817'              	movf	sqrtf@r+3,w
  3454  0148' 3D03'              	addwfc	sqrtf@s+3,w
  3455  0149' 0087'              	movwf	??_sqrtf+3
  3456  014A' 0807'              	movf	??_sqrtf+3,w
  3457  014B' 008F'              	movwf	sqrtf@t+3
  3458  014C' 0806'              	movf	??_sqrtf+2,w
  3459  014D' 008E'              	movwf	sqrtf@t+2
  3460  014E' 0805'              	movf	??_sqrtf+1,w
  3461  014F' 008D'              	movwf	sqrtf@t+1
  3462  0150' 0804'              	movf	??_sqrtf,w
  3463  0151' 008C'              	movwf	sqrtf@t
  3464  0152' 081B'              	movf	sqrtf@ix+3,w
  3465  0153' 3A80               	xorlw	128
  3466  0154' 0084'              	movwf	??_sqrtf
  3467  0155' 080F'              	movf	sqrtf@t+3,w
  3468  0156' 3A80               	xorlw	128
  3469  0157' 0204'              	subwf	??_sqrtf,w
  3470  0158' 1D03               	skipz
  3471  0159' 2800'              	goto	u369_23
  3472  015A' 080E'              	movf	sqrtf@t+2,w
  3473  015B' 021A'              	subwf	sqrtf@ix+2,w
  3474  015C' 1D03               	skipz
  3475  015D' 2800'              	goto	u369_23
  3476  015E' 080D'              	movf	sqrtf@t+1,w
  3477  015F' 0219'              	subwf	sqrtf@ix+1,w
  3478  0160' 1D03               	skipz
  3479  0161' 2800'              	goto	u369_23
  3480  0162' 080C'              	movf	sqrtf@t,w
  3481  0163' 0218'              	subwf	sqrtf@ix,w
  3482  0164'                    u369_23:
  3483  0164' 1C03               	skipc
  3484  0165' 2800'              	goto	i1l895
  3485  0166' 0814'              	movf	sqrtf@r,w
  3486  0167' 070C'              	addwf	sqrtf@t,w
  3487  0168' 0084'              	movwf	??_sqrtf
  3488  0169' 0815'              	movf	sqrtf@r+1,w
  3489  016A' 3D0D'              	addwfc	sqrtf@t+1,w
  3490  016B' 0085'              	movwf	??_sqrtf+1
  3491  016C' 0816'              	movf	sqrtf@r+2,w
  3492  016D' 3D0E'              	addwfc	sqrtf@t+2,w
  3493  016E' 0086'              	movwf	??_sqrtf+2
  3494  016F' 0817'              	movf	sqrtf@r+3,w
  3495  0170' 3D0F'              	addwfc	sqrtf@t+3,w
  3496  0171' 0087'              	movwf	??_sqrtf+3
  3497  0172' 0807'              	movf	??_sqrtf+3,w
  3498  0173' 0083'              	movwf	sqrtf@s+3
  3499  0174' 0806'              	movf	??_sqrtf+2,w
  3500  0175' 0082'              	movwf	sqrtf@s+2
  3501  0176' 0805'              	movf	??_sqrtf+1,w
  3502  0177' 0081'              	movwf	sqrtf@s+1
  3503  0178' 0804'              	movf	??_sqrtf,w
  3504  0179' 0080'              	movwf	sqrtf@s
  3505  017A' 080C'              	movf	sqrtf@t,w
  3506  017B' 0298'              	subwf	sqrtf@ix,f
  3507  017C' 080D'              	movf	sqrtf@t+1,w
  3508  017D' 3B99'              	subwfb	sqrtf@ix+1,f
  3509  017E' 080E'              	movf	sqrtf@t+2,w
  3510  017F' 3B9A'              	subwfb	sqrtf@ix+2,f
  3511  0180' 080F'              	movf	sqrtf@t+3,w
  3512  0181' 3B9B'              	subwfb	sqrtf@ix+3,f
  3513  0182' 0814'              	movf	sqrtf@r,w
  3514  0183' 0788'              	addwf	sqrtf@q,f
  3515  0184' 0815'              	movf	sqrtf@r+1,w
  3516  0185' 3D89'              	addwfc	sqrtf@q+1,f
  3517  0186' 0816'              	movf	sqrtf@r+2,w
  3518  0187' 3D8A'              	addwfc	sqrtf@q+2,f
  3519  0188' 0817'              	movf	sqrtf@r+3,w
  3520  0189' 3D8B'              	addwfc	sqrtf@q+3,f
  3521  018A'                    i1l895:
  3522  018A' 0818'              	movf	sqrtf@ix,w
  3523  018B' 0798'              	addwf	sqrtf@ix,f
  3524  018C' 0819'              	movf	sqrtf@ix+1,w
  3525  018D' 3D99'              	addwfc	sqrtf@ix+1,f
  3526  018E' 081A'              	movf	sqrtf@ix+2,w
  3527  018F' 3D9A'              	addwfc	sqrtf@ix+2,f
  3528  0190' 081B'              	movf	sqrtf@ix+3,w
  3529  0191' 3D9B'              	addwfc	sqrtf@ix+3,f
  3530  0192' 3001               	movlw	1
  3531  0193'                    u370_25:
  3532  0193' 3697'              	lsrf	sqrtf@r+3,f
  3533  0194' 0C96'              	rrf	sqrtf@r+2,f
  3534  0195' 0C95'              	rrf	sqrtf@r+1,f
  3535  0196' 0C94'              	rrf	sqrtf@r,f
  3536  0197' 0B89               	decfsz	9,f
  3537  0198' 2800'              	goto	u370_25
  3538  0199' 2800'              	goto	i1l2773
  3539  019A'                    i1l2775:
  3540  019A' 081B'              	movf	sqrtf@ix+3,w
  3541  019B' 041A'              	iorwf	sqrtf@ix+2,w
  3542  019C' 0419'              	iorwf	sqrtf@ix+1,w
  3543  019D' 0418'              	iorwf	sqrtf@ix,w
  3544  019E' 1903               	skipnz
  3545  019F' 2800'              	goto	i1l2779
  3546  01A0' 3001               	movlw	1
  3547  01A1' 0508'              	andwf	sqrtf@q,w
  3548  01A2' 0084'              	movwf	??_sqrtf
  3549  01A3' 3000               	movlw	0
  3550  01A4' 0509'              	andwf	sqrtf@q+1,w
  3551  01A5' 0085'              	movwf	??_sqrtf+1
  3552  01A6' 3000               	movlw	0
  3553  01A7' 050A'              	andwf	sqrtf@q+2,w
  3554  01A8' 0086'              	movwf	??_sqrtf+2
  3555  01A9' 3000               	movlw	0
  3556  01AA' 050B'              	andwf	sqrtf@q+3,w
  3557  01AB' 0087'              	movwf	??_sqrtf+3
  3558  01AC' 0804'              	movf	??_sqrtf,w
  3559  01AD' 0788'              	addwf	sqrtf@q,f
  3560  01AE' 0805'              	movf	??_sqrtf+1,w
  3561  01AF' 3D89'              	addwfc	sqrtf@q+1,f
  3562  01B0' 0806'              	movf	??_sqrtf+2,w
  3563  01B1' 3D8A'              	addwfc	sqrtf@q+2,f
  3564  01B2' 0807'              	movf	??_sqrtf+3,w
  3565  01B3' 3D8B'              	addwfc	sqrtf@q+3,f
  3566  01B4'                    i1l2779:
  3567  01B4' 0808'              	movf	sqrtf@q,w
  3568  01B5' 0084'              	movwf	??_sqrtf
  3569  01B6' 0809'              	movf	sqrtf@q+1,w
  3570  01B7' 0085'              	movwf	??_sqrtf+1
  3571  01B8' 080A'              	movf	sqrtf@q+2,w
  3572  01B9' 0086'              	movwf	??_sqrtf+2
  3573  01BA' 080B'              	movf	sqrtf@q+3,w
  3574  01BB' 0087'              	movwf	??_sqrtf+3
  3575  01BC' 3001               	movlw	1
  3576  01BD' 0088'              	movwf	??_sqrtf+4
  3577  01BE'                    u373_25:
  3578  01BE' 3787'              	asrf	??_sqrtf+3,f
  3579  01BF' 0C86'              	rrf	??_sqrtf+2,f
  3580  01C0' 0C85'              	rrf	??_sqrtf+1,f
  3581  01C1' 0C84'              	rrf	??_sqrtf,f
  3582  01C2' 0B88'              	decfsz	??_sqrtf+4,f
  3583  01C3' 2800'              	goto	u373_25
  3584  01C4' 3000               	movlw	0
  3585  01C5' 0704'              	addwf	??_sqrtf,w
  3586  01C6' 0098'              	movwf	sqrtf@ix
  3587  01C7' 3000               	movlw	0
  3588  01C8' 3D05'              	addwfc	??_sqrtf+1,w
  3589  01C9' 0099'              	movwf	sqrtf@ix+1
  3590  01CA' 3000               	movlw	0
  3591  01CB' 3D06'              	addwfc	??_sqrtf+2,w
  3592  01CC' 009A'              	movwf	sqrtf@ix+2
  3593  01CD' 303F               	movlw	63
  3594  01CE' 3D07'              	addwfc	??_sqrtf+3,w
  3595  01CF' 009B'              	movwf	sqrtf@ix+3
  3596  01D0' 0810'              	movf	sqrtf@m,w
  3597  01D1' 0084'              	movwf	??_sqrtf
  3598  01D2' 0811'              	movf	sqrtf@m+1,w
  3599  01D3' 0085'              	movwf	??_sqrtf+1
  3600  01D4' 0812'              	movf	sqrtf@m+2,w
  3601  01D5' 0086'              	movwf	??_sqrtf+2
  3602  01D6' 0813'              	movf	sqrtf@m+3,w
  3603  01D7' 0087'              	movwf	??_sqrtf+3
  3604  01D8' 3017               	movlw	23
  3605  01D9'                    u374_25:
  3606  01D9' 3584'              	lslf	??_sqrtf,f
  3607  01DA' 0D85'              	rlf	??_sqrtf+1,f
  3608  01DB' 0D86'              	rlf	??_sqrtf+2,f
  3609  01DC' 0D87'              	rlf	??_sqrtf+3,f
  3610  01DD' 0B89               	decfsz	9,f
  3611  01DE' 2800'              	goto	u374_25
  3612  01DF' 0804'              	movf	??_sqrtf,w
  3613  01E0' 0798'              	addwf	sqrtf@ix,f
  3614  01E1' 0805'              	movf	??_sqrtf+1,w
  3615  01E2' 3D99'              	addwfc	sqrtf@ix+1,f
  3616  01E3' 0806'              	movf	??_sqrtf+2,w
  3617  01E4' 3D9A'              	addwfc	sqrtf@ix+2,f
  3618  01E5' 0807'              	movf	??_sqrtf+3,w
  3619  01E6' 3D9B'              	addwfc	sqrtf@ix+3,f
  3620  01E7' 081B'              	movf	sqrtf@ix+3,w
  3621  01E8' 0083'              	movwf	?_sqrtf+3
  3622  01E9' 081A'              	movf	sqrtf@ix+2,w
  3623  01EA' 0082'              	movwf	?_sqrtf+2
  3624  01EB' 0819'              	movf	sqrtf@ix+1,w
  3625  01EC' 0081'              	movwf	?_sqrtf+1
  3626  01ED' 0818'              	movf	sqrtf@ix,w
  3627  01EE' 0080'              	movwf	?_sqrtf
  3628  01EF' 0008               	return
  3629  01F0'                    __end_of_sqrtf:
  3630                           
  3631                           	psect	text9
  3632  0000'                    __ptext9:	
  3633 ;; *************** function _scalbnf *****************
  3634 ;; Defined at:
  3635 ;;		line 4 in file "/opt/microchip/xc8/v2.45/pic/sources/c99/common/scalbnf.c"
  3636 ;; Parameters:    Size  Location     Type
  3637 ;;  x               4   21[BANK0 ] float 
  3638 ;;  n               2   25[BANK0 ] int 
  3639 ;; Auto vars:     Size  Location     Type
  3640 ;;  y               4   37[BANK0 ] float 
  3641 ;;  u               4   33[BANK0 ] struct .
  3642 ;; Return value:  Size  Location     Type
  3643 ;;                  4   21[BANK0 ] float 
  3644 ;; Registers used:
  3645 ;;		wreg, status,2, status,0, pclath, cstack
  3646 ;; Tracked objects:
  3647 ;;		On entry : 1F/0
  3648 ;;		On exit  : 1F/0
  3649 ;;		Unchanged: 0/0
  3650 ;; Data sizes:     COMMON   BANK0   BANK1   BANK2   BANK3   BANK4   BANK5   BANK6   BANK7   BANK8   BANK9  BANK10  BANK1
      +1  BANK12
  3651 ;;      Params:         0       6       0       0       0       0       0       0       0       0       0       0       
      +0       0
  3652 ;;      Locals:         0       8       0       0       0       0       0       0       0       0       0       0       
      +0       0
  3653 ;;      Temps:          0       6       0       0       0       0       0       0       0       0       0       0       
      +0       0
  3654 ;;      Totals:         0      20       0       0       0       0       0       0       0       0       0       0       
      +0       0
  3655 ;;Total ram usage:       20 bytes
  3656 ;; Hardware stack levels used: 1
  3657 ;; Hardware stack levels required when called: 2
  3658 ;; This function calls:
  3659 ;;		___flmul
  3660 ;; This function is called by:
  3661 ;;		_powf
  3662 ;; This function uses a non-reentrant model
  3663 ;;
  3664                           
  3665  0000'                    _scalbnf:	
  3666                           ;psect for function _scalbnf
  3667                           
  3668                           
  3669                           ;incstack = 0
  3670                           ; Regs used in _scalbnf: [wreg+status,2+status,0+pclath+cstack]
  3671  0000' 0818'              	movf	scalbnf@x+3,w
  3672  0001' 00A8'              	movwf	scalbnf@y+3
  3673  0002' 0817'              	movf	scalbnf@x+2,w
  3674  0003' 00A7'              	movwf	scalbnf@y+2
  3675  0004' 0816'              	movf	scalbnf@x+1,w
  3676  0005' 00A6'              	movwf	scalbnf@y+1
  3677  0006' 0815'              	movf	scalbnf@x,w
  3678  0007' 00A5'              	movwf	scalbnf@y
  3679  0008' 081A'              	movf	scalbnf@n+1,w
  3680  0009' 3A80               	xorlw	128
  3681  000A' 009B'              	movwf	??_scalbnf
  3682  000B' 3080               	movlw	128
  3683  000C' 021B'              	subwf	??_scalbnf,w
  3684  000D' 1D03               	skipz
  3685  000E' 2800'              	goto	u375_25
  3686  000F' 3080               	movlw	128
  3687  0010' 0219'              	subwf	scalbnf@n,w
  3688  0011'                    u375_25:
  3689  0011' 1C03               	skipc
  3690  0012' 2800'              	goto	i1l2801
  3691  0013' 307F               	movlw	127
  3692  0014' 0020               	movlb	0	; select bank0
  3693  0015' 0083'              	movwf	___flmul@b+3
  3694  0016' 3000               	movlw	0
  3695  0017' 0082'              	movwf	___flmul@b+2
  3696  0018' 3000               	movlw	0
  3697  0019' 0081'              	movwf	___flmul@b+1
  3698  001A' 3000               	movlw	0
  3699  001B' 0080'              	movwf	___flmul@b
  3700  001C' 0828'              	movf	scalbnf@y+3,w
  3701  001D' 0087'              	movwf	___flmul@a+3
  3702  001E' 0827'              	movf	scalbnf@y+2,w
  3703  001F' 0086'              	movwf	___flmul@a+2
  3704  0020' 0826'              	movf	scalbnf@y+1,w
  3705  0021' 0085'              	movwf	___flmul@a+1
  3706  0022' 0825'              	movf	scalbnf@y,w
  3707  0023' 0084'              	movwf	___flmul@a
  3708  0024' 3180' 2000' 3180'  	fcall	___flmul
  3709  0027' 0803'              	movf	?___flmul+3,w
  3710  0028' 00A8'              	movwf	scalbnf@y+3
  3711  0029' 0802'              	movf	?___flmul+2,w
  3712  002A' 00A7'              	movwf	scalbnf@y+2
  3713  002B' 0801'              	movf	?___flmul+1,w
  3714  002C' 00A6'              	movwf	scalbnf@y+1
  3715  002D' 0800'              	movf	?___flmul,w
  3716  002E' 00A5'              	movwf	scalbnf@y
  3717  002F' 3081               	movlw	129
  3718  0030' 0799'              	addwf	scalbnf@n,f
  3719  0031' 30FF               	movlw	255
  3720  0032' 3D9A'              	addwfc	scalbnf@n+1,f
  3721  0033' 081A'              	movf	scalbnf@n+1,w
  3722  0034' 3A80               	xorlw	128
  3723  0035' 009B'              	movwf	??_scalbnf
  3724  0036' 3080               	movlw	128
  3725  0037' 021B'              	subwf	??_scalbnf,w
  3726  0038' 1D03               	skipz
  3727  0039' 2800'              	goto	u376_25
  3728  003A' 3080               	movlw	128
  3729  003B' 0219'              	subwf	scalbnf@n,w
  3730  003C'                    u376_25:
  3731  003C' 1C03               	skipc
  3732  003D' 2800'              	goto	i1l2817
  3733  003E' 307F               	movlw	127
  3734  003F' 0020               	movlb	0	; select bank0
  3735  0040' 0083'              	movwf	___flmul@b+3
  3736  0041' 3000               	movlw	0
  3737  0042' 0082'              	movwf	___flmul@b+2
  3738  0043' 3000               	movlw	0
  3739  0044' 0081'              	movwf	___flmul@b+1
  3740  0045' 3000               	movlw	0
  3741  0046' 0080'              	movwf	___flmul@b
  3742  0047' 0828'              	movf	scalbnf@y+3,w
  3743  0048' 0087'              	movwf	___flmul@a+3
  3744  0049' 0827'              	movf	scalbnf@y+2,w
  3745  004A' 0086'              	movwf	___flmul@a+2
  3746  004B' 0826'              	movf	scalbnf@y+1,w
  3747  004C' 0085'              	movwf	___flmul@a+1
  3748  004D' 0825'              	movf	scalbnf@y,w
  3749  004E' 0084'              	movwf	___flmul@a
  3750  004F' 3180' 2000' 3180'  	fcall	___flmul
  3751  0052' 0803'              	movf	?___flmul+3,w
  3752  0053' 00A8'              	movwf	scalbnf@y+3
  3753  0054' 0802'              	movf	?___flmul+2,w
  3754  0055' 00A7'              	movwf	scalbnf@y+2
  3755  0056' 0801'              	movf	?___flmul+1,w
  3756  0057' 00A6'              	movwf	scalbnf@y+1
  3757  0058' 0800'              	movf	?___flmul,w
  3758  0059' 00A5'              	movwf	scalbnf@y
  3759  005A' 3081               	movlw	129
  3760  005B' 0799'              	addwf	scalbnf@n,f
  3761  005C' 30FF               	movlw	255
  3762  005D' 3D9A'              	addwfc	scalbnf@n+1,f
  3763  005E' 081A'              	movf	scalbnf@n+1,w
  3764  005F' 3A80               	xorlw	128
  3765  0060' 009B'              	movwf	??_scalbnf
  3766  0061' 3080               	movlw	128
  3767  0062' 021B'              	subwf	??_scalbnf,w
  3768  0063' 1D03               	skipz
  3769  0064' 2800'              	goto	u377_25
  3770  0065' 3080               	movlw	128
  3771  0066' 0219'              	subwf	scalbnf@n,w
  3772  0067'                    u377_25:
  3773  0067' 1C03               	skipc
  3774  0068' 2800'              	goto	i1l2817
  3775  0069' 307F               	movlw	127
  3776  006A' 0020               	movlb	0	; select bank0
  3777  006B' 0099'              	movwf	scalbnf@n
  3778  006C' 3000               	movlw	0
  3779  006D' 2800'              	goto	L7
  3780  006E'                    i1l2801:
  3781  006E' 0020               	movlb	0	; select bank0
  3782  006F' 081A'              	movf	scalbnf@n+1,w
  3783  0070' 3A80               	xorlw	128
  3784  0071' 009B'              	movwf	??_scalbnf
  3785  0072' 307F               	movlw	127
  3786  0073' 021B'              	subwf	??_scalbnf,w
  3787  0074' 1D03               	skipz
  3788  0075' 2800'              	goto	u378_25
  3789  0076' 3082               	movlw	130
  3790  0077' 0219'              	subwf	scalbnf@n,w
  3791  0078'                    u378_25:
  3792  0078' 1803               	skipnc
  3793  0079' 2800'              	goto	i1l2817
  3794  007A' 300C               	movlw	12
  3795  007B' 0020               	movlb	0	; select bank0
  3796  007C' 0083'              	movwf	___flmul@b+3
  3797  007D' 3080               	movlw	128
  3798  007E' 0082'              	movwf	___flmul@b+2
  3799  007F' 3000               	movlw	0
  3800  0080' 0081'              	movwf	___flmul@b+1
  3801  0081' 3000               	movlw	0
  3802  0082' 0080'              	movwf	___flmul@b
  3803  0083' 0828'              	movf	scalbnf@y+3,w
  3804  0084' 0087'              	movwf	___flmul@a+3
  3805  0085' 0827'              	movf	scalbnf@y+2,w
  3806  0086' 0086'              	movwf	___flmul@a+2
  3807  0087' 0826'              	movf	scalbnf@y+1,w
  3808  0088' 0085'              	movwf	___flmul@a+1
  3809  0089' 0825'              	movf	scalbnf@y,w
  3810  008A' 0084'              	movwf	___flmul@a
  3811  008B' 3180' 2000' 3180'  	fcall	___flmul
  3812  008E' 0803'              	movf	?___flmul+3,w
  3813  008F' 00A8'              	movwf	scalbnf@y+3
  3814  0090' 0802'              	movf	?___flmul+2,w
  3815  0091' 00A7'              	movwf	scalbnf@y+2
  3816  0092' 0801'              	movf	?___flmul+1,w
  3817  0093' 00A6'              	movwf	scalbnf@y+1
  3818  0094' 0800'              	movf	?___flmul,w
  3819  0095' 00A5'              	movwf	scalbnf@y
  3820  0096' 3066               	movlw	102
  3821  0097' 0799'              	addwf	scalbnf@n,f
  3822  0098' 3000               	movlw	0
  3823  0099' 3D9A'              	addwfc	scalbnf@n+1,f
  3824  009A' 081A'              	movf	scalbnf@n+1,w
  3825  009B' 3A80               	xorlw	128
  3826  009C' 009B'              	movwf	??_scalbnf
  3827  009D' 307F               	movlw	127
  3828  009E' 021B'              	subwf	??_scalbnf,w
  3829  009F' 1D03               	skipz
  3830  00A0' 2800'              	goto	u379_25
  3831  00A1' 3082               	movlw	130
  3832  00A2' 0219'              	subwf	scalbnf@n,w
  3833  00A3'                    u379_25:
  3834  00A3' 1803               	skipnc
  3835  00A4' 2800'              	goto	i1l2817
  3836  00A5' 300C               	movlw	12
  3837  00A6' 0020               	movlb	0	; select bank0
  3838  00A7' 0083'              	movwf	___flmul@b+3
  3839  00A8' 3080               	movlw	128
  3840  00A9' 0082'              	movwf	___flmul@b+2
  3841  00AA' 3000               	movlw	0
  3842  00AB' 0081'              	movwf	___flmul@b+1
  3843  00AC' 3000               	movlw	0
  3844  00AD' 0080'              	movwf	___flmul@b
  3845  00AE' 0828'              	movf	scalbnf@y+3,w
  3846  00AF' 0087'              	movwf	___flmul@a+3
  3847  00B0' 0827'              	movf	scalbnf@y+2,w
  3848  00B1' 0086'              	movwf	___flmul@a+2
  3849  00B2' 0826'              	movf	scalbnf@y+1,w
  3850  00B3' 0085'              	movwf	___flmul@a+1
  3851  00B4' 0825'              	movf	scalbnf@y,w
  3852  00B5' 0084'              	movwf	___flmul@a
  3853  00B6' 3180' 2000' 3180'  	fcall	___flmul
  3854  00B9' 0803'              	movf	?___flmul+3,w
  3855  00BA' 00A8'              	movwf	scalbnf@y+3
  3856  00BB' 0802'              	movf	?___flmul+2,w
  3857  00BC' 00A7'              	movwf	scalbnf@y+2
  3858  00BD' 0801'              	movf	?___flmul+1,w
  3859  00BE' 00A6'              	movwf	scalbnf@y+1
  3860  00BF' 0800'              	movf	?___flmul,w
  3861  00C0' 00A5'              	movwf	scalbnf@y
  3862  00C1' 3066               	movlw	102
  3863  00C2' 0799'              	addwf	scalbnf@n,f
  3864  00C3' 3000               	movlw	0
  3865  00C4' 3D9A'              	addwfc	scalbnf@n+1,f
  3866  00C5' 081A'              	movf	scalbnf@n+1,w
  3867  00C6' 3A80               	xorlw	128
  3868  00C7' 009B'              	movwf	??_scalbnf
  3869  00C8' 307F               	movlw	127
  3870  00C9' 021B'              	subwf	??_scalbnf,w
  3871  00CA' 1D03               	skipz
  3872  00CB' 2800'              	goto	u380_25
  3873  00CC' 3082               	movlw	130
  3874  00CD' 0219'              	subwf	scalbnf@n,w
  3875  00CE'                    u380_25:
  3876  00CE' 1803               	skipnc
  3877  00CF' 2800'              	goto	i1l2817
  3878  00D0' 3082               	movlw	130
  3879  00D1' 0020               	movlb	0	; select bank0
  3880  00D2' 0099'              	movwf	scalbnf@n
  3881  00D3' 30FF               	movlw	255
  3882  00D4'                    L7:
  3883  00D4' 009A'              	movwf	scalbnf@n+1
  3884  00D5'                    i1l2817:
  3885  00D5' 0020               	movlb	0	; select bank0
  3886  00D6' 0819'              	movf	scalbnf@n,w
  3887  00D7' 3E7F               	addlw	127
  3888  00D8' 009B'              	movwf	??_scalbnf
  3889  00D9' 3000               	movlw	0
  3890  00DA' 3D1A'              	addwfc	scalbnf@n+1,w
  3891  00DB' 009C'              	movwf	??_scalbnf+1
  3892  00DC' 081B'              	movf	??_scalbnf,w
  3893  00DD' 009D'              	movwf	??_scalbnf+2
  3894  00DE' 081C'              	movf	??_scalbnf+1,w
  3895  00DF' 009E'              	movwf	??_scalbnf+3
  3896  00E0' 019F'              	clrf	??_scalbnf+4
  3897  00E1' 01A0'              	clrf	??_scalbnf+5
  3898  00E2' 3017               	movlw	23
  3899  00E3'                    u381_25:
  3900  00E3' 359D'              	lslf	??_scalbnf+2,f
  3901  00E4' 0D9E'              	rlf	??_scalbnf+3,f
  3902  00E5' 0D9F'              	rlf	??_scalbnf+4,f
  3903  00E6' 0DA0'              	rlf	??_scalbnf+5,f
  3904  00E7' 0B89               	decfsz	9,f
  3905  00E8' 2800'              	goto	u381_25
  3906  00E9' 0820'              	movf	??_scalbnf+5,w
  3907  00EA' 00A4'              	movwf	scalbnf@u+3
  3908  00EB' 081F'              	movf	??_scalbnf+4,w
  3909  00EC' 00A3'              	movwf	scalbnf@u+2
  3910  00ED' 081E'              	movf	??_scalbnf+3,w
  3911  00EE' 00A2'              	movwf	scalbnf@u+1
  3912  00EF' 081D'              	movf	??_scalbnf+2,w
  3913  00F0' 00A1'              	movwf	scalbnf@u
  3914  00F1' 0828'              	movf	scalbnf@y+3,w
  3915  00F2' 0083'              	movwf	___flmul@b+3
  3916  00F3' 0827'              	movf	scalbnf@y+2,w
  3917  00F4' 0082'              	movwf	___flmul@b+2
  3918  00F5' 0826'              	movf	scalbnf@y+1,w
  3919  00F6' 0081'              	movwf	___flmul@b+1
  3920  00F7' 0825'              	movf	scalbnf@y,w
  3921  00F8' 0080'              	movwf	___flmul@b
  3922  00F9' 0824'              	movf	scalbnf@u+3,w
  3923  00FA' 0087'              	movwf	___flmul@a+3
  3924  00FB' 0823'              	movf	scalbnf@u+2,w
  3925  00FC' 0086'              	movwf	___flmul@a+2
  3926  00FD' 0822'              	movf	scalbnf@u+1,w
  3927  00FE' 0085'              	movwf	___flmul@a+1
  3928  00FF' 0821'              	movf	scalbnf@u,w
  3929  0100' 0084'              	movwf	___flmul@a
  3930  0101' 3180' 2000'        	fcall	___flmul
  3931  0103' 0803'              	movf	?___flmul+3,w
  3932  0104' 0098'              	movwf	scalbnf@x+3
  3933  0105' 0802'              	movf	?___flmul+2,w
  3934  0106' 0097'              	movwf	scalbnf@x+2
  3935  0107' 0801'              	movf	?___flmul+1,w
  3936  0108' 0096'              	movwf	scalbnf@x+1
  3937  0109' 0800'              	movf	?___flmul,w
  3938  010A' 0095'              	movwf	scalbnf@x
  3939  010B' 0008               	return
  3940  010C'                    __end_of_scalbnf:
  3941                           
  3942                           	psect	text10
  3943  0000'                    __ptext10:	
  3944 ;; *************** function ___flmul *****************
  3945 ;; Defined at:
  3946 ;;		line 8 in file "/opt/microchip/xc8/v2.45/pic/sources/c99/common/sprcmul.c"
  3947 ;; Parameters:    Size  Location     Type
  3948 ;;  b               4    0[BANK0 ] float 
  3949 ;;  a               4    4[BANK0 ] float 
  3950 ;; Auto vars:     Size  Location     Type
  3951 ;;  prod            4   15[BANK0 ] struct .
  3952 ;;  grs             4   10[BANK0 ] unsigned long 
  3953 ;;  temp            2   19[BANK0 ] struct .
  3954 ;;  bexp            1   14[BANK0 ] unsigned char 
  3955 ;;  aexp            1    9[BANK0 ] unsigned char 
  3956 ;;  sign            1    8[BANK0 ] unsigned char 
  3957 ;; Return value:  Size  Location     Type
  3958 ;;                  4    0[BANK0 ] unsigned char 
  3959 ;; Registers used:
  3960 ;;		wreg, status,2, status,0, pclath, cstack
  3961 ;; Tracked objects:
  3962 ;;		On entry : 1F/0
  3963 ;;		On exit  : 1F/0
  3964 ;;		Unchanged: 0/0
  3965 ;; Data sizes:     COMMON   BANK0   BANK1   BANK2   BANK3   BANK4   BANK5   BANK6   BANK7   BANK8   BANK9  BANK10  BANK1
      +1  BANK12
  3966 ;;      Params:         0       8       0       0       0       0       0       0       0       0       0       0       
      +0       0
  3967 ;;      Locals:         0      13       0       0       0       0       0       0       0       0       0       0       
      +0       0
  3968 ;;      Temps:          5       0       0       0       0       0       0       0       0       0       0       0       
      +0       0
  3969 ;;      Totals:         5      21       0       0       0       0       0       0       0       0       0       0       
      +0       0
  3970 ;;Total ram usage:       26 bytes
  3971 ;; Hardware stack levels used: 1
  3972 ;; Hardware stack levels required when called: 1
  3973 ;; This function calls:
  3974 ;;		__Umul8_16
  3975 ;; This function is called by:
  3976 ;;		_timer_calc
  3977 ;;		_powf
  3978 ;;		_scalbnf
  3979 ;; This function uses a non-reentrant model
  3980 ;;
  3981                           
  3982  0000'                    ___flmul:	
  3983                           ;psect for function ___flmul
  3984                           
  3985                           
  3986                           ;incstack = 0
  3987                           ; Regs used in ___flmul: [wreg+status,2+status,0+pclath+cstack]
  3988  0000' 0803'              	movf	___flmul@b+3,w
  3989  0001' 3980               	andlw	128
  3990  0002' 0088'              	movwf	___flmul@sign
  3991  0003' 3503'              	lslf	___flmul@b+3,w
  3992  0004' 008E'              	movwf	___flmul@bexp
  3993  0005' 1B82'              	btfsc	___flmul@b+2,7
  3994  0006' 140E'              	bsf	___flmul@bexp,0
  3995  0007' 080E'              	movf	___flmul@bexp,w
  3996  0008' 1903               	btfsc	3,2
  3997  0009' 2800'              	goto	i1l2383
  3998  000A' 0A0E'              	incf	___flmul@bexp,w
  3999  000B' 1D03               	btfss	3,2
  4000  000C' 2800'              	goto	i1l2381
  4001  000D' 3000               	movlw	0
  4002  000E' 0083'              	movwf	___flmul@b+3
  4003  000F' 3000               	movlw	0
  4004  0010' 0082'              	movwf	___flmul@b+2
  4005  0011' 3000               	movlw	0
  4006  0012' 0081'              	movwf	___flmul@b+1
  4007  0013' 3000               	movlw	0
  4008  0014' 0080'              	movwf	___flmul@b
  4009  0015'                    i1l2381:
  4010  0015' 1782'              	bsf	___flmul@b+2,7
  4011  0016' 2800'              	goto	i1l2385
  4012  0017'                    i1l2383:
  4013  0017' 3000               	movlw	0
  4014  0018' 0083'              	movwf	___flmul@b+3
  4015  0019' 3000               	movlw	0
  4016  001A' 0082'              	movwf	___flmul@b+2
  4017  001B' 3000               	movlw	0
  4018  001C' 0081'              	movwf	___flmul@b+1
  4019  001D' 3000               	movlw	0
  4020  001E' 0080'              	movwf	___flmul@b
  4021  001F'                    i1l2385:
  4022  001F' 0807'              	movf	___flmul@a+3,w
  4023  0020' 3980               	andlw	128
  4024  0021' 0089'              	movwf	??___flmul
  4025  0022' 0809'              	movf	??___flmul,w
  4026  0023' 0688'              	xorwf	___flmul@sign,f
  4027  0024' 3507'              	lslf	___flmul@a+3,w
  4028  0025' 0089'              	movwf	___flmul@aexp
  4029  0026' 1B86'              	btfsc	___flmul@a+2,7
  4030  0027' 1409'              	bsf	___flmul@aexp,0
  4031  0028' 0809'              	movf	___flmul@aexp,w
  4032  0029' 1903               	btfsc	3,2
  4033  002A' 2800'              	goto	i1l2401
  4034  002B' 0A09'              	incf	___flmul@aexp,w
  4035  002C' 1D03               	btfss	3,2
  4036  002D' 2800'              	goto	i1l2399
  4037  002E' 3000               	movlw	0
  4038  002F' 0087'              	movwf	___flmul@a+3
  4039  0030' 3000               	movlw	0
  4040  0031' 0086'              	movwf	___flmul@a+2
  4041  0032' 3000               	movlw	0
  4042  0033' 0085'              	movwf	___flmul@a+1
  4043  0034' 3000               	movlw	0
  4044  0035' 0084'              	movwf	___flmul@a
  4045  0036'                    i1l2399:
  4046  0036' 1786'              	bsf	___flmul@a+2,7
  4047  0037' 2800'              	goto	i1l2403
  4048  0038'                    i1l2401:
  4049  0038' 3000               	movlw	0
  4050  0039' 0087'              	movwf	___flmul@a+3
  4051  003A' 3000               	movlw	0
  4052  003B' 0086'              	movwf	___flmul@a+2
  4053  003C' 3000               	movlw	0
  4054  003D' 0085'              	movwf	___flmul@a+1
  4055  003E' 3000               	movlw	0
  4056  003F' 0084'              	movwf	___flmul@a
  4057  0040'                    i1l2403:
  4058  0040' 0809'              	movf	___flmul@aexp,w
  4059  0041' 1D03               	btfss	3,2
  4060  0042' 080E'              	movf	___flmul@bexp,w
  4061  0043' 1D03               	btfss	3,2
  4062  0044' 2800'              	goto	i1l2411
  4063  0045' 3000               	movlw	0
  4064  0046' 0083'              	movwf	?___flmul+3
  4065  0047' 3000               	movlw	0
  4066  0048' 0082'              	movwf	?___flmul+2
  4067  0049' 3000               	movlw	0
  4068  004A' 0081'              	movwf	?___flmul+1
  4069  004B' 3000               	movlw	0
  4070  004C' 0080'              	movwf	?___flmul
  4071  004D' 0008               	return
  4072  004E'                    i1l2411:
  4073  004E' 0800'              	movf	___flmul@b,w
  4074  004F' 0080'              	movwf	__Umul8_16@multiplicand
  4075  0050' 0806'              	movf	___flmul@a+2,w
  4076  0051' 3180' 2000' 3180'  	fcall	__Umul8_16
  4077  0054' 0801'              	movf	?__Umul8_16+1,w
  4078  0055' 0094'              	movwf	___flmul@temp+1
  4079  0056' 0800'              	movf	?__Umul8_16,w
  4080  0057' 0093'              	movwf	___flmul@temp
  4081  0058' 0813'              	movf	___flmul@temp,w
  4082  0059' 0089'              	movwf	??___flmul
  4083  005A' 018A'              	clrf	??___flmul+1
  4084  005B' 018B'              	clrf	??___flmul+2
  4085  005C' 018C'              	clrf	??___flmul+3
  4086  005D' 080C'              	movf	??___flmul+3,w
  4087  005E' 008D'              	movwf	___flmul@grs+3
  4088  005F' 080B'              	movf	??___flmul+2,w
  4089  0060' 008C'              	movwf	___flmul@grs+2
  4090  0061' 080A'              	movf	??___flmul+1,w
  4091  0062' 008B'              	movwf	___flmul@grs+1
  4092  0063' 0809'              	movf	??___flmul,w
  4093  0064' 008A'              	movwf	___flmul@grs
  4094  0065' 0814'              	movf	___flmul@temp+1,w
  4095  0066' 0089'              	movwf	??___flmul
  4096  0067' 018A'              	clrf	??___flmul+1
  4097  0068' 018B'              	clrf	??___flmul+2
  4098  0069' 018C'              	clrf	??___flmul+3
  4099  006A' 080C'              	movf	??___flmul+3,w
  4100  006B' 0092'              	movwf	___flmul@prod+3
  4101  006C' 080B'              	movf	??___flmul+2,w
  4102  006D' 0091'              	movwf	___flmul@prod+2
  4103  006E' 080A'              	movf	??___flmul+1,w
  4104  006F' 0090'              	movwf	___flmul@prod+1
  4105  0070' 0809'              	movf	??___flmul,w
  4106  0071' 008F'              	movwf	___flmul@prod
  4107  0072' 0801'              	movf	___flmul@b+1,w
  4108  0073' 0080'              	movwf	__Umul8_16@multiplicand
  4109  0074' 0805'              	movf	___flmul@a+1,w
  4110  0075' 3180' 2000' 3180'  	fcall	__Umul8_16
  4111  0078' 0801'              	movf	?__Umul8_16+1,w
  4112  0079' 0094'              	movwf	___flmul@temp+1
  4113  007A' 0800'              	movf	?__Umul8_16,w
  4114  007B' 0093'              	movwf	___flmul@temp
  4115  007C' 0813'              	movf	___flmul@temp,w
  4116  007D' 0089'              	movwf	??___flmul
  4117  007E' 018A'              	clrf	??___flmul+1
  4118  007F' 018B'              	clrf	??___flmul+2
  4119  0080' 018C'              	clrf	??___flmul+3
  4120  0081' 0809'              	movf	??___flmul,w
  4121  0082' 078A'              	addwf	___flmul@grs,f
  4122  0083' 080A'              	movf	??___flmul+1,w
  4123  0084' 3D8B'              	addwfc	___flmul@grs+1,f
  4124  0085' 080B'              	movf	??___flmul+2,w
  4125  0086' 3D8C'              	addwfc	___flmul@grs+2,f
  4126  0087' 080C'              	movf	??___flmul+3,w
  4127  0088' 3D8D'              	addwfc	___flmul@grs+3,f
  4128  0089' 0814'              	movf	___flmul@temp+1,w
  4129  008A' 0089'              	movwf	??___flmul
  4130  008B' 018A'              	clrf	??___flmul+1
  4131  008C' 018B'              	clrf	??___flmul+2
  4132  008D' 018C'              	clrf	??___flmul+3
  4133  008E' 0809'              	movf	??___flmul,w
  4134  008F' 078F'              	addwf	___flmul@prod,f
  4135  0090' 080A'              	movf	??___flmul+1,w
  4136  0091' 3D90'              	addwfc	___flmul@prod+1,f
  4137  0092' 080B'              	movf	??___flmul+2,w
  4138  0093' 3D91'              	addwfc	___flmul@prod+2,f
  4139  0094' 080C'              	movf	??___flmul+3,w
  4140  0095' 3D92'              	addwfc	___flmul@prod+3,f
  4141  0096' 0802'              	movf	___flmul@b+2,w
  4142  0097' 0080'              	movwf	__Umul8_16@multiplicand
  4143  0098' 0804'              	movf	___flmul@a,w
  4144  0099' 3180' 2000' 3180'  	fcall	__Umul8_16
  4145  009C' 0801'              	movf	?__Umul8_16+1,w
  4146  009D' 0094'              	movwf	___flmul@temp+1
  4147  009E' 0800'              	movf	?__Umul8_16,w
  4148  009F' 0093'              	movwf	___flmul@temp
  4149  00A0' 0813'              	movf	___flmul@temp,w
  4150  00A1' 0089'              	movwf	??___flmul
  4151  00A2' 018A'              	clrf	??___flmul+1
  4152  00A3' 018B'              	clrf	??___flmul+2
  4153  00A4' 018C'              	clrf	??___flmul+3
  4154  00A5' 0809'              	movf	??___flmul,w
  4155  00A6' 078A'              	addwf	___flmul@grs,f
  4156  00A7' 080A'              	movf	??___flmul+1,w
  4157  00A8' 3D8B'              	addwfc	___flmul@grs+1,f
  4158  00A9' 080B'              	movf	??___flmul+2,w
  4159  00AA' 3D8C'              	addwfc	___flmul@grs+2,f
  4160  00AB' 080C'              	movf	??___flmul+3,w
  4161  00AC' 3D8D'              	addwfc	___flmul@grs+3,f
  4162  00AD' 0814'              	movf	___flmul@temp+1,w
  4163  00AE' 0089'              	movwf	??___flmul
  4164  00AF' 018A'              	clrf	??___flmul+1
  4165  00B0' 018B'              	clrf	??___flmul+2
  4166  00B1' 018C'              	clrf	??___flmul+3
  4167  00B2' 0809'              	movf	??___flmul,w
  4168  00B3' 078F'              	addwf	___flmul@prod,f
  4169  00B4' 080A'              	movf	??___flmul+1,w
  4170  00B5' 3D90'              	addwfc	___flmul@prod+1,f
  4171  00B6' 080B'              	movf	??___flmul+2,w
  4172  00B7' 3D91'              	addwfc	___flmul@prod+2,f
  4173  00B8' 080C'              	movf	??___flmul+3,w
  4174  00B9' 3D92'              	addwfc	___flmul@prod+3,f
  4175  00BA' 3008               	movlw	8
  4176  00BB'                    u291_25:
  4177  00BB' 358A'              	lslf	___flmul@grs,f
  4178  00BC' 0D8B'              	rlf	___flmul@grs+1,f
  4179  00BD' 0D8C'              	rlf	___flmul@grs+2,f
  4180  00BE' 0D8D'              	rlf	___flmul@grs+3,f
  4181  00BF' 0B89               	decfsz	9,f
  4182  00C0' 2800'              	goto	u291_25
  4183  00C1' 0801'              	movf	___flmul@b+1,w
  4184  00C2' 0080'              	movwf	__Umul8_16@multiplicand
  4185  00C3' 0804'              	movf	___flmul@a,w
  4186  00C4' 3180' 2000' 3180'  	fcall	__Umul8_16
  4187  00C7' 0801'              	movf	?__Umul8_16+1,w
  4188  00C8' 0094'              	movwf	___flmul@temp+1
  4189  00C9' 0800'              	movf	?__Umul8_16,w
  4190  00CA' 0093'              	movwf	___flmul@temp
  4191  00CB' 0813'              	movf	___flmul@temp,w
  4192  00CC' 078A'              	addwf	___flmul@grs,f
  4193  00CD' 0814'              	movf	___flmul@temp+1,w
  4194  00CE' 3D8B'              	addwfc	___flmul@grs+1,f
  4195  00CF' 3000               	movlw	0
  4196  00D0' 3D8C'              	addwfc	___flmul@grs+2,f
  4197  00D1' 3D8D'              	addwfc	___flmul@grs+3,f
  4198  00D2' 0800'              	movf	___flmul@b,w
  4199  00D3' 0080'              	movwf	__Umul8_16@multiplicand
  4200  00D4' 0805'              	movf	___flmul@a+1,w
  4201  00D5' 3180' 2000' 3180'  	fcall	__Umul8_16
  4202  00D8' 0801'              	movf	?__Umul8_16+1,w
  4203  00D9' 0094'              	movwf	___flmul@temp+1
  4204  00DA' 0800'              	movf	?__Umul8_16,w
  4205  00DB' 0093'              	movwf	___flmul@temp
  4206  00DC' 0813'              	movf	___flmul@temp,w
  4207  00DD' 078A'              	addwf	___flmul@grs,f
  4208  00DE' 0814'              	movf	___flmul@temp+1,w
  4209  00DF' 3D8B'              	addwfc	___flmul@grs+1,f
  4210  00E0' 3000               	movlw	0
  4211  00E1' 3D8C'              	addwfc	___flmul@grs+2,f
  4212  00E2' 3D8D'              	addwfc	___flmul@grs+3,f
  4213  00E3' 3008               	movlw	8
  4214  00E4'                    u292_25:
  4215  00E4' 358A'              	lslf	___flmul@grs,f
  4216  00E5' 0D8B'              	rlf	___flmul@grs+1,f
  4217  00E6' 0D8C'              	rlf	___flmul@grs+2,f
  4218  00E7' 0D8D'              	rlf	___flmul@grs+3,f
  4219  00E8' 0B89               	decfsz	9,f
  4220  00E9' 2800'              	goto	u292_25
  4221  00EA' 0800'              	movf	___flmul@b,w
  4222  00EB' 0080'              	movwf	__Umul8_16@multiplicand
  4223  00EC' 0804'              	movf	___flmul@a,w
  4224  00ED' 3180' 2000' 3180'  	fcall	__Umul8_16
  4225  00F0' 0801'              	movf	?__Umul8_16+1,w
  4226  00F1' 0094'              	movwf	___flmul@temp+1
  4227  00F2' 0800'              	movf	?__Umul8_16,w
  4228  00F3' 0093'              	movwf	___flmul@temp
  4229  00F4' 0813'              	movf	___flmul@temp,w
  4230  00F5' 078A'              	addwf	___flmul@grs,f
  4231  00F6' 0814'              	movf	___flmul@temp+1,w
  4232  00F7' 3D8B'              	addwfc	___flmul@grs+1,f
  4233  00F8' 3000               	movlw	0
  4234  00F9' 3D8C'              	addwfc	___flmul@grs+2,f
  4235  00FA' 3D8D'              	addwfc	___flmul@grs+3,f
  4236  00FB' 0801'              	movf	___flmul@b+1,w
  4237  00FC' 0080'              	movwf	__Umul8_16@multiplicand
  4238  00FD' 0806'              	movf	___flmul@a+2,w
  4239  00FE' 3180' 2000' 3180'  	fcall	__Umul8_16
  4240  0101' 0801'              	movf	?__Umul8_16+1,w
  4241  0102' 0094'              	movwf	___flmul@temp+1
  4242  0103' 0800'              	movf	?__Umul8_16,w
  4243  0104' 0093'              	movwf	___flmul@temp
  4244  0105' 0813'              	movf	___flmul@temp,w
  4245  0106' 078F'              	addwf	___flmul@prod,f
  4246  0107' 0814'              	movf	___flmul@temp+1,w
  4247  0108' 3D90'              	addwfc	___flmul@prod+1,f
  4248  0109' 3000               	movlw	0
  4249  010A' 3D91'              	addwfc	___flmul@prod+2,f
  4250  010B' 3D92'              	addwfc	___flmul@prod+3,f
  4251  010C' 0802'              	movf	___flmul@b+2,w
  4252  010D' 0080'              	movwf	__Umul8_16@multiplicand
  4253  010E' 0805'              	movf	___flmul@a+1,w
  4254  010F' 3180' 2000' 3180'  	fcall	__Umul8_16
  4255  0112' 0801'              	movf	?__Umul8_16+1,w
  4256  0113' 0094'              	movwf	___flmul@temp+1
  4257  0114' 0800'              	movf	?__Umul8_16,w
  4258  0115' 0093'              	movwf	___flmul@temp
  4259  0116' 0813'              	movf	___flmul@temp,w
  4260  0117' 078F'              	addwf	___flmul@prod,f
  4261  0118' 0814'              	movf	___flmul@temp+1,w
  4262  0119' 3D90'              	addwfc	___flmul@prod+1,f
  4263  011A' 3000               	movlw	0
  4264  011B' 3D91'              	addwfc	___flmul@prod+2,f
  4265  011C' 3D92'              	addwfc	___flmul@prod+3,f
  4266  011D' 0802'              	movf	___flmul@b+2,w
  4267  011E' 0080'              	movwf	__Umul8_16@multiplicand
  4268  011F' 0806'              	movf	___flmul@a+2,w
  4269  0120' 3180' 2000' 3180'  	fcall	__Umul8_16
  4270  0123' 0801'              	movf	?__Umul8_16+1,w
  4271  0124' 0094'              	movwf	___flmul@temp+1
  4272  0125' 0800'              	movf	?__Umul8_16,w
  4273  0126' 0093'              	movwf	___flmul@temp
  4274  0127' 0813'              	movf	___flmul@temp,w
  4275  0128' 0089'              	movwf	??___flmul
  4276  0129' 0814'              	movf	___flmul@temp+1,w
  4277  012A' 008A'              	movwf	??___flmul+1
  4278  012B' 018B'              	clrf	??___flmul+2
  4279  012C' 018C'              	clrf	??___flmul+3
  4280  012D' 3008               	movlw	8
  4281  012E'                    u293_25:
  4282  012E' 3589'              	lslf	??___flmul,f
  4283  012F' 0D8A'              	rlf	??___flmul+1,f
  4284  0130' 0D8B'              	rlf	??___flmul+2,f
  4285  0131' 0D8C'              	rlf	??___flmul+3,f
  4286  0132' 0B89               	decfsz	9,f
  4287  0133' 2800'              	goto	u293_25
  4288  0134' 0809'              	movf	??___flmul,w
  4289  0135' 078F'              	addwf	___flmul@prod,f
  4290  0136' 080A'              	movf	??___flmul+1,w
  4291  0137' 3D90'              	addwfc	___flmul@prod+1,f
  4292  0138' 080B'              	movf	??___flmul+2,w
  4293  0139' 3D91'              	addwfc	___flmul@prod+2,f
  4294  013A' 080C'              	movf	??___flmul+3,w
  4295  013B' 3D92'              	addwfc	___flmul@prod+3,f
  4296  013C' 080D'              	movf	___flmul@grs+3,w
  4297  013D' 0089'              	movwf	??___flmul
  4298  013E' 018A'              	clrf	??___flmul+1
  4299  013F' 018B'              	clrf	??___flmul+2
  4300  0140' 018C'              	clrf	??___flmul+3
  4301  0141' 0809'              	movf	??___flmul,w
  4302  0142' 078F'              	addwf	___flmul@prod,f
  4303  0143' 080A'              	movf	??___flmul+1,w
  4304  0144' 3D90'              	addwfc	___flmul@prod+1,f
  4305  0145' 080B'              	movf	??___flmul+2,w
  4306  0146' 3D91'              	addwfc	___flmul@prod+2,f
  4307  0147' 080C'              	movf	??___flmul+3,w
  4308  0148' 3D92'              	addwfc	___flmul@prod+3,f
  4309  0149' 3008               	movlw	8
  4310  014A'                    u294_25:
  4311  014A' 358A'              	lslf	___flmul@grs,f
  4312  014B' 0D8B'              	rlf	___flmul@grs+1,f
  4313  014C' 0D8C'              	rlf	___flmul@grs+2,f
  4314  014D' 0D8D'              	rlf	___flmul@grs+3,f
  4315  014E' 0B89               	decfsz	9,f
  4316  014F' 2800'              	goto	u294_25
  4317  0150' 080E'              	movf	___flmul@bexp,w
  4318  0151' 0709'              	addwf	___flmul@aexp,w
  4319  0152' 0089'              	movwf	??___flmul
  4320  0153' 018A'              	clrf	??___flmul+1
  4321  0154' 0D8A'              	rlf	??___flmul+1,f
  4322  0155' 0809'              	movf	??___flmul,w
  4323  0156' 3E82               	addlw	130
  4324  0157' 0093'              	movwf	___flmul@temp
  4325  0158' 30FF               	movlw	255
  4326  0159' 3D0A'              	addwfc	??___flmul+1,w
  4327  015A' 0094'              	movwf	___flmul@temp+1
  4328  015B'                    i1l2463:
  4329  015B' 1B91'              	btfsc	___flmul@prod+2,7
  4330  015C' 2800'              	goto	i1l2465
  4331  015D' 3001               	movlw	1
  4332  015E'                    u295_25:
  4333  015E' 358F'              	lslf	___flmul@prod,f
  4334  015F' 0D90'              	rlf	___flmul@prod+1,f
  4335  0160' 0D91'              	rlf	___flmul@prod+2,f
  4336  0161' 0D92'              	rlf	___flmul@prod+3,f
  4337  0162' 0B89               	decfsz	9,f
  4338  0163' 2800'              	goto	u295_25
  4339  0164' 1B8D'              	btfsc	___flmul@grs+3,7
  4340  0165' 140F'              	bsf	___flmul@prod,0
  4341  0166' 3001               	movlw	1
  4342  0167'                    u297_25:
  4343  0167' 358A'              	lslf	___flmul@grs,f
  4344  0168' 0D8B'              	rlf	___flmul@grs+1,f
  4345  0169' 0D8C'              	rlf	___flmul@grs+2,f
  4346  016A' 0D8D'              	rlf	___flmul@grs+3,f
  4347  016B' 0B89               	decfsz	9,f
  4348  016C' 2800'              	goto	u297_25
  4349  016D' 30FF               	movlw	255
  4350  016E' 0793'              	addwf	___flmul@temp,f
  4351  016F' 30FF               	movlw	255
  4352  0170' 3D94'              	addwfc	___flmul@temp+1,f
  4353  0171' 2800'              	goto	i1l2463
  4354  0172'                    i1l2465:
  4355  0172' 0189'              	clrf	___flmul@aexp
  4356  0173' 1F8D'              	btfss	___flmul@grs+3,7
  4357  0174' 2800'              	goto	i1l2475
  4358  0175' 30FF               	movlw	255
  4359  0176' 050A'              	andwf	___flmul@grs,w
  4360  0177' 0089'              	movwf	??___flmul
  4361  0178' 30FF               	movlw	255
  4362  0179' 050B'              	andwf	___flmul@grs+1,w
  4363  017A' 008A'              	movwf	??___flmul+1
  4364  017B' 30FF               	movlw	255
  4365  017C' 050C'              	andwf	___flmul@grs+2,w
  4366  017D' 008B'              	movwf	??___flmul+2
  4367  017E' 307F               	movlw	127
  4368  017F' 050D'              	andwf	___flmul@grs+3,w
  4369  0180' 008C'              	movwf	??___flmul+3
  4370  0181' 080C'              	movf	??___flmul+3,w
  4371  0182' 040B'              	iorwf	??___flmul+2,w
  4372  0183' 040A'              	iorwf	??___flmul+1,w
  4373  0184' 0409'              	iorwf	??___flmul,w
  4374  0185' 1903               	skipnz
  4375  0186' 180F'              	btfsc	___flmul@prod,0
  4376  0187' 2800'              	goto	i1l2471
  4377  0188' 2800'              	goto	i1l2475
  4378  0189'                    i1l2471:
  4379  0189' 0189'              	clrf	___flmul@aexp
  4380  018A' 0A89'              	incf	___flmul@aexp,f
  4381  018B'                    i1l2475:
  4382  018B' 0809'              	movf	___flmul@aexp,w
  4383  018C' 1903               	btfsc	3,2
  4384  018D' 2800'              	goto	i1l2485
  4385  018E' 3001               	movlw	1
  4386  018F' 078F'              	addwf	___flmul@prod,f
  4387  0190' 3000               	movlw	0
  4388  0191' 3D90'              	addwfc	___flmul@prod+1,f
  4389  0192' 3000               	movlw	0
  4390  0193' 3D91'              	addwfc	___flmul@prod+2,f
  4391  0194' 3000               	movlw	0
  4392  0195' 3D92'              	addwfc	___flmul@prod+3,f
  4393  0196' 1C12'              	btfss	___flmul@prod+3,0
  4394  0197' 2800'              	goto	i1l2485
  4395  0198' 080F'              	movf	___flmul@prod,w
  4396  0199' 0089'              	movwf	??___flmul
  4397  019A' 0810'              	movf	___flmul@prod+1,w
  4398  019B' 008A'              	movwf	??___flmul+1
  4399  019C' 0811'              	movf	___flmul@prod+2,w
  4400  019D' 008B'              	movwf	??___flmul+2
  4401  019E' 0812'              	movf	___flmul@prod+3,w
  4402  019F' 008C'              	movwf	??___flmul+3
  4403  01A0' 3001               	movlw	1
  4404  01A1' 008D'              	movwf	??___flmul+4
  4405  01A2'                    u304_25:
  4406  01A2' 378C'              	asrf	??___flmul+3,f
  4407  01A3' 0C8B'              	rrf	??___flmul+2,f
  4408  01A4' 0C8A'              	rrf	??___flmul+1,f
  4409  01A5' 0C89'              	rrf	??___flmul,f
  4410  01A6' 0B8D'              	decfsz	??___flmul+4,f
  4411  01A7' 2800'              	goto	u304_25
  4412  01A8' 080C'              	movf	??___flmul+3,w
  4413  01A9' 0092'              	movwf	___flmul@prod+3
  4414  01AA' 080B'              	movf	??___flmul+2,w
  4415  01AB' 0091'              	movwf	___flmul@prod+2
  4416  01AC' 080A'              	movf	??___flmul+1,w
  4417  01AD' 0090'              	movwf	___flmul@prod+1
  4418  01AE' 0809'              	movf	??___flmul,w
  4419  01AF' 008F'              	movwf	___flmul@prod
  4420  01B0' 3001               	movlw	1
  4421  01B1' 0793'              	addwf	___flmul@temp,f
  4422  01B2' 3000               	movlw	0
  4423  01B3' 3D94'              	addwfc	___flmul@temp+1,f
  4424  01B4'                    i1l2485:
  4425  01B4' 0814'              	movf	___flmul@temp+1,w
  4426  01B5' 3A80               	xorlw	128
  4427  01B6' 0089'              	movwf	??___flmul
  4428  01B7' 3080               	movlw	128
  4429  01B8' 0209'              	subwf	??___flmul,w
  4430  01B9' 1D03               	skipz
  4431  01BA' 2800'              	goto	u305_25
  4432  01BB' 30FF               	movlw	255
  4433  01BC' 0213'              	subwf	___flmul@temp,w
  4434  01BD'                    u305_25:
  4435  01BD' 1C03               	skipc
  4436  01BE' 2800'              	goto	i1l2489
  4437  01BF' 307F               	movlw	127
  4438  01C0' 0020               	movlb	0	; select bank0
  4439  01C1' 0092'              	movwf	___flmul@prod+3
  4440  01C2' 3080               	movlw	128
  4441  01C3' 0091'              	movwf	___flmul@prod+2
  4442  01C4' 3000               	movlw	0
  4443  01C5' 0090'              	movwf	___flmul@prod+1
  4444  01C6' 3000               	movlw	0
  4445  01C7' 008F'              	movwf	___flmul@prod
  4446  01C8' 2800'              	goto	i1l683
  4447  01C9'                    i1l2489:
  4448  01C9' 0020               	movlb	0	; select bank0
  4449  01CA' 0814'              	movf	___flmul@temp+1,w
  4450  01CB' 3A80               	xorlw	128
  4451  01CC' 0089'              	movwf	??___flmul
  4452  01CD' 3080               	movlw	128
  4453  01CE' 0209'              	subwf	??___flmul,w
  4454  01CF' 1D03               	skipz
  4455  01D0' 2800'              	goto	u306_25
  4456  01D1' 3001               	movlw	1
  4457  01D2' 0213'              	subwf	___flmul@temp,w
  4458  01D3'                    u306_25:
  4459  01D3' 1803               	skipnc
  4460  01D4' 2800'              	goto	i1l2495
  4461  01D5' 3000               	movlw	0
  4462  01D6' 0020               	movlb	0	; select bank0
  4463  01D7' 0092'              	movwf	___flmul@prod+3
  4464  01D8' 3000               	movlw	0
  4465  01D9' 0091'              	movwf	___flmul@prod+2
  4466  01DA' 3000               	movlw	0
  4467  01DB' 0090'              	movwf	___flmul@prod+1
  4468  01DC' 3000               	movlw	0
  4469  01DD' 008F'              	movwf	___flmul@prod
  4470  01DE' 0188'              	clrf	___flmul@sign
  4471  01DF' 2800'              	goto	i1l683
  4472  01E0'                    i1l2495:
  4473  01E0' 0020               	movlb	0	; select bank0
  4474  01E1' 0813'              	movf	___flmul@temp,w
  4475  01E2' 008E'              	movwf	___flmul@bexp
  4476  01E3' 30FF               	movlw	255
  4477  01E4' 058F'              	andwf	___flmul@prod,f
  4478  01E5' 30FF               	movlw	255
  4479  01E6' 0590'              	andwf	___flmul@prod+1,f
  4480  01E7' 307F               	movlw	127
  4481  01E8' 0591'              	andwf	___flmul@prod+2,f
  4482  01E9' 3000               	movlw	0
  4483  01EA' 0592'              	andwf	___flmul@prod+3,f
  4484  01EB' 180E'              	btfsc	___flmul@bexp,0
  4485  01EC' 1791'              	bsf	___flmul@prod+2,7
  4486  01ED' 360E'              	lsrf	___flmul@bexp,w
  4487  01EE' 0092'              	movwf	___flmul@prod+3
  4488  01EF'                    i1l683:
  4489  01EF' 0808'              	movf	___flmul@sign,w
  4490  01F0' 0089'              	movwf	??___flmul
  4491  01F1' 0809'              	movf	??___flmul,w
  4492  01F2' 0492'              	iorwf	___flmul@prod+3,f
  4493  01F3' 0812'              	movf	___flmul@prod+3,w
  4494  01F4' 0083'              	movwf	?___flmul+3
  4495  01F5' 0811'              	movf	___flmul@prod+2,w
  4496  01F6' 0082'              	movwf	?___flmul+2
  4497  01F7' 0810'              	movf	___flmul@prod+1,w
  4498  01F8' 0081'              	movwf	?___flmul+1
  4499  01F9' 080F'              	movf	___flmul@prod,w
  4500  01FA' 0080'              	movwf	?___flmul
  4501  01FB' 0008               	return
  4502  01FC'                    __end_of___flmul:
  4503                           
  4504                           	psect	text11
  4505  0000'                    __ptext11:	
  4506 ;; *************** function __Umul8_16 *****************
  4507 ;; Defined at:
  4508 ;;		line 4 in file "/opt/microchip/xc8/v2.45/pic/sources/c99/common/Umul8_16.c"
  4509 ;; Parameters:    Size  Location     Type
  4510 ;;  multiplier      1    wreg     unsigned char 
  4511 ;;  multiplicand    1    0[COMMON] unsigned char 
  4512 ;; Auto vars:     Size  Location     Type
  4513 ;;  multiplier      1    8[COMMON] unsigned char 
  4514 ;;  word_mpld       2    6[COMMON] unsigned short 
  4515 ;;  product         2    4[COMMON] unsigned short 
  4516 ;; Return value:  Size  Location     Type
  4517 ;;                  2    0[COMMON] unsigned int 
  4518 ;; Registers used:
  4519 ;;		wreg, status,2, status,0
  4520 ;; Tracked objects:
  4521 ;;		On entry : 1F/0
  4522 ;;		On exit  : 1F/0
  4523 ;;		Unchanged: 1F/0
  4524 ;; Data sizes:     COMMON   BANK0   BANK1   BANK2   BANK3   BANK4   BANK5   BANK6   BANK7   BANK8   BANK9  BANK10  BANK1
      +1  BANK12
  4525 ;;      Params:         2       0       0       0       0       0       0       0       0       0       0       0       
      +0       0
  4526 ;;      Locals:         5       0       0       0       0       0       0       0       0       0       0       0       
      +0       0
  4527 ;;      Temps:          2       0       0       0       0       0       0       0       0       0       0       0       
      +0       0
  4528 ;;      Totals:         9       0       0       0       0       0       0       0       0       0       0       0       
      +0       0
  4529 ;;Total ram usage:        9 bytes
  4530 ;; Hardware stack levels used: 1
  4531 ;; This function calls:
  4532 ;;		Nothing
  4533 ;; This function is called by:
  4534 ;;		___flmul
  4535 ;; This function uses a non-reentrant model
  4536 ;;
  4537                           
  4538  0000'                    __Umul8_16:	
  4539                           ;psect for function __Umul8_16
  4540                           
  4541                           
  4542                           ;incstack = 0
  4543                           ; Regs used in __Umul8_16: [wreg+status,2+status,0]
  4544                           ;__Umul8_16@multiplier stored from wreg
  4545  0000' 0088'              	movwf	__Umul8_16@multiplier
  4546  0001' 0184'              	clrf	__Umul8_16@product
  4547  0002' 0185'              	clrf	__Umul8_16@product+1
  4548  0003' 0800'              	movf	__Umul8_16@multiplicand,w
  4549  0004' 0082'              	movwf	??__Umul8_16
  4550  0005' 0183'              	clrf	??__Umul8_16+1
  4551  0006' 0802'              	movf	??__Umul8_16,w
  4552  0007' 0086'              	movwf	__Umul8_16@word_mpld
  4553  0008' 0803'              	movf	??__Umul8_16+1,w
  4554  0009' 0087'              	movwf	__Umul8_16@word_mpld+1
  4555  000A'                    i1l2163:
  4556  000A' 1C08'              	btfss	__Umul8_16@multiplier,0
  4557  000B' 2800'              	goto	i1l690
  4558  000C' 0806'              	movf	__Umul8_16@word_mpld,w
  4559  000D' 0784'              	addwf	__Umul8_16@product,f
  4560  000E' 0807'              	movf	__Umul8_16@word_mpld+1,w
  4561  000F' 3D85'              	addwfc	__Umul8_16@product+1,f
  4562  0010'                    i1l690:
  4563  0010' 3001               	movlw	1
  4564  0011'                    u238_25:
  4565  0011' 3586'              	lslf	__Umul8_16@word_mpld,f
  4566  0012' 0D87'              	rlf	__Umul8_16@word_mpld+1,f
  4567  0013' 0B89               	decfsz	9,f
  4568  0014' 2800'              	goto	u238_25
  4569  0015' 1003               	clrc
  4570  0016' 0C88'              	rrf	__Umul8_16@multiplier,f
  4571  0017' 0808'              	movf	__Umul8_16@multiplier,w
  4572  0018' 1D03               	btfss	3,2
  4573  0019' 2800'              	goto	i1l2163
  4574  001A' 0805'              	movf	__Umul8_16@product+1,w
  4575  001B' 0081'              	movwf	?__Umul8_16+1
  4576  001C' 0804'              	movf	__Umul8_16@product,w
  4577  001D' 0080'              	movwf	?__Umul8_16
  4578  001E' 0008               	return
  4579  001F'                    __end_of__Umul8_16:
  4580                           
  4581                           	psect	text12
  4582  0000'                    __ptext12:	
  4583 ;; *************** function ___xxtofl *****************
  4584 ;; Defined at:
  4585 ;;		line 10 in file "/opt/microchip/xc8/v2.45/pic/sources/c99/common/xxtofl.c"
  4586 ;; Parameters:    Size  Location     Type
  4587 ;;  sign            1    wreg     unsigned char 
  4588 ;;  val             4    0[COMMON] long 
  4589 ;; Auto vars:     Size  Location     Type
  4590 ;;  sign            1    8[COMMON] unsigned char 
  4591 ;;  arg             4   10[COMMON] unsigned long 
  4592 ;;  exp             1    9[COMMON] unsigned char 
  4593 ;; Return value:  Size  Location     Type
  4594 ;;                  4    0[COMMON] unsigned char 
  4595 ;; Registers used:
  4596 ;;		wreg, status,2, status,0
  4597 ;; Tracked objects:
  4598 ;;		On entry : 19/4
  4599 ;;		On exit  : 19/0
  4600 ;;		Unchanged: 19/0
  4601 ;; Data sizes:     COMMON   BANK0   BANK1   BANK2   BANK3   BANK4   BANK5   BANK6   BANK7   BANK8   BANK9  BANK10  BANK1
      +1  BANK12
  4602 ;;      Params:         4       0       0       0       0       0       0       0       0       0       0       0       
      +0       0
  4603 ;;      Locals:         6       0       0       0       0       0       0       0       0       0       0       0       
      +0       0
  4604 ;;      Temps:          4       0       0       0       0       0       0       0       0       0       0       0       
      +0       0
  4605 ;;      Totals:        14       0       0       0       0       0       0       0       0       0       0       0       
      +0       0
  4606 ;;Total ram usage:       14 bytes
  4607 ;; Hardware stack levels used: 1
  4608 ;; This function calls:
  4609 ;;		Nothing
  4610 ;; This function is called by:
  4611 ;;		_timer_calc
  4612 ;;		_isr
  4613 ;;		_powf
  4614 ;; This function uses a non-reentrant model
  4615 ;;
  4616                           
  4617  0000'                    ___xxtofl:	
  4618                           ;psect for function ___xxtofl
  4619                           
  4620                           
  4621                           ;incstack = 0
  4622                           ; Regs used in ___xxtofl: [wreg+status,2+status,0]
  4623                           ;___xxtofl@sign stored from wreg
  4624  0000' 0088'              	movwf	___xxtofl@sign
  4625  0001' 0808'              	movf	___xxtofl@sign,w
  4626  0002' 1D03               	btfss	3,2
  4627  0003' 1F83'              	btfss	___xxtofl@val+3,7
  4628  0004' 2800'              	goto	i1l2687
  4629  0005' 0900'              	comf	___xxtofl@val,w
  4630  0006' 008A'              	movwf	___xxtofl@arg
  4631  0007' 0901'              	comf	___xxtofl@val+1,w
  4632  0008' 008B'              	movwf	___xxtofl@arg+1
  4633  0009' 0902'              	comf	___xxtofl@val+2,w
  4634  000A' 008C'              	movwf	___xxtofl@arg+2
  4635  000B' 0903'              	comf	___xxtofl@val+3,w
  4636  000C' 008D'              	movwf	___xxtofl@arg+3
  4637  000D' 0A8A'              	incf	___xxtofl@arg,f
  4638  000E' 1903               	skipnz
  4639  000F' 0A8B'              	incf	___xxtofl@arg+1,f
  4640  0010' 1903               	skipnz
  4641  0011' 0A8C'              	incf	___xxtofl@arg+2,f
  4642  0012' 1903               	skipnz
  4643  0013' 0A8D'              	incf	___xxtofl@arg+3,f
  4644  0014' 2800'              	goto	i1l715
  4645  0015'                    i1l2687:
  4646  0015' 0803'              	movf	___xxtofl@val+3,w
  4647  0016' 008D'              	movwf	___xxtofl@arg+3
  4648  0017' 0802'              	movf	___xxtofl@val+2,w
  4649  0018' 008C'              	movwf	___xxtofl@arg+2
  4650  0019' 0801'              	movf	___xxtofl@val+1,w
  4651  001A' 008B'              	movwf	___xxtofl@arg+1
  4652  001B' 0800'              	movf	___xxtofl@val,w
  4653  001C' 008A'              	movwf	___xxtofl@arg
  4654  001D'                    i1l715:
  4655  001D' 0803'              	movf	___xxtofl@val+3,w
  4656  001E' 0402'              	iorwf	___xxtofl@val+2,w
  4657  001F' 0401'              	iorwf	___xxtofl@val+1,w
  4658  0020' 0400'              	iorwf	___xxtofl@val,w
  4659  0021' 1D03               	skipz
  4660  0022' 2800'              	goto	i1l2693
  4661  0023' 3000               	movlw	0
  4662  0024' 0083'              	movwf	?___xxtofl+3
  4663  0025' 3000               	movlw	0
  4664  0026' 0082'              	movwf	?___xxtofl+2
  4665  0027' 3000               	movlw	0
  4666  0028' 0081'              	movwf	?___xxtofl+1
  4667  0029' 3000               	movlw	0
  4668  002A' 0080'              	movwf	?___xxtofl
  4669  002B' 0008               	return
  4670  002C'                    i1l2693:
  4671  002C' 3096               	movlw	150
  4672  002D' 0089'              	movwf	___xxtofl@exp
  4673  002E'                    i1l2697:
  4674  002E' 30FE               	movlw	254
  4675  002F' 050D'              	andwf	___xxtofl@arg+3,w
  4676  0030' 1903               	btfsc	3,2
  4677  0031' 2800'              	goto	i1l721
  4678  0032' 3001               	movlw	1
  4679  0033' 0084'              	movwf	??___xxtofl
  4680  0034' 0804'              	movf	??___xxtofl,w
  4681  0035' 0789'              	addwf	___xxtofl@exp,f
  4682  0036' 3001               	movlw	1
  4683  0037'                    u346_25:
  4684  0037' 368D'              	lsrf	___xxtofl@arg+3,f
  4685  0038' 0C8C'              	rrf	___xxtofl@arg+2,f
  4686  0039' 0C8B'              	rrf	___xxtofl@arg+1,f
  4687  003A' 0C8A'              	rrf	___xxtofl@arg,f
  4688  003B' 0B89               	decfsz	9,f
  4689  003C' 2800'              	goto	u346_25
  4690  003D' 2800'              	goto	i1l2697
  4691  003E'                    i1l2699:
  4692  003E' 3001               	movlw	1
  4693  003F' 0084'              	movwf	??___xxtofl
  4694  0040' 0804'              	movf	??___xxtofl,w
  4695  0041' 0789'              	addwf	___xxtofl@exp,f
  4696  0042' 3001               	movlw	1
  4697  0043' 078A'              	addwf	___xxtofl@arg,f
  4698  0044' 3000               	movlw	0
  4699  0045' 3D8B'              	addwfc	___xxtofl@arg+1,f
  4700  0046' 3000               	movlw	0
  4701  0047' 3D8C'              	addwfc	___xxtofl@arg+2,f
  4702  0048' 3000               	movlw	0
  4703  0049' 3D8D'              	addwfc	___xxtofl@arg+3,f
  4704  004A' 3001               	movlw	1
  4705  004B'                    u348_25:
  4706  004B' 368D'              	lsrf	___xxtofl@arg+3,f
  4707  004C' 0C8C'              	rrf	___xxtofl@arg+2,f
  4708  004D' 0C8B'              	rrf	___xxtofl@arg+1,f
  4709  004E' 0C8A'              	rrf	___xxtofl@arg,f
  4710  004F' 0B89               	decfsz	9,f
  4711  0050' 2800'              	goto	u348_25
  4712  0051'                    i1l721:
  4713  0051' 30FF               	movlw	255
  4714  0052' 050D'              	andwf	___xxtofl@arg+3,w
  4715  0053' 1903               	btfsc	3,2
  4716  0054' 2800'              	goto	i1l2707
  4717  0055' 2800'              	goto	i1l2699
  4718  0056'                    i1l2709:
  4719  0056' 3002               	movlw	2
  4720  0057' 0209'              	subwf	___xxtofl@exp,w
  4721  0058' 1C03               	btfss	3,0
  4722  0059' 2800'              	goto	i1l728
  4723  005A' 3001               	movlw	1
  4724  005B' 0289'              	subwf	___xxtofl@exp,f
  4725  005C' 3001               	movlw	1
  4726  005D'                    u350_25:
  4727  005D' 358A'              	lslf	___xxtofl@arg,f
  4728  005E' 0D8B'              	rlf	___xxtofl@arg+1,f
  4729  005F' 0D8C'              	rlf	___xxtofl@arg+2,f
  4730  0060' 0D8D'              	rlf	___xxtofl@arg+3,f
  4731  0061' 0B89               	decfsz	9,f
  4732  0062' 2800'              	goto	u350_25
  4733  0063'                    i1l2707:
  4734  0063' 1F8C'              	btfss	___xxtofl@arg+2,7
  4735  0064' 2800'              	goto	i1l2709
  4736  0065'                    i1l728:
  4737  0065' 1809'              	btfsc	___xxtofl@exp,0
  4738  0066' 2800'              	goto	i1l729
  4739  0067' 30FF               	movlw	255
  4740  0068' 058A'              	andwf	___xxtofl@arg,f
  4741  0069' 30FF               	movlw	255
  4742  006A' 058B'              	andwf	___xxtofl@arg+1,f
  4743  006B' 307F               	movlw	127
  4744  006C' 058C'              	andwf	___xxtofl@arg+2,f
  4745  006D' 30FF               	movlw	255
  4746  006E' 058D'              	andwf	___xxtofl@arg+3,f
  4747  006F'                    i1l729:
  4748  006F' 1003               	clrc
  4749  0070' 0C89'              	rrf	___xxtofl@exp,f
  4750  0071' 0809'              	movf	___xxtofl@exp,w
  4751  0072' 0084'              	movwf	??___xxtofl
  4752  0073' 0185'              	clrf	??___xxtofl+1
  4753  0074' 0186'              	clrf	??___xxtofl+2
  4754  0075' 0187'              	clrf	??___xxtofl+3
  4755  0076' 3018               	movlw	24
  4756  0077'                    u354_25:
  4757  0077' 3584'              	lslf	??___xxtofl,f
  4758  0078' 0D85'              	rlf	??___xxtofl+1,f
  4759  0079' 0D86'              	rlf	??___xxtofl+2,f
  4760  007A' 0D87'              	rlf	??___xxtofl+3,f
  4761  007B' 0B89               	decfsz	9,f
  4762  007C' 2800'              	goto	u354_25
  4763  007D' 0804'              	movf	??___xxtofl,w
  4764  007E' 048A'              	iorwf	___xxtofl@arg,f
  4765  007F' 0805'              	movf	??___xxtofl+1,w
  4766  0080' 048B'              	iorwf	___xxtofl@arg+1,f
  4767  0081' 0806'              	movf	??___xxtofl+2,w
  4768  0082' 048C'              	iorwf	___xxtofl@arg+2,f
  4769  0083' 0807'              	movf	??___xxtofl+3,w
  4770  0084' 048D'              	iorwf	___xxtofl@arg+3,f
  4771  0085' 0808'              	movf	___xxtofl@sign,w
  4772  0086' 1D03               	btfss	3,2
  4773  0087' 1F83'              	btfss	___xxtofl@val+3,7
  4774  0088' 2800'              	goto	i1l2721
  4775  0089' 178D'              	bsf	___xxtofl@arg+3,7
  4776  008A'                    i1l2721:
  4777  008A' 080D'              	movf	___xxtofl@arg+3,w
  4778  008B' 0083'              	movwf	?___xxtofl+3
  4779  008C' 080C'              	movf	___xxtofl@arg+2,w
  4780  008D' 0082'              	movwf	?___xxtofl+2
  4781  008E' 080B'              	movf	___xxtofl@arg+1,w
  4782  008F' 0081'              	movwf	?___xxtofl+1
  4783  0090' 080A'              	movf	___xxtofl@arg,w
  4784  0091' 0080'              	movwf	?___xxtofl
  4785  0092' 0008               	return
  4786  0093'                    __end_of___xxtofl:
  4787                           
  4788                           	psect	text13
  4789  0000'                    __ptext13:	
  4790 ;; *************** function ___flsub *****************
  4791 ;; Defined at:
  4792 ;;		line 242 in file "/opt/microchip/xc8/v2.45/pic/sources/c99/common/sprcadd.c"
  4793 ;; Parameters:    Size  Location     Type
  4794 ;;  a               4   67[BANK0 ] unsigned char 
  4795 ;;  b               4   71[BANK0 ] unsigned char 
  4796 ;; Auto vars:     Size  Location     Type
  4797 ;;		None
  4798 ;; Return value:  Size  Location     Type
  4799 ;;                  4   67[BANK0 ] unsigned char 
  4800 ;; Registers used:
  4801 ;;		wreg, status,2, status,0, pclath, cstack
  4802 ;; Tracked objects:
  4803 ;;		On entry : 1F/0
  4804 ;;		On exit  : 1F/0
  4805 ;;		Unchanged: 0/0
  4806 ;; Data sizes:     COMMON   BANK0   BANK1   BANK2   BANK3   BANK4   BANK5   BANK6   BANK7   BANK8   BANK9  BANK10  BANK1
      +1  BANK12
  4807 ;;      Params:         0       8       0       0       0       0       0       0       0       0       0       0       
      +0       0
  4808 ;;      Locals:         0       0       0       0       0       0       0       0       0       0       0       0       
      +0       0
  4809 ;;      Temps:          0       0       0       0       0       0       0       0       0       0       0       0       
      +0       0
  4810 ;;      Totals:         0       8       0       0       0       0       0       0       0       0       0       0       
      +0       0
  4811 ;;Total ram usage:        8 bytes
  4812 ;; Hardware stack levels used: 1
  4813 ;; Hardware stack levels required when called: 1
  4814 ;; This function calls:
  4815 ;;		___fladd
  4816 ;; This function is called by:
  4817 ;;		_powf
  4818 ;; This function uses a non-reentrant model
  4819 ;;
  4820                           
  4821  0000'                    ___flsub:	
  4822                           ;psect for function ___flsub
  4823                           
  4824                           
  4825                           ;incstack = 0
  4826                           ; Regs used in ___flsub: [wreg+status,2+status,0+pclath+cstack]
  4827  0000' 3080               	movlw	128
  4828  0001' 06C6'              	xorwf	___flsub@a+3,f
  4829  0002' 084A'              	movf	___flsub@b+3,w
  4830  0003' 0098'              	movwf	___fladd@b+3
  4831  0004' 0849'              	movf	___flsub@b+2,w
  4832  0005' 0097'              	movwf	___fladd@b+2
  4833  0006' 0848'              	movf	___flsub@b+1,w
  4834  0007' 0096'              	movwf	___fladd@b+1
  4835  0008' 0847'              	movf	___flsub@b,w
  4836  0009' 0095'              	movwf	___fladd@b
  4837  000A' 0846'              	movf	___flsub@a+3,w
  4838  000B' 009C'              	movwf	___fladd@a+3
  4839  000C' 0845'              	movf	___flsub@a+2,w
  4840  000D' 009B'              	movwf	___fladd@a+2
  4841  000E' 0844'              	movf	___flsub@a+1,w
  4842  000F' 009A'              	movwf	___fladd@a+1
  4843  0010' 0843'              	movf	___flsub@a,w
  4844  0011' 0099'              	movwf	___fladd@a
  4845  0012' 3180' 2000'        	fcall	___fladd
  4846  0014' 0818'              	movf	?___fladd+3,w
  4847  0015' 00C6'              	movwf	?___flsub+3
  4848  0016' 0817'              	movf	?___fladd+2,w
  4849  0017' 00C5'              	movwf	?___flsub+2
  4850  0018' 0816'              	movf	?___fladd+1,w
  4851  0019' 00C4'              	movwf	?___flsub+1
  4852  001A' 0815'              	movf	?___fladd,w
  4853  001B' 00C3'              	movwf	?___flsub
  4854  001C' 0008               	return
  4855  001D'                    __end_of___flsub:
  4856                           
  4857                           	psect	text14
  4858  0000'                    __ptext14:	
  4859 ;; *************** function ___fladd *****************
  4860 ;; Defined at:
  4861 ;;		line 10 in file "/opt/microchip/xc8/v2.45/pic/sources/c99/common/sprcadd.c"
  4862 ;; Parameters:    Size  Location     Type
  4863 ;;  b               4   21[BANK0 ] unsigned char 
  4864 ;;  a               4   25[BANK0 ] unsigned char 
  4865 ;; Auto vars:     Size  Location     Type
  4866 ;;  grs             1   40[BANK0 ] unsigned char 
  4867 ;;  bexp            1   39[BANK0 ] unsigned char 
  4868 ;;  aexp            1   38[BANK0 ] unsigned char 
  4869 ;;  signs           1   37[BANK0 ] unsigned char 
  4870 ;; Return value:  Size  Location     Type
  4871 ;;                  4   21[BANK0 ] unsigned char 
  4872 ;; Registers used:
  4873 ;;		wreg, status,2, status,0
  4874 ;; Tracked objects:
  4875 ;;		On entry : 1F/0
  4876 ;;		On exit  : 1F/0
  4877 ;;		Unchanged: 0/0
  4878 ;; Data sizes:     COMMON   BANK0   BANK1   BANK2   BANK3   BANK4   BANK5   BANK6   BANK7   BANK8   BANK9  BANK10  BANK1
      +1  BANK12
  4879 ;;      Params:         0       8       0       0       0       0       0       0       0       0       0       0       
      +0       0
  4880 ;;      Locals:         0       4       0       0       0       0       0       0       0       0       0       0       
      +0       0
  4881 ;;      Temps:          0       8       0       0       0       0       0       0       0       0       0       0       
      +0       0
  4882 ;;      Totals:         0      20       0       0       0       0       0       0       0       0       0       0       
      +0       0
  4883 ;;Total ram usage:       20 bytes
  4884 ;; Hardware stack levels used: 1
  4885 ;; This function calls:
  4886 ;;		Nothing
  4887 ;; This function is called by:
  4888 ;;		_timer_calc
  4889 ;;		___flsub
  4890 ;;		_powf
  4891 ;; This function uses a non-reentrant model
  4892 ;;
  4893                           
  4894  0000'                    ___fladd:	
  4895                           ;psect for function ___fladd
  4896                           
  4897                           
  4898                           ;incstack = 0
  4899                           ; Regs used in ___fladd: [wreg+status,2+status,0]
  4900  0000' 0818'              	movf	___fladd@b+3,w
  4901  0001' 3980               	andlw	128
  4902  0002' 00A5'              	movwf	___fladd@signs
  4903  0003' 3518'              	lslf	___fladd@b+3,w
  4904  0004' 00A7'              	movwf	___fladd@bexp
  4905  0005' 1B97'              	btfsc	___fladd@b+2,7
  4906  0006' 1427'              	bsf	___fladd@bexp,0
  4907  0007' 0827'              	movf	___fladd@bexp,w
  4908  0008' 1903               	btfsc	3,2
  4909  0009' 2800'              	goto	i1l2191
  4910  000A' 0A27'              	incf	___fladd@bexp,w
  4911  000B' 1D03               	btfss	3,2
  4912  000C' 2800'              	goto	i1l2187
  4913  000D' 3000               	movlw	0
  4914  000E' 0098'              	movwf	___fladd@b+3
  4915  000F' 3000               	movlw	0
  4916  0010' 0097'              	movwf	___fladd@b+2
  4917  0011' 3000               	movlw	0
  4918  0012' 0096'              	movwf	___fladd@b+1
  4919  0013' 3000               	movlw	0
  4920  0014' 0095'              	movwf	___fladd@b
  4921  0015'                    i1l2187:
  4922  0015' 1797'              	bsf	___fladd@b+2,7
  4923  0016' 0198'              	clrf	___fladd@b+3
  4924  0017' 2800'              	goto	i1l2193
  4925  0018'                    i1l2191:
  4926  0018' 3000               	movlw	0
  4927  0019' 0098'              	movwf	___fladd@b+3
  4928  001A' 3000               	movlw	0
  4929  001B' 0097'              	movwf	___fladd@b+2
  4930  001C' 3000               	movlw	0
  4931  001D' 0096'              	movwf	___fladd@b+1
  4932  001E' 3000               	movlw	0
  4933  001F' 0095'              	movwf	___fladd@b
  4934  0020'                    i1l2193:
  4935  0020' 081C'              	movf	___fladd@a+3,w
  4936  0021' 3980               	andlw	128
  4937  0022' 00A6'              	movwf	___fladd@aexp
  4938  0023' 0826'              	movf	___fladd@aexp,w
  4939  0024' 0625'              	xorwf	___fladd@signs,w
  4940  0025' 1D03               	btfss	3,2
  4941  0026' 1725'              	bsf	___fladd@signs,6
  4942  0027' 351C'              	lslf	___fladd@a+3,w
  4943  0028' 00A6'              	movwf	___fladd@aexp
  4944  0029' 1B9B'              	btfsc	___fladd@a+2,7
  4945  002A' 1426'              	bsf	___fladd@aexp,0
  4946  002B' 0826'              	movf	___fladd@aexp,w
  4947  002C' 1903               	btfsc	3,2
  4948  002D' 2800'              	goto	i1l2215
  4949  002E' 0A26'              	incf	___fladd@aexp,w
  4950  002F' 1D03               	btfss	3,2
  4951  0030' 2800'              	goto	i1l2211
  4952  0031' 3000               	movlw	0
  4953  0032' 009C'              	movwf	___fladd@a+3
  4954  0033' 3000               	movlw	0
  4955  0034' 009B'              	movwf	___fladd@a+2
  4956  0035' 3000               	movlw	0
  4957  0036' 009A'              	movwf	___fladd@a+1
  4958  0037' 3000               	movlw	0
  4959  0038' 0099'              	movwf	___fladd@a
  4960  0039'                    i1l2211:
  4961  0039' 179B'              	bsf	___fladd@a+2,7
  4962  003A' 019C'              	clrf	___fladd@a+3
  4963  003B' 2800'              	goto	i1l575
  4964  003C'                    i1l2215:
  4965  003C' 3000               	movlw	0
  4966  003D' 009C'              	movwf	___fladd@a+3
  4967  003E' 3000               	movlw	0
  4968  003F' 009B'              	movwf	___fladd@a+2
  4969  0040' 3000               	movlw	0
  4970  0041' 009A'              	movwf	___fladd@a+1
  4971  0042' 3000               	movlw	0
  4972  0043' 0099'              	movwf	___fladd@a
  4973  0044'                    i1l575:
  4974  0044' 0827'              	movf	___fladd@bexp,w
  4975  0045' 0226'              	subwf	___fladd@aexp,w
  4976  0046' 1803               	skipnc
  4977  0047' 2800'              	goto	i1l2251
  4978  0048' 1F25'              	btfss	___fladd@signs,6
  4979  0049' 2800'              	goto	i1l2221
  4980  004A' 3080               	movlw	128
  4981  004B' 009D'              	movwf	??___fladd
  4982  004C' 081D'              	movf	??___fladd,w
  4983  004D' 06A5'              	xorwf	___fladd@signs,f
  4984  004E'                    i1l2221:
  4985  004E' 0827'              	movf	___fladd@bexp,w
  4986  004F' 00A8'              	movwf	___fladd@grs
  4987  0050' 0826'              	movf	___fladd@aexp,w
  4988  0051' 00A7'              	movwf	___fladd@bexp
  4989  0052' 0828'              	movf	___fladd@grs,w
  4990  0053' 00A6'              	movwf	___fladd@aexp
  4991  0054' 0815'              	movf	___fladd@b,w
  4992  0055' 00A8'              	movwf	___fladd@grs
  4993  0056' 0819'              	movf	___fladd@a,w
  4994  0057' 0095'              	movwf	___fladd@b
  4995  0058' 0828'              	movf	___fladd@grs,w
  4996  0059' 0099'              	movwf	___fladd@a
  4997  005A' 0816'              	movf	___fladd@b+1,w
  4998  005B' 00A8'              	movwf	___fladd@grs
  4999  005C' 081A'              	movf	___fladd@a+1,w
  5000  005D' 0096'              	movwf	___fladd@b+1
  5001  005E' 0828'              	movf	___fladd@grs,w
  5002  005F' 009A'              	movwf	___fladd@a+1
  5003  0060' 0817'              	movf	___fladd@b+2,w
  5004  0061' 00A8'              	movwf	___fladd@grs
  5005  0062' 081B'              	movf	___fladd@a+2,w
  5006  0063' 0097'              	movwf	___fladd@b+2
  5007  0064' 0828'              	movf	___fladd@grs,w
  5008  0065' 009B'              	movwf	___fladd@a+2
  5009  0066' 0818'              	movf	___fladd@b+3,w
  5010  0067' 00A8'              	movwf	___fladd@grs
  5011  0068' 081C'              	movf	___fladd@a+3,w
  5012  0069' 0098'              	movwf	___fladd@b+3
  5013  006A' 0828'              	movf	___fladd@grs,w
  5014  006B' 009C'              	movwf	___fladd@a+3
  5015  006C'                    i1l2251:
  5016  006C' 01A8'              	clrf	___fladd@grs
  5017  006D' 0826'              	movf	___fladd@aexp,w
  5018  006E' 009D'              	movwf	??___fladd
  5019  006F' 019E'              	clrf	??___fladd+1
  5020  0070' 081E'              	movf	??___fladd+1,w
  5021  0071' 00A0'              	movwf	??___fladd+3
  5022  0072' 0827'              	movf	___fladd@bexp,w
  5023  0073' 021D'              	subwf	??___fladd,w
  5024  0074' 009F'              	movwf	??___fladd+2
  5025  0075' 1C03               	skipc
  5026  0076' 03A0'              	decf	??___fladd+3,f
  5027  0077' 0820'              	movf	??___fladd+3,w
  5028  0078' 3A80               	xorlw	128
  5029  0079' 00A1'              	movwf	??___fladd+4
  5030  007A' 3080               	movlw	128
  5031  007B' 0221'              	subwf	??___fladd+4,w
  5032  007C' 1D03               	skipz
  5033  007D' 2800'              	goto	u249_25
  5034  007E' 301A               	movlw	26
  5035  007F' 021F'              	subwf	??___fladd+2,w
  5036  0080'                    u249_25:
  5037  0080' 1C03               	skipc
  5038  0081' 2800'              	goto	i1l2269
  5039  0082' 0020               	movlb	0	; select bank0
  5040  0083' 0818'              	movf	___fladd@b+3,w
  5041  0084' 0417'              	iorwf	___fladd@b+2,w
  5042  0085' 0416'              	iorwf	___fladd@b+1,w
  5043  0086' 0415'              	iorwf	___fladd@b,w
  5044  0087' 1903               	btfsc	3,2
  5045  0088' 2800'              	goto	u250_20
  5046  0089' 3001               	movlw	1
  5047  008A' 2800'              	goto	u251_20
  5048  008B'                    u250_20:
  5049  008B' 3000               	movlw	0
  5050  008C'                    u251_20:
  5051  008C' 00A8'              	movwf	___fladd@grs
  5052  008D' 3000               	movlw	0
  5053  008E' 0098'              	movwf	___fladd@b+3
  5054  008F' 3000               	movlw	0
  5055  0090' 0097'              	movwf	___fladd@b+2
  5056  0091' 3000               	movlw	0
  5057  0092' 0096'              	movwf	___fladd@b+1
  5058  0093' 3000               	movlw	0
  5059  0094' 0095'              	movwf	___fladd@b
  5060  0095' 0826'              	movf	___fladd@aexp,w
  5061  0096' 00A7'              	movwf	___fladd@bexp
  5062  0097' 2800'              	goto	i1l579
  5063  0098'                    i1l581:
  5064  0098' 1C28'              	btfss	___fladd@grs,0
  5065  0099' 2800'              	goto	i1l2259
  5066  009A' 3628'              	lsrf	___fladd@grs,w
  5067  009B' 3801               	iorlw	1
  5068  009C' 00A8'              	movwf	___fladd@grs
  5069  009D' 2800'              	goto	i1l2261
  5070  009E'                    i1l2259:
  5071  009E' 1003               	clrc
  5072  009F' 0CA8'              	rrf	___fladd@grs,f
  5073  00A0'                    i1l2261:
  5074  00A0' 1815'              	btfsc	___fladd@b,0
  5075  00A1' 17A8'              	bsf	___fladd@grs,7
  5076  00A2' 3001               	movlw	1
  5077  00A3' 009D'              	movwf	??___fladd
  5078  00A4'                    u254_25:
  5079  00A4' 3798'              	asrf	___fladd@b+3,f
  5080  00A5' 0C97'              	rrf	___fladd@b+2,f
  5081  00A6' 0C96'              	rrf	___fladd@b+1,f
  5082  00A7' 0C95'              	rrf	___fladd@b,f
  5083  00A8' 0B80'              	decfsz	??___fladd& (0+127),f
  5084  00A9' 2800'              	goto	u254_25
  5085  00AA' 3001               	movlw	1
  5086  00AB' 009D'              	movwf	??___fladd
  5087  00AC' 081D'              	movf	??___fladd,w
  5088  00AD' 07A7'              	addwf	___fladd@bexp,f
  5089  00AE'                    i1l2269:
  5090  00AE' 0020               	movlb	0	; select bank0
  5091  00AF' 0826'              	movf	___fladd@aexp,w
  5092  00B0' 0227'              	subwf	___fladd@bexp,w
  5093  00B1' 1C03               	skipc
  5094  00B2' 2800'              	goto	i1l581
  5095  00B3'                    i1l579:
  5096  00B3' 1B25'              	btfsc	___fladd@signs,6
  5097  00B4' 2800'              	goto	i1l2295
  5098  00B5' 0827'              	movf	___fladd@bexp,w
  5099  00B6' 1D03               	btfss	3,2
  5100  00B7' 2800'              	goto	i1l2277
  5101  00B8' 3000               	movlw	0
  5102  00B9' 0098'              	movwf	?___fladd+3
  5103  00BA' 3000               	movlw	0
  5104  00BB' 0097'              	movwf	?___fladd+2
  5105  00BC' 3000               	movlw	0
  5106  00BD' 0096'              	movwf	?___fladd+1
  5107  00BE' 3000               	movlw	0
  5108  00BF' 0095'              	movwf	?___fladd
  5109  00C0' 0008               	return
  5110  00C1'                    i1l2277:
  5111  00C1' 0819'              	movf	___fladd@a,w
  5112  00C2' 0795'              	addwf	___fladd@b,f
  5113  00C3' 081A'              	movf	___fladd@a+1,w
  5114  00C4' 3D96'              	addwfc	___fladd@b+1,f
  5115  00C5' 081B'              	movf	___fladd@a+2,w
  5116  00C6' 3D97'              	addwfc	___fladd@b+2,f
  5117  00C7' 081C'              	movf	___fladd@a+3,w
  5118  00C8' 3D98'              	addwfc	___fladd@b+3,f
  5119  00C9' 1C18'              	btfss	___fladd@b+3,0
  5120  00CA' 2800'              	goto	i1l2329
  5121  00CB' 1C28'              	btfss	___fladd@grs,0
  5122  00CC' 2800'              	goto	i1l2285
  5123  00CD' 3628'              	lsrf	___fladd@grs,w
  5124  00CE' 3801               	iorlw	1
  5125  00CF' 00A8'              	movwf	___fladd@grs
  5126  00D0' 2800'              	goto	i1l2287
  5127  00D1'                    i1l2285:
  5128  00D1' 1003               	clrc
  5129  00D2' 0CA8'              	rrf	___fladd@grs,f
  5130  00D3'                    i1l2287:
  5131  00D3' 1815'              	btfsc	___fladd@b,0
  5132  00D4' 17A8'              	bsf	___fladd@grs,7
  5133  00D5' 3001               	movlw	1
  5134  00D6' 009D'              	movwf	??___fladd
  5135  00D7'                    u261_25:
  5136  00D7' 3798'              	asrf	___fladd@b+3,f
  5137  00D8' 0C97'              	rrf	___fladd@b+2,f
  5138  00D9' 0C96'              	rrf	___fladd@b+1,f
  5139  00DA' 0C95'              	rrf	___fladd@b,f
  5140  00DB' 0B80'              	decfsz	??___fladd& (0+127),f
  5141  00DC' 2800'              	goto	u261_25
  5142  00DD' 3001               	movlw	1
  5143  00DE' 009D'              	movwf	??___fladd
  5144  00DF' 081D'              	movf	??___fladd,w
  5145  00E0' 07A7'              	addwf	___fladd@bexp,f
  5146  00E1' 2800'              	goto	i1l2329
  5147  00E2'                    i1l2295:
  5148  00E2' 0818'              	movf	___fladd@b+3,w
  5149  00E3' 3A80               	xorlw	128
  5150  00E4' 009D'              	movwf	??___fladd
  5151  00E5' 081C'              	movf	___fladd@a+3,w
  5152  00E6' 3A80               	xorlw	128
  5153  00E7' 021D'              	subwf	??___fladd,w
  5154  00E8' 1D03               	skipz
  5155  00E9' 2800'              	goto	u262_23
  5156  00EA' 081B'              	movf	___fladd@a+2,w
  5157  00EB' 0217'              	subwf	___fladd@b+2,w
  5158  00EC' 1D03               	skipz
  5159  00ED' 2800'              	goto	u262_23
  5160  00EE' 081A'              	movf	___fladd@a+1,w
  5161  00EF' 0216'              	subwf	___fladd@b+1,w
  5162  00F0' 1D03               	skipz
  5163  00F1' 2800'              	goto	u262_23
  5164  00F2' 0819'              	movf	___fladd@a,w
  5165  00F3' 0215'              	subwf	___fladd@b,w
  5166  00F4'                    u262_23:
  5167  00F4' 1803               	skipnc
  5168  00F5' 2800'              	goto	i1l2305
  5169  00F6' 30FF               	movlw	255
  5170  00F7' 009D'              	movwf	??___fladd
  5171  00F8' 30FF               	movlw	255
  5172  00F9' 009E'              	movwf	??___fladd+1
  5173  00FA' 30FF               	movlw	255
  5174  00FB' 009F'              	movwf	??___fladd+2
  5175  00FC' 30FF               	movlw	255
  5176  00FD' 00A0'              	movwf	??___fladd+3
  5177  00FE' 0815'              	movf	___fladd@b,w
  5178  00FF' 0219'              	subwf	___fladd@a,w
  5179  0100' 00A1'              	movwf	??___fladd+4
  5180  0101' 0816'              	movf	___fladd@b+1,w
  5181  0102' 3B1A'              	subwfb	___fladd@a+1,w
  5182  0103' 00A2'              	movwf	??___fladd+5
  5183  0104' 0817'              	movf	___fladd@b+2,w
  5184  0105' 3B1B'              	subwfb	___fladd@a+2,w
  5185  0106' 00A3'              	movwf	??___fladd+6
  5186  0107' 0818'              	movf	___fladd@b+3,w
  5187  0108' 3B1C'              	subwfb	___fladd@a+3,w
  5188  0109' 00A4'              	movwf	??___fladd+7
  5189  010A' 0821'              	movf	??___fladd+4,w
  5190  010B' 079D'              	addwf	??___fladd,f
  5191  010C' 0822'              	movf	??___fladd+5,w
  5192  010D' 3D9E'              	addwfc	??___fladd+1,f
  5193  010E' 0823'              	movf	??___fladd+6,w
  5194  010F' 3D9F'              	addwfc	??___fladd+2,f
  5195  0110' 0824'              	movf	??___fladd+7,w
  5196  0111' 3DA0'              	addwfc	??___fladd+3,f
  5197  0112' 0820'              	movf	??___fladd+3,w
  5198  0113' 0098'              	movwf	___fladd@b+3
  5199  0114' 081F'              	movf	??___fladd+2,w
  5200  0115' 0097'              	movwf	___fladd@b+2
  5201  0116' 081E'              	movf	??___fladd+1,w
  5202  0117' 0096'              	movwf	___fladd@b+1
  5203  0118' 081D'              	movf	??___fladd,w
  5204  0119' 0095'              	movwf	___fladd@b
  5205  011A' 3080               	movlw	128
  5206  011B' 009D'              	movwf	??___fladd
  5207  011C' 081D'              	movf	??___fladd,w
  5208  011D' 06A5'              	xorwf	___fladd@signs,f
  5209  011E' 09A8'              	comf	___fladd@grs,f
  5210  011F' 0AA8'              	incf	___fladd@grs,f
  5211  0120' 0828'              	movf	___fladd@grs,w
  5212  0121' 1D03               	btfss	3,2
  5213  0122' 2800'              	goto	i1l596
  5214  0123' 3001               	movlw	1
  5215  0124' 0795'              	addwf	___fladd@b,f
  5216  0125' 3000               	movlw	0
  5217  0126' 3D96'              	addwfc	___fladd@b+1,f
  5218  0127' 3000               	movlw	0
  5219  0128' 3D97'              	addwfc	___fladd@b+2,f
  5220  0129' 3000               	movlw	0
  5221  012A' 3D98'              	addwfc	___fladd@b+3,f
  5222  012B' 2800'              	goto	i1l596
  5223  012C'                    i1l2305:
  5224  012C' 0819'              	movf	___fladd@a,w
  5225  012D' 0295'              	subwf	___fladd@b,f
  5226  012E' 081A'              	movf	___fladd@a+1,w
  5227  012F' 3B96'              	subwfb	___fladd@b+1,f
  5228  0130' 081B'              	movf	___fladd@a+2,w
  5229  0131' 3B97'              	subwfb	___fladd@b+2,f
  5230  0132' 081C'              	movf	___fladd@a+3,w
  5231  0133' 3B98'              	subwfb	___fladd@b+3,f
  5232  0134'                    i1l596:
  5233  0134' 0818'              	movf	___fladd@b+3,w
  5234  0135' 0417'              	iorwf	___fladd@b+2,w
  5235  0136' 0416'              	iorwf	___fladd@b+1,w
  5236  0137' 0415'              	iorwf	___fladd@b,w
  5237  0138' 1D03               	skipz
  5238  0139' 2800'              	goto	i1l2327
  5239  013A' 0828'              	movf	___fladd@grs,w
  5240  013B' 1D03               	btfss	3,2
  5241  013C' 2800'              	goto	i1l2327
  5242  013D' 3000               	movlw	0
  5243  013E' 0098'              	movwf	?___fladd+3
  5244  013F' 3000               	movlw	0
  5245  0140' 0097'              	movwf	?___fladd+2
  5246  0141' 3000               	movlw	0
  5247  0142' 0096'              	movwf	?___fladd+1
  5248  0143' 3000               	movlw	0
  5249  0144' 0095'              	movwf	?___fladd
  5250  0145' 0008               	return
  5251  0146'                    i1l2313:
  5252  0146' 3001               	movlw	1
  5253  0147'                    u266_25:
  5254  0147' 3595'              	lslf	___fladd@b,f
  5255  0148' 0D96'              	rlf	___fladd@b+1,f
  5256  0149' 0D97'              	rlf	___fladd@b+2,f
  5257  014A' 0D98'              	rlf	___fladd@b+3,f
  5258  014B' 0B89               	decfsz	9,f
  5259  014C' 2800'              	goto	u266_25
  5260  014D' 1BA8'              	btfsc	___fladd@grs,7
  5261  014E' 1415'              	bsf	___fladd@b,0
  5262  014F' 1C28'              	btfss	___fladd@grs,0
  5263  0150' 2800'              	goto	i1l2321
  5264  0151' 1403               	setc
  5265  0152' 2800'              	goto	L8
  5266  0153'                    i1l2321:
  5267  0153' 1003               	clrc
  5268  0154'                    L8:
  5269  0154' 0DA8'              	rlf	___fladd@grs,f
  5270  0155' 0827'              	movf	___fladd@bexp,w
  5271  0156' 1903               	btfsc	3,2
  5272  0157' 2800'              	goto	i1l2327
  5273  0158' 3001               	movlw	1
  5274  0159' 02A7'              	subwf	___fladd@bexp,f
  5275  015A'                    i1l2327:
  5276  015A' 1F97'              	btfss	___fladd@b+2,7
  5277  015B' 2800'              	goto	i1l2313
  5278  015C'                    i1l2329:
  5279  015C' 01A6'              	clrf	___fladd@aexp
  5280  015D' 1FA8'              	btfss	___fladd@grs,7
  5281  015E' 2800'              	goto	i1l2339
  5282  015F' 0828'              	movf	___fladd@grs,w
  5283  0160' 397F               	andlw	127
  5284  0161' 1903               	btfsc	3,2
  5285  0162' 1815'              	btfsc	___fladd@b,0
  5286  0163' 2800'              	goto	i1l2335
  5287  0164' 2800'              	goto	i1l2339
  5288  0165'                    i1l2335:
  5289  0165' 01A6'              	clrf	___fladd@aexp
  5290  0166' 0AA6'              	incf	___fladd@aexp,f
  5291  0167'                    i1l2339:
  5292  0167' 0826'              	movf	___fladd@aexp,w
  5293  0168' 1903               	btfsc	3,2
  5294  0169' 2800'              	goto	i1l609
  5295  016A' 3001               	movlw	1
  5296  016B' 0795'              	addwf	___fladd@b,f
  5297  016C' 3000               	movlw	0
  5298  016D' 3D96'              	addwfc	___fladd@b+1,f
  5299  016E' 3000               	movlw	0
  5300  016F' 3D97'              	addwfc	___fladd@b+2,f
  5301  0170' 3000               	movlw	0
  5302  0171' 3D98'              	addwfc	___fladd@b+3,f
  5303  0172' 1C18'              	btfss	___fladd@b+3,0
  5304  0173' 2800'              	goto	i1l609
  5305  0174' 0815'              	movf	___fladd@b,w
  5306  0175' 009D'              	movwf	??___fladd
  5307  0176' 0816'              	movf	___fladd@b+1,w
  5308  0177' 009E'              	movwf	??___fladd+1
  5309  0178' 0817'              	movf	___fladd@b+2,w
  5310  0179' 009F'              	movwf	??___fladd+2
  5311  017A' 0818'              	movf	___fladd@b+3,w
  5312  017B' 00A0'              	movwf	??___fladd+3
  5313  017C' 3001               	movlw	1
  5314  017D' 00A1'              	movwf	??___fladd+4
  5315  017E'                    u276_25:
  5316  017E' 37A0'              	asrf	??___fladd+3,f
  5317  017F' 0C9F'              	rrf	??___fladd+2,f
  5318  0180' 0C9E'              	rrf	??___fladd+1,f
  5319  0181' 0C9D'              	rrf	??___fladd,f
  5320  0182' 0BA1'              	decfsz	??___fladd+4,f
  5321  0183' 2800'              	goto	u276_25
  5322  0184' 0820'              	movf	??___fladd+3,w
  5323  0185' 0098'              	movwf	___fladd@b+3
  5324  0186' 081F'              	movf	??___fladd+2,w
  5325  0187' 0097'              	movwf	___fladd@b+2
  5326  0188' 081E'              	movf	??___fladd+1,w
  5327  0189' 0096'              	movwf	___fladd@b+1
  5328  018A' 081D'              	movf	??___fladd,w
  5329  018B' 0095'              	movwf	___fladd@b
  5330  018C' 0A27'              	incf	___fladd@bexp,w
  5331  018D' 1903               	btfsc	3,2
  5332  018E' 2800'              	goto	i1l609
  5333  018F' 3001               	movlw	1
  5334  0190' 009D'              	movwf	??___fladd
  5335  0191' 081D'              	movf	??___fladd,w
  5336  0192' 07A7'              	addwf	___fladd@bexp,f
  5337  0193'                    i1l609:
  5338  0193' 0A27'              	incf	___fladd@bexp,w
  5339  0194' 1D03               	btfss	3,2
  5340  0195' 0827'              	movf	___fladd@bexp,w
  5341  0196' 1D03               	btfss	3,2
  5342  0197' 2800'              	goto	i1l2357
  5343  0198' 3000               	movlw	0
  5344  0199' 0098'              	movwf	___fladd@b+3
  5345  019A' 3000               	movlw	0
  5346  019B' 0097'              	movwf	___fladd@b+2
  5347  019C' 3000               	movlw	0
  5348  019D' 0096'              	movwf	___fladd@b+1
  5349  019E' 3000               	movlw	0
  5350  019F' 0095'              	movwf	___fladd@b
  5351  01A0' 0827'              	movf	___fladd@bexp,w
  5352  01A1' 1903               	btfsc	3,2
  5353  01A2' 01A5'              	clrf	___fladd@signs
  5354  01A3'                    i1l2357:
  5355  01A3' 1C27'              	btfss	___fladd@bexp,0
  5356  01A4' 2800'              	goto	i1l2361
  5357  01A5' 1797'              	bsf	___fladd@b+2,7
  5358  01A6' 2800'              	goto	i1l617
  5359  01A7'                    i1l2361:
  5360  01A7' 307F               	movlw	127
  5361  01A8' 009D'              	movwf	??___fladd
  5362  01A9' 081D'              	movf	??___fladd,w
  5363  01AA' 0597'              	andwf	___fladd@b+2,f
  5364  01AB'                    i1l617:
  5365  01AB' 3627'              	lsrf	___fladd@bexp,w
  5366  01AC' 0098'              	movwf	___fladd@b+3
  5367  01AD' 1FA5'              	btfss	___fladd@signs,7
  5368  01AE' 0008               	return
  5369  01AF' 1798'              	bsf	___fladd@b+3,7
  5370  01B0' 0008               	return
  5371  01B1'                    __end_of___fladd:
  5372                           
  5373                           	psect	text15
  5374  0000'                    __ptext15:	
  5375 ;; *************** function ___flneg *****************
  5376 ;; Defined at:
  5377 ;;		line 15 in file "/opt/microchip/xc8/v2.45/pic/sources/c99/common/flneg.c"
  5378 ;; Parameters:    Size  Location     Type
  5379 ;;  f1              4    0[COMMON] unsigned char 
  5380 ;; Auto vars:     Size  Location     Type
  5381 ;;		None
  5382 ;; Return value:  Size  Location     Type
  5383 ;;                  4    0[COMMON] unsigned char 
  5384 ;; Registers used:
  5385 ;;		wreg
  5386 ;; Tracked objects:
  5387 ;;		On entry : 1D/1
  5388 ;;		On exit  : 1D/1
  5389 ;;		Unchanged: 1D/0
  5390 ;; Data sizes:     COMMON   BANK0   BANK1   BANK2   BANK3   BANK4   BANK5   BANK6   BANK7   BANK8   BANK9  BANK10  BANK1
      +1  BANK12
  5391 ;;      Params:         4       0       0       0       0       0       0       0       0       0       0       0       
      +0       0
  5392 ;;      Locals:         0       0       0       0       0       0       0       0       0       0       0       0       
      +0       0
  5393 ;;      Temps:          0       0       0       0       0       0       0       0       0       0       0       0       
      +0       0
  5394 ;;      Totals:         4       0       0       0       0       0       0       0       0       0       0       0       
      +0       0
  5395 ;;Total ram usage:        4 bytes
  5396 ;; Hardware stack levels used: 1
  5397 ;; This function calls:
  5398 ;;		Nothing
  5399 ;; This function is called by:
  5400 ;;		_powf
  5401 ;; This function uses a non-reentrant model
  5402 ;;
  5403                           
  5404  0000'                    ___flneg:	
  5405                           ;psect for function ___flneg
  5406                           
  5407                           
  5408                           ;incstack = 0
  5409                           ; Regs used in ___flneg: [wreg]
  5410  0000' 0803'              	movf	___flneg@f1+3,w
  5411  0001' 0402'              	iorwf	___flneg@f1+2,w
  5412  0002' 0401'              	iorwf	___flneg@f1+1,w
  5413  0003' 0400'              	iorwf	___flneg@f1,w
  5414  0004' 1903               	skipnz
  5415  0005' 0008               	return
  5416  0006' 3080               	movlw	128
  5417  0007' 0683'              	xorwf	___flneg@f1+3,f
  5418  0008' 0008               	return
  5419  0009'                    __end_of___flneg:
  5420                           
  5421                           	psect	text16
  5422  0000'                    __ptext16:	
  5423 ;; *************** function ___flge *****************
  5424 ;; Defined at:
  5425 ;;		line 4 in file "/opt/microchip/xc8/v2.45/pic/sources/c99/common/flge.c"
  5426 ;; Parameters:    Size  Location     Type
  5427 ;;  ff1             4    0[BANK1 ] unsigned char 
  5428 ;;  ff2             4    4[BANK1 ] unsigned char 
  5429 ;; Auto vars:     Size  Location     Type
  5430 ;;		None
  5431 ;; Return value:  Size  Location     Type
  5432 ;;		None               void
  5433 ;; Registers used:
  5434 ;;		wreg, status,2, status,0
  5435 ;; Tracked objects:
  5436 ;;		On entry : 1F/1
  5437 ;;		On exit  : 1F/1
  5438 ;;		Unchanged: 0/0
  5439 ;; Data sizes:     COMMON   BANK0   BANK1   BANK2   BANK3   BANK4   BANK5   BANK6   BANK7   BANK8   BANK9  BANK10  BANK1
      +1  BANK12
  5440 ;;      Params:         0       0       8       0       0       0       0       0       0       0       0       0       
      +0       0
  5441 ;;      Locals:         0       0       0       0       0       0       0       0       0       0       0       0       
      +0       0
  5442 ;;      Temps:          0       4       0       0       0       0       0       0       0       0       0       0       
      +0       0
  5443 ;;      Totals:         0       4       8       0       0       0       0       0       0       0       0       0       
      +0       0
  5444 ;;Total ram usage:       12 bytes
  5445 ;; Hardware stack levels used: 1
  5446 ;; This function calls:
  5447 ;;		Nothing
  5448 ;; This function is called by:
  5449 ;;		_powf
  5450 ;; This function uses a non-reentrant model
  5451 ;;
  5452                           
  5453  0000'                    ___flge:	
  5454                           ;psect for function ___flge
  5455                           
  5456                           
  5457                           ;incstack = 0
  5458                           ; Regs used in ___flge: [wreg+status,2+status,0]
  5459  0000' 3000               	movlw	0
  5460  0001' 0500'              	andwf	___flge@ff1^(0+128),w
  5461  0002' 0020               	movlb	0	; select bank0
  5462  0003' 00CB'              	movwf	??___flge
  5463  0004' 3000               	movlw	0
  5464  0005' 0021               	movlb	1	; select bank1
  5465  0006' 0500'              	andwf	(___flge@ff1+1)^(0+128),w
  5466  0007' 0020               	movlb	0	; select bank0
  5467  0008' 00CC'              	movwf	??___flge+1
  5468  0009' 3080               	movlw	128
  5469  000A' 0021               	movlb	1	; select bank1
  5470  000B' 0500'              	andwf	(___flge@ff1+2)^(0+128),w
  5471  000C' 0020               	movlb	0	; select bank0
  5472  000D' 00CD'              	movwf	??___flge+2
  5473  000E' 307F               	movlw	127
  5474  000F' 0021               	movlb	1	; select bank1
  5475  0010' 0500'              	andwf	(___flge@ff1+3)^(0+128),w
  5476  0011' 0020               	movlb	0	; select bank0
  5477  0012' 00CE'              	movwf	??___flge+3
  5478  0013' 084E'              	movf	??___flge+3,w
  5479  0014' 044D'              	iorwf	??___flge+2,w
  5480  0015' 044C'              	iorwf	??___flge+1,w
  5481  0016' 044B'              	iorwf	??___flge,w
  5482  0017' 1D03               	skipz
  5483  0018' 2800'              	goto	i1l452
  5484  0019' 3000               	movlw	0
  5485  001A' 0021               	movlb	1	; select bank1
  5486  001B' 0080'              	movwf	(___flge@ff1+3)^(0+128)
  5487  001C' 3000               	movlw	0
  5488  001D' 0080'              	movwf	(___flge@ff1+2)^(0+128)
  5489  001E' 3000               	movlw	0
  5490  001F' 0080'              	movwf	(___flge@ff1+1)^(0+128)
  5491  0020' 3000               	movlw	0
  5492  0021' 0080'              	movwf	___flge@ff1^(0+128)
  5493  0022'                    i1l452:
  5494  0022' 3000               	movlw	0
  5495  0023' 0021               	movlb	1	; select bank1
  5496  0024' 0500'              	andwf	___flge@ff2^(0+128),w
  5497  0025' 0020               	movlb	0	; select bank0
  5498  0026' 00CB'              	movwf	??___flge
  5499  0027' 3000               	movlw	0
  5500  0028' 0021               	movlb	1	; select bank1
  5501  0029' 0500'              	andwf	(___flge@ff2+1)^(0+128),w
  5502  002A' 0020               	movlb	0	; select bank0
  5503  002B' 00CC'              	movwf	??___flge+1
  5504  002C' 3080               	movlw	128
  5505  002D' 0021               	movlb	1	; select bank1
  5506  002E' 0500'              	andwf	(___flge@ff2+2)^(0+128),w
  5507  002F' 0020               	movlb	0	; select bank0
  5508  0030' 00CD'              	movwf	??___flge+2
  5509  0031' 307F               	movlw	127
  5510  0032' 0021               	movlb	1	; select bank1
  5511  0033' 0500'              	andwf	(___flge@ff2+3)^(0+128),w
  5512  0034' 0020               	movlb	0	; select bank0
  5513  0035' 00CE'              	movwf	??___flge+3
  5514  0036' 084E'              	movf	??___flge+3,w
  5515  0037' 044D'              	iorwf	??___flge+2,w
  5516  0038' 044C'              	iorwf	??___flge+1,w
  5517  0039' 044B'              	iorwf	??___flge,w
  5518  003A' 1D03               	skipz
  5519  003B' 2800'              	goto	i1l2513
  5520  003C' 3000               	movlw	0
  5521  003D' 0021               	movlb	1	; select bank1
  5522  003E' 0080'              	movwf	(___flge@ff2+3)^(0+128)
  5523  003F' 3000               	movlw	0
  5524  0040' 0080'              	movwf	(___flge@ff2+2)^(0+128)
  5525  0041' 3000               	movlw	0
  5526  0042' 0080'              	movwf	(___flge@ff2+1)^(0+128)
  5527  0043' 3000               	movlw	0
  5528  0044' 0080'              	movwf	___flge@ff2^(0+128)
  5529  0045'                    i1l2513:
  5530  0045' 0021               	movlb	1	; select bank1
  5531  0046' 1F80'              	btfss	(___flge@ff1+3)^(0+128),7
  5532  0047' 2800'              	goto	i1l2517
  5533  0048' 3000               	movlw	0
  5534  0049' 0020               	movlb	0	; select bank0
  5535  004A' 00CB'              	movwf	??___flge
  5536  004B' 3000               	movlw	0
  5537  004C' 00CC'              	movwf	??___flge+1
  5538  004D' 3000               	movlw	0
  5539  004E' 00CD'              	movwf	??___flge+2
  5540  004F' 3080               	movlw	128
  5541  0050' 00CE'              	movwf	??___flge+3
  5542  0051' 0021               	movlb	1	; select bank1
  5543  0052' 0800'              	movf	___flge@ff1^(0+128),w
  5544  0053' 0020               	movlb	0	; select bank0
  5545  0054' 02CB'              	subwf	??___flge,f
  5546  0055' 0021               	movlb	1	; select bank1
  5547  0056' 0800'              	movf	(___flge@ff1+1)^(0+128),w
  5548  0057' 0020               	movlb	0	; select bank0
  5549  0058' 3BCC'              	subwfb	??___flge+1,f
  5550  0059' 0021               	movlb	1	; select bank1
  5551  005A' 0800'              	movf	(___flge@ff1+2)^(0+128),w
  5552  005B' 0020               	movlb	0	; select bank0
  5553  005C' 3BCD'              	subwfb	??___flge+2,f
  5554  005D' 0021               	movlb	1	; select bank1
  5555  005E' 0800'              	movf	(___flge@ff1+3)^(0+128),w
  5556  005F' 0020               	movlb	0	; select bank0
  5557  0060' 3BCE'              	subwfb	??___flge+3,f
  5558  0061' 084E'              	movf	??___flge+3,w
  5559  0062' 0021               	movlb	1	; select bank1
  5560  0063' 0080'              	movwf	(___flge@ff1+3)^(0+128)
  5561  0064' 0020               	movlb	0	; select bank0
  5562  0065' 084D'              	movf	??___flge+2,w
  5563  0066' 0021               	movlb	1	; select bank1
  5564  0067' 0080'              	movwf	(___flge@ff1+2)^(0+128)
  5565  0068' 0020               	movlb	0	; select bank0
  5566  0069' 084C'              	movf	??___flge+1,w
  5567  006A' 0021               	movlb	1	; select bank1
  5568  006B' 0080'              	movwf	(___flge@ff1+1)^(0+128)
  5569  006C' 0020               	movlb	0	; select bank0
  5570  006D' 084B'              	movf	??___flge,w
  5571  006E' 0021               	movlb	1	; select bank1
  5572  006F' 0080'              	movwf	___flge@ff1^(0+128)
  5573  0070'                    i1l2517:
  5574  0070' 1F80'              	btfss	(___flge@ff2+3)^(0+128),7
  5575  0071' 2800'              	goto	i1l455
  5576  0072' 3000               	movlw	0
  5577  0073' 0020               	movlb	0	; select bank0
  5578  0074' 00CB'              	movwf	??___flge
  5579  0075' 3000               	movlw	0
  5580  0076' 00CC'              	movwf	??___flge+1
  5581  0077' 3000               	movlw	0
  5582  0078' 00CD'              	movwf	??___flge+2
  5583  0079' 3080               	movlw	128
  5584  007A' 00CE'              	movwf	??___flge+3
  5585  007B' 0021               	movlb	1	; select bank1
  5586  007C' 0800'              	movf	___flge@ff2^(0+128),w
  5587  007D' 0020               	movlb	0	; select bank0
  5588  007E' 02CB'              	subwf	??___flge,f
  5589  007F' 0021               	movlb	1	; select bank1
  5590  0080' 0800'              	movf	(___flge@ff2+1)^(0+128),w
  5591  0081' 0020               	movlb	0	; select bank0
  5592  0082' 3BCC'              	subwfb	??___flge+1,f
  5593  0083' 0021               	movlb	1	; select bank1
  5594  0084' 0800'              	movf	(___flge@ff2+2)^(0+128),w
  5595  0085' 0020               	movlb	0	; select bank0
  5596  0086' 3BCD'              	subwfb	??___flge+2,f
  5597  0087' 0021               	movlb	1	; select bank1
  5598  0088' 0800'              	movf	(___flge@ff2+3)^(0+128),w
  5599  0089' 0020               	movlb	0	; select bank0
  5600  008A' 3BCE'              	subwfb	??___flge+3,f
  5601  008B' 084E'              	movf	??___flge+3,w
  5602  008C' 0021               	movlb	1	; select bank1
  5603  008D' 0080'              	movwf	(___flge@ff2+3)^(0+128)
  5604  008E' 0020               	movlb	0	; select bank0
  5605  008F' 084D'              	movf	??___flge+2,w
  5606  0090' 0021               	movlb	1	; select bank1
  5607  0091' 0080'              	movwf	(___flge@ff2+2)^(0+128)
  5608  0092' 0020               	movlb	0	; select bank0
  5609  0093' 084C'              	movf	??___flge+1,w
  5610  0094' 0021               	movlb	1	; select bank1
  5611  0095' 0080'              	movwf	(___flge@ff2+1)^(0+128)
  5612  0096' 0020               	movlb	0	; select bank0
  5613  0097' 084B'              	movf	??___flge,w
  5614  0098' 0021               	movlb	1	; select bank1
  5615  0099' 0080'              	movwf	___flge@ff2^(0+128)
  5616  009A'                    i1l455:
  5617  009A' 3080               	movlw	128
  5618  009B' 0680'              	xorwf	(___flge@ff1+3)^(0+128),f
  5619  009C' 3080               	movlw	128
  5620  009D' 0680'              	xorwf	(___flge@ff2+3)^(0+128),f
  5621  009E' 0800'              	movf	(___flge@ff2+3)^(0+128),w
  5622  009F' 0200'              	subwf	(___flge@ff1+3)^(0+128),w
  5623  00A0' 1D03               	skipz
  5624  00A1' 0008               	return
  5625  00A2' 0800'              	movf	(___flge@ff2+2)^(0+128),w
  5626  00A3' 0200'              	subwf	(___flge@ff1+2)^(0+128),w
  5627  00A4' 1D03               	skipz
  5628  00A5' 0008               	return
  5629  00A6' 0800'              	movf	(___flge@ff2+1)^(0+128),w
  5630  00A7' 0200'              	subwf	(___flge@ff1+1)^(0+128),w
  5631  00A8' 1D03               	skipz
  5632  00A9' 0008               	return
  5633  00AA' 0800'              	movf	___flge@ff2^(0+128),w
  5634  00AB' 0200'              	subwf	___flge@ff1^(0+128),w
  5635  00AC' 0008               	return
  5636  00AD'                    __end_of___flge:
  5637                           
  5638                           	psect	text17
  5639  0000'                    __ptext17:	
  5640 ;; *************** function ___fldiv *****************
  5641 ;; Defined at:
  5642 ;;		line 8 in file "/opt/microchip/xc8/v2.45/pic/sources/c99/common/sprcdiv.c"
  5643 ;; Parameters:    Size  Location     Type
  5644 ;;  a               4   41[BANK0 ] unsigned char 
  5645 ;;  b               4   45[BANK0 ] unsigned char 
  5646 ;; Auto vars:     Size  Location     Type
  5647 ;;  grs             4   61[BANK0 ] unsigned long 
  5648 ;;  rem             4   54[BANK0 ] unsigned long 
  5649 ;;  new_exp         2   59[BANK0 ] short 
  5650 ;;  aexp            1   66[BANK0 ] unsigned char 
  5651 ;;  bexp            1   65[BANK0 ] unsigned char 
  5652 ;;  sign            1   58[BANK0 ] unsigned char 
  5653 ;; Return value:  Size  Location     Type
  5654 ;;                  4   41[BANK0 ] unsigned char 
  5655 ;; Registers used:
  5656 ;;		wreg, status,2, status,0
  5657 ;; Tracked objects:
  5658 ;;		On entry : 1F/0
  5659 ;;		On exit  : 1F/0
  5660 ;;		Unchanged: 0/0
  5661 ;; Data sizes:     COMMON   BANK0   BANK1   BANK2   BANK3   BANK4   BANK5   BANK6   BANK7   BANK8   BANK9  BANK10  BANK1
      +1  BANK12
  5662 ;;      Params:         0       8       0       0       0       0       0       0       0       0       0       0       
      +0       0
  5663 ;;      Locals:         0      13       0       0       0       0       0       0       0       0       0       0       
      +0       0
  5664 ;;      Temps:          0       5       0       0       0       0       0       0       0       0       0       0       
      +0       0
  5665 ;;      Totals:         0      26       0       0       0       0       0       0       0       0       0       0       
      +0       0
  5666 ;;Total ram usage:       26 bytes
  5667 ;; Hardware stack levels used: 1
  5668 ;; This function calls:
  5669 ;;		Nothing
  5670 ;; This function is called by:
  5671 ;;		_timer_calc
  5672 ;;		_powf
  5673 ;; This function uses a non-reentrant model
  5674 ;;
  5675                           
  5676  0000'                    ___fldiv:	
  5677                           ;psect for function ___fldiv
  5678                           
  5679                           
  5680                           ;incstack = 0
  5681                           ; Regs used in ___fldiv: [wreg+status,2+status,0]
  5682  0000' 0830'              	movf	___fldiv@b+3,w
  5683  0001' 3980               	andlw	128
  5684  0002' 00BA'              	movwf	___fldiv@sign
  5685  0003' 3530'              	lslf	___fldiv@b+3,w
  5686  0004' 00C1'              	movwf	___fldiv@bexp
  5687  0005' 1BAF'              	btfsc	___fldiv@b+2,7
  5688  0006' 1441'              	bsf	___fldiv@bexp,0
  5689  0007' 0841'              	movf	___fldiv@bexp,w
  5690  0008' 1903               	btfsc	3,2
  5691  0009' 2800'              	goto	i1l2559
  5692  000A' 0A41'              	incf	___fldiv@bexp,w
  5693  000B' 1D03               	btfss	3,2
  5694  000C' 2800'              	goto	i1l2555
  5695  000D' 3000               	movlw	0
  5696  000E' 00B0'              	movwf	___fldiv@b+3
  5697  000F' 3000               	movlw	0
  5698  0010' 00AF'              	movwf	___fldiv@b+2
  5699  0011' 3000               	movlw	0
  5700  0012' 00AE'              	movwf	___fldiv@b+1
  5701  0013' 3000               	movlw	0
  5702  0014' 00AD'              	movwf	___fldiv@b
  5703  0015'                    i1l2555:
  5704  0015' 17AF'              	bsf	___fldiv@b+2,7
  5705  0016' 01B0'              	clrf	___fldiv@b+3
  5706  0017' 2800'              	goto	i1l2561
  5707  0018'                    i1l2559:
  5708  0018' 3000               	movlw	0
  5709  0019' 00B0'              	movwf	___fldiv@b+3
  5710  001A' 3000               	movlw	0
  5711  001B' 00AF'              	movwf	___fldiv@b+2
  5712  001C' 3000               	movlw	0
  5713  001D' 00AE'              	movwf	___fldiv@b+1
  5714  001E' 3000               	movlw	0
  5715  001F' 00AD'              	movwf	___fldiv@b
  5716  0020'                    i1l2561:
  5717  0020' 082C'              	movf	___fldiv@a+3,w
  5718  0021' 3980               	andlw	128
  5719  0022' 00B1'              	movwf	??___fldiv
  5720  0023' 0831'              	movf	??___fldiv,w
  5721  0024' 06BA'              	xorwf	___fldiv@sign,f
  5722  0025' 352C'              	lslf	___fldiv@a+3,w
  5723  0026' 00C2'              	movwf	___fldiv@aexp
  5724  0027' 1BAB'              	btfsc	___fldiv@a+2,7
  5725  0028' 1442'              	bsf	___fldiv@aexp,0
  5726  0029' 0842'              	movf	___fldiv@aexp,w
  5727  002A' 1903               	btfsc	3,2
  5728  002B' 2800'              	goto	i1l2579
  5729  002C' 0A42'              	incf	___fldiv@aexp,w
  5730  002D' 1D03               	btfss	3,2
  5731  002E' 2800'              	goto	i1l2575
  5732  002F' 3000               	movlw	0
  5733  0030' 00AC'              	movwf	___fldiv@a+3
  5734  0031' 3000               	movlw	0
  5735  0032' 00AB'              	movwf	___fldiv@a+2
  5736  0033' 3000               	movlw	0
  5737  0034' 00AA'              	movwf	___fldiv@a+1
  5738  0035' 3000               	movlw	0
  5739  0036' 00A9'              	movwf	___fldiv@a
  5740  0037'                    i1l2575:
  5741  0037' 17AB'              	bsf	___fldiv@a+2,7
  5742  0038' 01AC'              	clrf	___fldiv@a+3
  5743  0039' 2800'              	goto	i1l631
  5744  003A'                    i1l2579:
  5745  003A' 3000               	movlw	0
  5746  003B' 00AC'              	movwf	___fldiv@a+3
  5747  003C' 3000               	movlw	0
  5748  003D' 00AB'              	movwf	___fldiv@a+2
  5749  003E' 3000               	movlw	0
  5750  003F' 00AA'              	movwf	___fldiv@a+1
  5751  0040' 3000               	movlw	0
  5752  0041' 00A9'              	movwf	___fldiv@a
  5753  0042'                    i1l631:
  5754  0042' 082C'              	movf	___fldiv@a+3,w
  5755  0043' 042B'              	iorwf	___fldiv@a+2,w
  5756  0044' 042A'              	iorwf	___fldiv@a+1,w
  5757  0045' 0429'              	iorwf	___fldiv@a,w
  5758  0046' 1D03               	skipz
  5759  0047' 2800'              	goto	i1l2589
  5760  0048' 3000               	movlw	0
  5761  0049' 00B0'              	movwf	___fldiv@b+3
  5762  004A' 3000               	movlw	0
  5763  004B' 00AF'              	movwf	___fldiv@b+2
  5764  004C' 3000               	movlw	0
  5765  004D' 00AE'              	movwf	___fldiv@b+1
  5766  004E' 3000               	movlw	0
  5767  004F' 00AD'              	movwf	___fldiv@b
  5768  0050' 3080               	movlw	128
  5769  0051' 04AF'              	iorwf	___fldiv@b+2,f
  5770  0052' 307F               	movlw	127
  5771  0053' 04B0'              	iorwf	___fldiv@b+3,f
  5772  0054'                    L10:
  5773  0054' 083A'              	movf	___fldiv@sign,w
  5774  0055' 00B1'              	movwf	??___fldiv
  5775  0056' 0831'              	movf	??___fldiv,w
  5776  0057' 04B0'              	iorwf	___fldiv@b+3,f
  5777  0058' 0830'              	movf	___fldiv@b+3,w
  5778  0059' 00AC'              	movwf	?___fldiv+3
  5779  005A' 082F'              	movf	___fldiv@b+2,w
  5780  005B' 00AB'              	movwf	?___fldiv+2
  5781  005C' 082E'              	movf	___fldiv@b+1,w
  5782  005D' 00AA'              	movwf	?___fldiv+1
  5783  005E' 082D'              	movf	___fldiv@b,w
  5784  005F' 00A9'              	movwf	?___fldiv
  5785  0060' 0008               	return
  5786  0061'                    i1l2589:
  5787  0061' 0841'              	movf	___fldiv@bexp,w
  5788  0062' 1D03               	btfss	3,2
  5789  0063' 2800'              	goto	i1l2595
  5790  0064' 3000               	movlw	0
  5791  0065' 00AC'              	movwf	?___fldiv+3
  5792  0066' 3000               	movlw	0
  5793  0067' 00AB'              	movwf	?___fldiv+2
  5794  0068' 3000               	movlw	0
  5795  0069' 00AA'              	movwf	?___fldiv+1
  5796  006A' 3000               	movlw	0
  5797  006B' 00A9'              	movwf	?___fldiv
  5798  006C' 0008               	return
  5799  006D'                    i1l2595:
  5800  006D' 0841'              	movf	___fldiv@bexp,w
  5801  006E' 00B1'              	movwf	??___fldiv
  5802  006F' 01B2'              	clrf	??___fldiv+1
  5803  0070' 0832'              	movf	??___fldiv+1,w
  5804  0071' 00B4'              	movwf	??___fldiv+3
  5805  0072' 0842'              	movf	___fldiv@aexp,w
  5806  0073' 0231'              	subwf	??___fldiv,w
  5807  0074' 00B3'              	movwf	??___fldiv+2
  5808  0075' 1C03               	skipc
  5809  0076' 03B4'              	decf	??___fldiv+3,f
  5810  0077' 0833'              	movf	??___fldiv+2,w
  5811  0078' 3E7F               	addlw	127
  5812  0079' 00BB'              	movwf	___fldiv@new_exp
  5813  007A' 3000               	movlw	0
  5814  007B' 3D34'              	addwfc	??___fldiv+3,w
  5815  007C' 00BC'              	movwf	___fldiv@new_exp+1
  5816  007D' 0830'              	movf	___fldiv@b+3,w
  5817  007E' 00B9'              	movwf	___fldiv@rem+3
  5818  007F' 082F'              	movf	___fldiv@b+2,w
  5819  0080' 00B8'              	movwf	___fldiv@rem+2
  5820  0081' 082E'              	movf	___fldiv@b+1,w
  5821  0082' 00B7'              	movwf	___fldiv@rem+1
  5822  0083' 082D'              	movf	___fldiv@b,w
  5823  0084' 00B6'              	movwf	___fldiv@rem
  5824  0085' 3000               	movlw	0
  5825  0086' 00B0'              	movwf	___fldiv@b+3
  5826  0087' 3000               	movlw	0
  5827  0088' 00AF'              	movwf	___fldiv@b+2
  5828  0089' 3000               	movlw	0
  5829  008A' 00AE'              	movwf	___fldiv@b+1
  5830  008B' 3000               	movlw	0
  5831  008C' 00AD'              	movwf	___fldiv@b
  5832  008D' 3000               	movlw	0
  5833  008E' 00C0'              	movwf	___fldiv@grs+3
  5834  008F' 3000               	movlw	0
  5835  0090' 00BF'              	movwf	___fldiv@grs+2
  5836  0091' 3000               	movlw	0
  5837  0092' 00BE'              	movwf	___fldiv@grs+1
  5838  0093' 3000               	movlw	0
  5839  0094' 00BD'              	movwf	___fldiv@grs
  5840  0095' 01C2'              	clrf	___fldiv@aexp
  5841  0096'                    i1l2623:
  5842  0096' 301A               	movlw	26
  5843  0097' 0242'              	subwf	___fldiv@aexp,w
  5844  0098' 1803               	btfsc	3,0
  5845  0099' 2800'              	goto	i1l2625
  5846  009A' 0842'              	movf	___fldiv@aexp,w
  5847  009B' 1903               	btfsc	3,2
  5848  009C' 2800'              	goto	i1l2615
  5849  009D' 3001               	movlw	1
  5850  009E'                    u323_25:
  5851  009E' 35B6'              	lslf	___fldiv@rem,f
  5852  009F' 0DB7'              	rlf	___fldiv@rem+1,f
  5853  00A0' 0DB8'              	rlf	___fldiv@rem+2,f
  5854  00A1' 0DB9'              	rlf	___fldiv@rem+3,f
  5855  00A2' 0B89               	decfsz	9,f
  5856  00A3' 2800'              	goto	u323_25
  5857  00A4' 3001               	movlw	1
  5858  00A5'                    u324_25:
  5859  00A5' 35AD'              	lslf	___fldiv@b,f
  5860  00A6' 0DAE'              	rlf	___fldiv@b+1,f
  5861  00A7' 0DAF'              	rlf	___fldiv@b+2,f
  5862  00A8' 0DB0'              	rlf	___fldiv@b+3,f
  5863  00A9' 0B89               	decfsz	9,f
  5864  00AA' 2800'              	goto	u324_25
  5865  00AB' 1BC0'              	btfsc	___fldiv@grs+3,7
  5866  00AC' 142D'              	bsf	___fldiv@b,0
  5867  00AD' 3001               	movlw	1
  5868  00AE'                    u326_25:
  5869  00AE' 35BD'              	lslf	___fldiv@grs,f
  5870  00AF' 0DBE'              	rlf	___fldiv@grs+1,f
  5871  00B0' 0DBF'              	rlf	___fldiv@grs+2,f
  5872  00B1' 0DC0'              	rlf	___fldiv@grs+3,f
  5873  00B2' 0B89               	decfsz	9,f
  5874  00B3' 2800'              	goto	u326_25
  5875  00B4'                    i1l2615:
  5876  00B4' 082C'              	movf	___fldiv@a+3,w
  5877  00B5' 0239'              	subwf	___fldiv@rem+3,w
  5878  00B6' 1D03               	skipz
  5879  00B7' 2800'              	goto	u327_25
  5880  00B8' 082B'              	movf	___fldiv@a+2,w
  5881  00B9' 0238'              	subwf	___fldiv@rem+2,w
  5882  00BA' 1D03               	skipz
  5883  00BB' 2800'              	goto	u327_25
  5884  00BC' 082A'              	movf	___fldiv@a+1,w
  5885  00BD' 0237'              	subwf	___fldiv@rem+1,w
  5886  00BE' 1D03               	skipz
  5887  00BF' 2800'              	goto	u327_25
  5888  00C0' 0829'              	movf	___fldiv@a,w
  5889  00C1' 0236'              	subwf	___fldiv@rem,w
  5890  00C2'                    u327_25:
  5891  00C2' 1C03               	skipc
  5892  00C3' 2800'              	goto	i1l2621
  5893  00C4' 1740'              	bsf	___fldiv@grs+3,6
  5894  00C5' 0829'              	movf	___fldiv@a,w
  5895  00C6' 02B6'              	subwf	___fldiv@rem,f
  5896  00C7' 082A'              	movf	___fldiv@a+1,w
  5897  00C8' 3BB7'              	subwfb	___fldiv@rem+1,f
  5898  00C9' 082B'              	movf	___fldiv@a+2,w
  5899  00CA' 3BB8'              	subwfb	___fldiv@rem+2,f
  5900  00CB' 082C'              	movf	___fldiv@a+3,w
  5901  00CC' 3BB9'              	subwfb	___fldiv@rem+3,f
  5902  00CD'                    i1l2621:
  5903  00CD' 3001               	movlw	1
  5904  00CE' 00B1'              	movwf	??___fldiv
  5905  00CF' 0831'              	movf	??___fldiv,w
  5906  00D0' 07C2'              	addwf	___fldiv@aexp,f
  5907  00D1' 2800'              	goto	i1l2623
  5908  00D2'                    i1l2625:
  5909  00D2' 0839'              	movf	___fldiv@rem+3,w
  5910  00D3' 0438'              	iorwf	___fldiv@rem+2,w
  5911  00D4' 0437'              	iorwf	___fldiv@rem+1,w
  5912  00D5' 0436'              	iorwf	___fldiv@rem,w
  5913  00D6' 1D03               	btfss	3,2
  5914  00D7' 143D'              	bsf	___fldiv@grs,0
  5915  00D8'                    i1l2639:
  5916  00D8' 1BAF'              	btfsc	___fldiv@b+2,7
  5917  00D9' 2800'              	goto	i1l2641
  5918  00DA' 3001               	movlw	1
  5919  00DB'                    u330_25:
  5920  00DB' 35AD'              	lslf	___fldiv@b,f
  5921  00DC' 0DAE'              	rlf	___fldiv@b+1,f
  5922  00DD' 0DAF'              	rlf	___fldiv@b+2,f
  5923  00DE' 0DB0'              	rlf	___fldiv@b+3,f
  5924  00DF' 0B89               	decfsz	9,f
  5925  00E0' 2800'              	goto	u330_25
  5926  00E1' 1BC0'              	btfsc	___fldiv@grs+3,7
  5927  00E2' 142D'              	bsf	___fldiv@b,0
  5928  00E3' 3001               	movlw	1
  5929  00E4'                    u332_25:
  5930  00E4' 35BD'              	lslf	___fldiv@grs,f
  5931  00E5' 0DBE'              	rlf	___fldiv@grs+1,f
  5932  00E6' 0DBF'              	rlf	___fldiv@grs+2,f
  5933  00E7' 0DC0'              	rlf	___fldiv@grs+3,f
  5934  00E8' 0B89               	decfsz	9,f
  5935  00E9' 2800'              	goto	u332_25
  5936  00EA' 30FF               	movlw	255
  5937  00EB' 07BB'              	addwf	___fldiv@new_exp,f
  5938  00EC' 30FF               	movlw	255
  5939  00ED' 3DBC'              	addwfc	___fldiv@new_exp+1,f
  5940  00EE' 2800'              	goto	i1l2639
  5941  00EF'                    i1l2641:
  5942  00EF' 01C2'              	clrf	___fldiv@aexp
  5943  00F0' 1FC0'              	btfss	___fldiv@grs+3,7
  5944  00F1' 2800'              	goto	i1l2651
  5945  00F2' 30FF               	movlw	255
  5946  00F3' 053D'              	andwf	___fldiv@grs,w
  5947  00F4' 00B1'              	movwf	??___fldiv
  5948  00F5' 30FF               	movlw	255
  5949  00F6' 053E'              	andwf	___fldiv@grs+1,w
  5950  00F7' 00B2'              	movwf	??___fldiv+1
  5951  00F8' 30FF               	movlw	255
  5952  00F9' 053F'              	andwf	___fldiv@grs+2,w
  5953  00FA' 00B3'              	movwf	??___fldiv+2
  5954  00FB' 307F               	movlw	127
  5955  00FC' 0540'              	andwf	___fldiv@grs+3,w
  5956  00FD' 00B4'              	movwf	??___fldiv+3
  5957  00FE' 0834'              	movf	??___fldiv+3,w
  5958  00FF' 0433'              	iorwf	??___fldiv+2,w
  5959  0100' 0432'              	iorwf	??___fldiv+1,w
  5960  0101' 0431'              	iorwf	??___fldiv,w
  5961  0102' 1903               	skipnz
  5962  0103' 182D'              	btfsc	___fldiv@b,0
  5963  0104' 2800'              	goto	i1l2647
  5964  0105' 2800'              	goto	i1l2651
  5965  0106'                    i1l2647:
  5966  0106' 01C2'              	clrf	___fldiv@aexp
  5967  0107' 0AC2'              	incf	___fldiv@aexp,f
  5968  0108'                    i1l2651:
  5969  0108' 0842'              	movf	___fldiv@aexp,w
  5970  0109' 1903               	btfsc	3,2
  5971  010A' 2800'              	goto	i1l2661
  5972  010B' 3001               	movlw	1
  5973  010C' 07AD'              	addwf	___fldiv@b,f
  5974  010D' 3000               	movlw	0
  5975  010E' 3DAE'              	addwfc	___fldiv@b+1,f
  5976  010F' 3000               	movlw	0
  5977  0110' 3DAF'              	addwfc	___fldiv@b+2,f
  5978  0111' 3000               	movlw	0
  5979  0112' 3DB0'              	addwfc	___fldiv@b+3,f
  5980  0113' 1C30'              	btfss	___fldiv@b+3,0
  5981  0114' 2800'              	goto	i1l2661
  5982  0115' 082D'              	movf	___fldiv@b,w
  5983  0116' 00B1'              	movwf	??___fldiv
  5984  0117' 082E'              	movf	___fldiv@b+1,w
  5985  0118' 00B2'              	movwf	??___fldiv+1
  5986  0119' 082F'              	movf	___fldiv@b+2,w
  5987  011A' 00B3'              	movwf	??___fldiv+2
  5988  011B' 0830'              	movf	___fldiv@b+3,w
  5989  011C' 00B4'              	movwf	??___fldiv+3
  5990  011D' 3001               	movlw	1
  5991  011E' 00B5'              	movwf	??___fldiv+4
  5992  011F'                    u339_25:
  5993  011F' 37B4'              	asrf	??___fldiv+3,f
  5994  0120' 0CB3'              	rrf	??___fldiv+2,f
  5995  0121' 0CB2'              	rrf	??___fldiv+1,f
  5996  0122' 0CB1'              	rrf	??___fldiv,f
  5997  0123' 0BB5'              	decfsz	??___fldiv+4,f
  5998  0124' 2800'              	goto	u339_25
  5999  0125' 0834'              	movf	??___fldiv+3,w
  6000  0126' 00B0'              	movwf	___fldiv@b+3
  6001  0127' 0833'              	movf	??___fldiv+2,w
  6002  0128' 00AF'              	movwf	___fldiv@b+2
  6003  0129' 0832'              	movf	??___fldiv+1,w
  6004  012A' 00AE'              	movwf	___fldiv@b+1
  6005  012B' 0831'              	movf	??___fldiv,w
  6006  012C' 00AD'              	movwf	___fldiv@b
  6007  012D' 3001               	movlw	1
  6008  012E' 07BB'              	addwf	___fldiv@new_exp,f
  6009  012F' 3000               	movlw	0
  6010  0130' 3DBC'              	addwfc	___fldiv@new_exp+1,f
  6011  0131'                    i1l2661:
  6012  0131' 083C'              	movf	___fldiv@new_exp+1,w
  6013  0132' 3A80               	xorlw	128
  6014  0133' 00B1'              	movwf	??___fldiv
  6015  0134' 3080               	movlw	128
  6016  0135' 0231'              	subwf	??___fldiv,w
  6017  0136' 1D03               	skipz
  6018  0137' 2800'              	goto	u340_25
  6019  0138' 30FF               	movlw	255
  6020  0139' 023B'              	subwf	___fldiv@new_exp,w
  6021  013A'                    u340_25:
  6022  013A' 1C03               	skipc
  6023  013B' 2800'              	goto	i1l652
  6024  013C' 30FF               	movlw	255
  6025  013D' 0020               	movlb	0	; select bank0
  6026  013E' 00BB'              	movwf	___fldiv@new_exp
  6027  013F' 3000               	movlw	0
  6028  0140' 00BC'              	movwf	___fldiv@new_exp+1
  6029  0141' 3000               	movlw	0
  6030  0142' 00B0'              	movwf	___fldiv@b+3
  6031  0143' 3000               	movlw	0
  6032  0144' 00AF'              	movwf	___fldiv@b+2
  6033  0145' 3000               	movlw	0
  6034  0146' 00AE'              	movwf	___fldiv@b+1
  6035  0147' 3000               	movlw	0
  6036  0148' 00AD'              	movwf	___fldiv@b
  6037  0149'                    i1l652:
  6038  0149' 0020               	movlb	0	; select bank0
  6039  014A' 083C'              	movf	___fldiv@new_exp+1,w
  6040  014B' 3A80               	xorlw	128
  6041  014C' 00B1'              	movwf	??___fldiv
  6042  014D' 3080               	movlw	128
  6043  014E' 0231'              	subwf	??___fldiv,w
  6044  014F' 1D03               	skipz
  6045  0150' 2800'              	goto	u341_25
  6046  0151' 3001               	movlw	1
  6047  0152' 023B'              	subwf	___fldiv@new_exp,w
  6048  0153'                    u341_25:
  6049  0153' 1803               	skipnc
  6050  0154' 2800'              	goto	i1l653
  6051  0155' 0020               	movlb	0	; select bank0
  6052  0156' 01BB'              	clrf	___fldiv@new_exp
  6053  0157' 01BC'              	clrf	___fldiv@new_exp+1
  6054  0158' 3000               	movlw	0
  6055  0159' 00B0'              	movwf	___fldiv@b+3
  6056  015A' 3000               	movlw	0
  6057  015B' 00AF'              	movwf	___fldiv@b+2
  6058  015C' 3000               	movlw	0
  6059  015D' 00AE'              	movwf	___fldiv@b+1
  6060  015E' 3000               	movlw	0
  6061  015F' 00AD'              	movwf	___fldiv@b
  6062  0160' 01BA'              	clrf	___fldiv@sign
  6063  0161'                    i1l653:
  6064  0161' 0020               	movlb	0	; select bank0
  6065  0162' 083B'              	movf	___fldiv@new_exp,w
  6066  0163' 00C1'              	movwf	___fldiv@bexp
  6067  0164' 1C41'              	btfss	___fldiv@bexp,0
  6068  0165' 2800'              	goto	i1l2675
  6069  0166' 17AF'              	bsf	___fldiv@b+2,7
  6070  0167' 2800'              	goto	i1l655
  6071  0168'                    i1l2675:
  6072  0168' 307F               	movlw	127
  6073  0169' 00B1'              	movwf	??___fldiv
  6074  016A' 0831'              	movf	??___fldiv,w
  6075  016B' 05AF'              	andwf	___fldiv@b+2,f
  6076  016C'                    i1l655:
  6077  016C' 3641'              	lsrf	___fldiv@bexp,w
  6078  016D' 00B0'              	movwf	___fldiv@b+3
  6079  016E' 2800'              	goto	L10
  6080  016F'                    __end_of___fldiv:
  6081                           
  6082                           	psect	text18
  6083  0000'                    __ptext18:	
  6084 ;; *************** function ___fltol *****************
  6085 ;; Defined at:
  6086 ;;		line 43 in file "/opt/microchip/xc8/v2.45/pic/sources/c99/common/fltol.c"
  6087 ;; Parameters:    Size  Location     Type
  6088 ;;  f1              4    0[COMMON] unsigned char 
  6089 ;; Auto vars:     Size  Location     Type
  6090 ;;  exp1            1    9[COMMON] unsigned char 
  6091 ;;  sign1           1    8[COMMON] unsigned char 
  6092 ;; Return value:  Size  Location     Type
  6093 ;;                  4    0[COMMON] long 
  6094 ;; Registers used:
  6095 ;;		wreg, status,2, status,0
  6096 ;; Tracked objects:
  6097 ;;		On entry : 1F/3
  6098 ;;		On exit  : 1F/3
  6099 ;;		Unchanged: 1E/0
  6100 ;; Data sizes:     COMMON   BANK0   BANK1   BANK2   BANK3   BANK4   BANK5   BANK6   BANK7   BANK8   BANK9  BANK10  BANK1
      +1  BANK12
  6101 ;;      Params:         4       0       0       0       0       0       0       0       0       0       0       0       
      +0       0
  6102 ;;      Locals:         2       0       0       0       0       0       0       0       0       0       0       0       
      +0       0
  6103 ;;      Temps:          4       0       0       0       0       0       0       0       0       0       0       0       
      +0       0
  6104 ;;      Totals:        10       0       0       0       0       0       0       0       0       0       0       0       
      +0       0
  6105 ;;Total ram usage:       10 bytes
  6106 ;; Hardware stack levels used: 1
  6107 ;; This function calls:
  6108 ;;		Nothing
  6109 ;; This function is called by:
  6110 ;;		_isr
  6111 ;; This function uses a non-reentrant model
  6112 ;;
  6113                           
  6114  0000'                    ___fltol:	
  6115                           ;psect for function ___fltol
  6116                           
  6117                           
  6118                           ;incstack = 0
  6119                           ; Regs used in ___fltol: [wreg+status,2+status,0]
  6120  0000' 1003               	clrc
  6121  0001' 0D02'              	rlf	___fltol@f1+2,w
  6122  0002' 0D03'              	rlf	___fltol@f1+3,w
  6123  0003' 0089'              	movwf	___fltol@exp1
  6124  0004' 0809'              	movf	___fltol@exp1,w
  6125  0005' 1D03               	btfss	3,2
  6126  0006' 2800'              	goto	i1l3277
  6127  0007'                    i1l3273:
  6128  0007' 3000               	movlw	0
  6129  0008' 0083'              	movwf	?___fltol+3
  6130  0009' 3000               	movlw	0
  6131  000A' 0082'              	movwf	?___fltol+2
  6132  000B' 3000               	movlw	0
  6133  000C' 0081'              	movwf	?___fltol+1
  6134  000D' 3000               	movlw	0
  6135  000E' 0080'              	movwf	?___fltol
  6136  000F' 0008               	return
  6137  0010'                    i1l3277:
  6138  0010' 0800'              	movf	___fltol@f1,w
  6139  0011' 0084'              	movwf	??___fltol
  6140  0012' 0801'              	movf	___fltol@f1+1,w
  6141  0013' 0085'              	movwf	??___fltol+1
  6142  0014' 0802'              	movf	___fltol@f1+2,w
  6143  0015' 0086'              	movwf	??___fltol+2
  6144  0016' 0803'              	movf	___fltol@f1+3,w
  6145  0017' 0087'              	movwf	??___fltol+3
  6146  0018' 301F               	movlw	31
  6147  0019'                    u445_25:
  6148  0019' 3687'              	lsrf	??___fltol+3,f
  6149  001A' 0C86'              	rrf	??___fltol+2,f
  6150  001B' 0C85'              	rrf	??___fltol+1,f
  6151  001C' 0C84'              	rrf	??___fltol,f
  6152  001D' 0B89               	decfsz	9,f
  6153  001E' 2800'              	goto	u445_25
  6154  001F' 0804'              	movf	??___fltol,w
  6155  0020' 0088'              	movwf	___fltol@sign1
  6156  0021' 1782'              	bsf	___fltol@f1+2,7
  6157  0022' 30FF               	movlw	255
  6158  0023' 0580'              	andwf	___fltol@f1,f
  6159  0024' 30FF               	movlw	255
  6160  0025' 0581'              	andwf	___fltol@f1+1,f
  6161  0026' 30FF               	movlw	255
  6162  0027' 0582'              	andwf	___fltol@f1+2,f
  6163  0028' 3000               	movlw	0
  6164  0029' 0583'              	andwf	___fltol@f1+3,f
  6165  002A' 3096               	movlw	150
  6166  002B' 0289'              	subwf	___fltol@exp1,f
  6167  002C' 1F89'              	btfss	___fltol@exp1,7
  6168  002D' 2800'              	goto	i1l3295
  6169  002E' 0809'              	movf	___fltol@exp1,w
  6170  002F' 3A80               	xorlw	128
  6171  0030' 3E97               	addlw	151
  6172  0031' 1C03               	btfss	3,0
  6173  0032' 2800'              	goto	i1l3273
  6174  0033'                    i1l3293:
  6175  0033' 3001               	movlw	1
  6176  0034'                    u448_25:
  6177  0034' 3683'              	lsrf	___fltol@f1+3,f
  6178  0035' 0C82'              	rrf	___fltol@f1+2,f
  6179  0036' 0C81'              	rrf	___fltol@f1+1,f
  6180  0037' 0C80'              	rrf	___fltol@f1,f
  6181  0038' 0B89               	decfsz	9,f
  6182  0039' 2800'              	goto	u448_25
  6183  003A' 3001               	movlw	1
  6184  003B' 0084'              	movwf	??___fltol
  6185  003C' 0804'              	movf	??___fltol,w
  6186  003D' 0789'              	addwf	___fltol@exp1,f
  6187  003E' 1903               	btfsc	3,2
  6188  003F' 2800'              	goto	i1l3303
  6189  0040' 2800'              	goto	i1l3293
  6190  0041'                    i1l3295:
  6191  0041' 3020               	movlw	32
  6192  0042' 0209'              	subwf	___fltol@exp1,w
  6193  0043' 1803               	btfsc	3,0
  6194  0044' 2800'              	goto	i1l3273
  6195  0045'                    i1l475:
  6196  0045' 0809'              	movf	___fltol@exp1,w
  6197  0046' 1903               	btfsc	3,2
  6198  0047' 2800'              	goto	i1l3303
  6199  0048' 3001               	movlw	1
  6200  0049'                    u451_25:
  6201  0049' 3580'              	lslf	___fltol@f1,f
  6202  004A' 0D81'              	rlf	___fltol@f1+1,f
  6203  004B' 0D82'              	rlf	___fltol@f1+2,f
  6204  004C' 0D83'              	rlf	___fltol@f1+3,f
  6205  004D' 0B89               	decfsz	9,f
  6206  004E' 2800'              	goto	u451_25
  6207  004F' 3001               	movlw	1
  6208  0050' 0289'              	subwf	___fltol@exp1,f
  6209  0051' 2800'              	goto	i1l475
  6210  0052'                    i1l3303:
  6211  0052' 0808'              	movf	___fltol@sign1,w
  6212  0053' 1903               	btfsc	3,2
  6213  0054' 0008               	return
  6214  0055' 0980'              	comf	___fltol@f1,f
  6215  0056' 0981'              	comf	___fltol@f1+1,f
  6216  0057' 0982'              	comf	___fltol@f1+2,f
  6217  0058' 0983'              	comf	___fltol@f1+3,f
  6218  0059' 0A80'              	incf	___fltol@f1,f
  6219  005A' 1903               	skipnz
  6220  005B' 0A81'              	incf	___fltol@f1+1,f
  6221  005C' 1903               	skipnz
  6222  005D' 0A82'              	incf	___fltol@f1+2,f
  6223  005E' 1903               	skipnz
  6224  005F' 0A83'              	incf	___fltol@f1+3,f
  6225  0060' 0008               	return
  6226  0061'                    __end_of___fltol:
  6227  007E                     btemp	set	126	;btemp
  6228  007E                     int$flags	set	126
  6229  007E                     wtemp0	set	126
  6230  22A0                     
  6231                           	psect	config
  6232                           
  6233                           ;Config register CONFIG1 @ 0x8007
  6234                           ;	Oscillator Selection
  6235                           ;	FOSC = 0x4, user specified literal
  6236                           ;	Watchdog Timer Enable
  6237                           ;	WDTE = 0x0, user specified literal
  6238                           ;	Power-up Timer Enable
  6239                           ;	PWRTE = 0x1, user specified literal
  6240                           ;	MCLR Pin Function Select
  6241                           ;	MCLRE = OFF, MCLR/VPP pin function is digital input
  6242                           ;	Flash Program Memory Code Protection
  6243                           ;	CP = OFF, Program memory code protection is disabled
  6244                           ;	Data Memory Code Protection
  6245                           ;	CPD = OFF, Data memory code protection is disabled
  6246                           ;	Brown-out Reset Enable
  6247                           ;	BOREN = ON, Brown-out Reset enabled
  6248                           ;	Clock Out Enable
  6249                           ;	CLKOUTEN = OFF, CLKOUT function is disabled. I/O or oscillator function on the CLKOUT 
      +                          pin
  6250                           ;	Internal/External Switchover
  6251                           ;	IESO = OFF, Internal/External Switchover mode is disabled
  6252                           ;	Fail-Safe Clock Monitor Enable
  6253                           ;	FCMEN = OFF, Fail-Safe Clock Monitor is disabled
  6254  8007                     	org	32775
  6255  8007  0FA4               	dw	4004
  6256                           
  6257                           ;Config register CONFIG2 @ 0x8008
  6258                           ;	Flash Memory Self-Write Protection
  6259                           ;	WRT = OFF, Write protection off
  6260                           ;	PLL Enable
  6261                           ;	PLLEN = OFF, 4x PLL disabled
  6262                           ;	Stack Overflow/Underflow Reset Enable
  6263                           ;	STVREN = OFF, Stack Overflow or Underflow will not cause a Reset
  6264                           ;	Brown-out Reset Voltage Selection
  6265                           ;	BORV = LO, Brown-out Reset Voltage (Vbor), low trip point selected.
  6266                           ;	In-Circuit Debugger Mode
  6267                           ;	DEBUG = 0x1, unprogrammed default
  6268                           ;	Low-Voltage Programming Enable
  6269                           ;	LVP = OFF, High-voltage on MCLR/VPP must be used for programming
  6270  8008                     	org	32776
  6271  8008  1CFF               	dw	7423
  6272                           
  6273                           	psect	text7_split_1
  6274  0000'                    i1l2845:
  6275  0000' 3000               	movlw	0
  6276  0001' 0022               	movlb	2	; select bank2
  6277  0002' 0080'              	movwf	(powf@yisint+3)^(0+256)
  6278  0003' 3000               	movlw	0
  6279  0004' 0080'              	movwf	(powf@yisint+2)^(0+256)
  6280  0005' 3000               	movlw	0
  6281  0006' 0080'              	movwf	(powf@yisint+1)^(0+256)
  6282  0007' 3000               	movlw	0
  6283  0008' 0080'              	movwf	powf@yisint^(0+256)
  6284  0009' 1F80'              	btfss	(powf@hx+3)^(0+256),7
  6285  000A' 2800'              	goto	i1l2859
  6286  000B' 0023               	movlb	3	; select bank3
  6287  000C' 1B80'              	btfsc	(powf@iy+3)^(0+384),7
  6288  000D' 2800'              	goto	i1l2853
  6289  000E' 3080               	movlw	128
  6290  000F' 0200'              	subwf	(powf@iy+2)^(0+384),w
  6291  0010' 304B               	movlw	75
  6292  0011' 3B00'              	subwfb	(powf@iy+3)^(0+384),w
  6293  0012' 1C03               	btfss	3,0
  6294  0013' 2800'              	goto	i1l2853
  6295  0014' 3000               	movlw	0
  6296  0015' 0022               	movlb	2	; select bank2
  6297  0016' 0080'              	movwf	(powf@yisint+3)^(0+256)
  6298  0017' 3000               	movlw	0
  6299  0018' 0080'              	movwf	(powf@yisint+2)^(0+256)
  6300  0019' 3000               	movlw	0
  6301  001A' 0080'              	movwf	(powf@yisint+1)^(0+256)
  6302  001B' 3002               	movlw	2
  6303  001C' 2800'              	goto	L3
  6304  001D'                    i1l2853:
  6305  001D' 0023               	movlb	3	; select bank3
  6306  001E' 1B80'              	btfsc	(powf@iy+3)^(0+384),7
  6307  001F' 2800'              	goto	i1l2859
  6308  0020' 3080               	movlw	128
  6309  0021' 0200'              	subwf	(powf@iy+2)^(0+384),w
  6310  0022' 303F               	movlw	63
  6311  0023' 3B00'              	subwfb	(powf@iy+3)^(0+384),w
  6312  0024' 1C03               	btfss	3,0
  6313  0025' 2800'              	goto	i1l2859
  6314  0026' 0023               	movlb	3	; select bank3
  6315  0027' 0800'              	movf	powf@iy^(0+384),w
  6316  0028' 0021               	movlb	1	; select bank1
  6317  0029' 0080'              	movwf	??_powf^(0+128)
  6318  002A' 0023               	movlb	3	; select bank3
  6319  002B' 0800'              	movf	(powf@iy+1)^(0+384),w
  6320  002C' 0021               	movlb	1	; select bank1
  6321  002D' 0081'              	movwf	(??_powf^(0+128)+1)
  6322  002E' 0023               	movlb	3	; select bank3
  6323  002F' 0800'              	movf	(powf@iy+2)^(0+384),w
  6324  0030' 0021               	movlb	1	; select bank1
  6325  0031' 0082'              	movwf	(??_powf^(0+128)+2)
  6326  0032' 0023               	movlb	3	; select bank3
  6327  0033' 0800'              	movf	(powf@iy+3)^(0+384),w
  6328  0034' 0021               	movlb	1	; select bank1
  6329  0035' 0083'              	movwf	(??_powf^(0+128)+3)
  6330  0036' 3017               	movlw	23
  6331  0037' 0080'              	movwf	(??_powf+4)^(0+128)
  6332  0038'                    u389_25:
  6333  0038' 3783'              	asrf	(??_powf^(0+128)+3),f
  6334  0039' 0C82'              	rrf	(??_powf^(0+128)+2),f
  6335  003A' 0C81'              	rrf	(??_powf^(0+128)+1),f
  6336  003B' 0C80'              	rrf	??_powf^(0+128),f
  6337  003C' 0B80'              	decfsz	(??_powf+4)^(0+128),f
  6338  003D' 2800'              	goto	u389_25
  6339  003E' 3081               	movlw	129
  6340  003F' 0700'              	addwf	??_powf^(0+128),w
  6341  0040' 0023               	movlb	3	; select bank3
  6342  0041' 0080'              	movwf	powf@k^(0+384)
  6343  0042' 30FF               	movlw	255
  6344  0043' 0021               	movlb	1	; select bank1
  6345  0044' 3D00'              	addwfc	(??_powf+1)^(0+128),w
  6346  0045' 0023               	movlb	3	; select bank3
  6347  0046' 0080'              	movwf	(powf@k+1)^(0+384)
  6348  0047' 30FF               	movlw	255
  6349  0048' 0021               	movlb	1	; select bank1
  6350  0049' 3D00'              	addwfc	(??_powf+2)^(0+128),w
  6351  004A' 0023               	movlb	3	; select bank3
  6352  004B' 0080'              	movwf	(powf@k+2)^(0+384)
  6353  004C' 30FF               	movlw	255
  6354  004D' 0021               	movlb	1	; select bank1
  6355  004E' 3D00'              	addwfc	(??_powf+3)^(0+128),w
  6356  004F' 0023               	movlb	3	; select bank3
  6357  0050' 0080'              	movwf	(powf@k+3)^(0+384)
  6358  0051' 0800'              	movf	powf@iy^(0+384),w
  6359  0052' 0021               	movlb	1	; select bank1
  6360  0053' 0080'              	movwf	??_powf^(0+128)
  6361  0054' 0023               	movlb	3	; select bank3
  6362  0055' 0800'              	movf	(powf@iy+1)^(0+384),w
  6363  0056' 0021               	movlb	1	; select bank1
  6364  0057' 0081'              	movwf	(??_powf^(0+128)+1)
  6365  0058' 0023               	movlb	3	; select bank3
  6366  0059' 0800'              	movf	(powf@iy+2)^(0+384),w
  6367  005A' 0021               	movlb	1	; select bank1
  6368  005B' 0082'              	movwf	(??_powf^(0+128)+2)
  6369  005C' 0023               	movlb	3	; select bank3
  6370  005D' 0800'              	movf	(powf@iy+3)^(0+384),w
  6371  005E' 0021               	movlb	1	; select bank1
  6372  005F' 0083'              	movwf	(??_powf^(0+128)+3)
  6373  0060' 0023               	movlb	3	; select bank3
  6374  0061' 0800'              	movf	powf@k^(0+384),w
  6375  0062' 3C17               	sublw	23
  6376  0063' 0A89               	incf	9,f
  6377  0064' 0021               	movlb	1	; select bank1
  6378  0065' 2800'              	goto	u390_20
  6379  0066'                    u390_25:
  6380  0066' 3783'              	asrf	(??_powf^(0+128)+3),f
  6381  0067' 0C82'              	rrf	(??_powf^(0+128)+2),f
  6382  0068' 0C81'              	rrf	(??_powf^(0+128)+1),f
  6383  0069' 0C80'              	rrf	??_powf^(0+128),f
  6384  006A'                    u390_20:
  6385  006A' 0B89               	decfsz	9,f
  6386  006B' 2800'              	goto	u390_25
  6387  006C' 0800'              	movf	(??_powf+3)^(0+128),w
  6388  006D' 0023               	movlb	3	; select bank3
  6389  006E' 0080'              	movwf	(powf@j+3)^(0+384)
  6390  006F' 0021               	movlb	1	; select bank1
  6391  0070' 0800'              	movf	(??_powf+2)^(0+128),w
  6392  0071' 0023               	movlb	3	; select bank3
  6393  0072' 0080'              	movwf	(powf@j+2)^(0+384)
  6394  0073' 0021               	movlb	1	; select bank1
  6395  0074' 0800'              	movf	(??_powf+1)^(0+128),w
  6396  0075' 0023               	movlb	3	; select bank3
  6397  0076' 0080'              	movwf	(powf@j+1)^(0+384)
  6398  0077' 0021               	movlb	1	; select bank1
  6399  0078' 0800'              	movf	??_powf^(0+128),w
  6400  0079' 0023               	movlb	3	; select bank3
  6401  007A' 0080'              	movwf	powf@j^(0+384)
  6402  007B' 0800'              	movf	powf@j^(0+384),w
  6403  007C' 0021               	movlb	1	; select bank1
  6404  007D' 0080'              	movwf	??_powf^(0+128)
  6405  007E' 0023               	movlb	3	; select bank3
  6406  007F' 0800'              	movf	(powf@j+1)^(0+384),w
  6407  0080' 0021               	movlb	1	; select bank1
  6408  0081' 0081'              	movwf	(??_powf^(0+128)+1)
  6409  0082' 0023               	movlb	3	; select bank3
  6410  0083' 0800'              	movf	(powf@j+2)^(0+384),w
  6411  0084' 0021               	movlb	1	; select bank1
  6412  0085' 0082'              	movwf	(??_powf^(0+128)+2)
  6413  0086' 0023               	movlb	3	; select bank3
  6414  0087' 0800'              	movf	(powf@j+3)^(0+384),w
  6415  0088' 0021               	movlb	1	; select bank1
  6416  0089' 0083'              	movwf	(??_powf^(0+128)+3)
  6417  008A' 0023               	movlb	3	; select bank3
  6418  008B' 0800'              	movf	powf@k^(0+384),w
  6419  008C' 3C17               	sublw	23
  6420  008D' 0A89               	incf	9,f
  6421  008E' 0021               	movlb	1	; select bank1
  6422  008F' 2800'              	goto	u391_20
  6423  0090'                    u391_25:
  6424  0090' 3580'              	lslf	??_powf^(0+128),f
  6425  0091' 0D81'              	rlf	(??_powf^(0+128)+1),f
  6426  0092' 0D82'              	rlf	(??_powf^(0+128)+2),f
  6427  0093' 0D83'              	rlf	(??_powf^(0+128)+3),f
  6428  0094'                    u391_20:
  6429  0094' 0B89               	decfsz	9,f
  6430  0095' 2800'              	goto	u391_25
  6431  0096' 0023               	movlb	3	; select bank3
  6432  0097' 0800'              	movf	(powf@iy+3)^(0+384),w
  6433  0098' 0021               	movlb	1	; select bank1
  6434  0099' 0600'              	xorwf	(??_powf+3)^(0+128),w
  6435  009A' 1D03               	skipz
  6436  009B' 2800'              	goto	u392_25
  6437  009C' 0023               	movlb	3	; select bank3
  6438  009D' 0800'              	movf	(powf@iy+2)^(0+384),w
  6439  009E' 0021               	movlb	1	; select bank1
  6440  009F' 0600'              	xorwf	(??_powf+2)^(0+128),w
  6441  00A0' 1D03               	skipz
  6442  00A1' 2800'              	goto	u392_25
  6443  00A2' 0023               	movlb	3	; select bank3
  6444  00A3' 0800'              	movf	(powf@iy+1)^(0+384),w
  6445  00A4' 0021               	movlb	1	; select bank1
  6446  00A5' 0600'              	xorwf	(??_powf+1)^(0+128),w
  6447  00A6' 1D03               	skipz
  6448  00A7' 2800'              	goto	u392_25
  6449  00A8' 0023               	movlb	3	; select bank3
  6450  00A9' 0800'              	movf	powf@iy^(0+384),w
  6451  00AA' 0021               	movlb	1	; select bank1
  6452  00AB' 0600'              	xorwf	??_powf^(0+128),w
  6453  00AC'                    u392_25:
  6454  00AC' 1D03               	skipz
  6455  00AD' 2800'              	goto	i1l2859
  6456  00AE' 3001               	movlw	1
  6457  00AF' 0023               	movlb	3	; select bank3
  6458  00B0' 0500'              	andwf	powf@j^(0+384),w
  6459  00B1' 0021               	movlb	1	; select bank1
  6460  00B2' 0080'              	movwf	??_powf^(0+128)
  6461  00B3' 3000               	movlw	0
  6462  00B4' 0023               	movlb	3	; select bank3
  6463  00B5' 0500'              	andwf	(powf@j+1)^(0+384),w
  6464  00B6' 0021               	movlb	1	; select bank1
  6465  00B7' 0081'              	movwf	(??_powf^(0+128)+1)
  6466  00B8' 3000               	movlw	0
  6467  00B9' 0023               	movlb	3	; select bank3
  6468  00BA' 0500'              	andwf	(powf@j+2)^(0+384),w
  6469  00BB' 0021               	movlb	1	; select bank1
  6470  00BC' 0082'              	movwf	(??_powf^(0+128)+2)
  6471  00BD' 3000               	movlw	0
  6472  00BE' 0023               	movlb	3	; select bank3
  6473  00BF' 0500'              	andwf	(powf@j+3)^(0+384),w
  6474  00C0' 0021               	movlb	1	; select bank1
  6475  00C1' 0083'              	movwf	(??_powf^(0+128)+3)
  6476  00C2' 3002               	movlw	2
  6477  00C3' 0080'              	movwf	(??_powf+4)^(0+128)
  6478  00C4' 3000               	movlw	0
  6479  00C5' 0081'              	movwf	((??_powf+4)^(0+128)+1)
  6480  00C6' 3000               	movlw	0
  6481  00C7' 0082'              	movwf	((??_powf+4)^(0+128)+2)
  6482  00C8' 3000               	movlw	0
  6483  00C9' 0083'              	movwf	((??_powf+4)^(0+128)+3)
  6484  00CA' 0800'              	movf	??_powf^(0+128),w
  6485  00CB' 0280'              	subwf	(??_powf+4)^(0+128),f
  6486  00CC' 0800'              	movf	(??_powf+1)^(0+128),w
  6487  00CD' 3B81'              	subwfb	((??_powf+4)^(0+128)+1),f
  6488  00CE' 0800'              	movf	(??_powf+2)^(0+128),w
  6489  00CF' 3B82'              	subwfb	((??_powf+4)^(0+128)+2),f
  6490  00D0' 0800'              	movf	(??_powf+3)^(0+128),w
  6491  00D1' 3B83'              	subwfb	((??_powf+4)^(0+128)+3),f
  6492  00D2' 0800'              	movf	(??_powf+7)^(0+128),w
  6493  00D3' 0022               	movlb	2	; select bank2
  6494  00D4' 0080'              	movwf	(powf@yisint+3)^(0+256)
  6495  00D5' 0021               	movlb	1	; select bank1
  6496  00D6' 0800'              	movf	(??_powf+6)^(0+128),w
  6497  00D7' 0022               	movlb	2	; select bank2
  6498  00D8' 0080'              	movwf	(powf@yisint+2)^(0+256)
  6499  00D9' 0021               	movlb	1	; select bank1
  6500  00DA' 0800'              	movf	(??_powf+5)^(0+128),w
  6501  00DB' 0022               	movlb	2	; select bank2
  6502  00DC' 0080'              	movwf	(powf@yisint+1)^(0+256)
  6503  00DD' 0021               	movlb	1	; select bank1
  6504  00DE' 0800'              	movf	(??_powf+4)^(0+128),w
  6505  00DF' 0022               	movlb	2	; select bank2
  6506  00E0'                    L3:
  6507  00E0' 0080'              	movwf	powf@yisint^(0+256)
  6508  00E1'                    i1l2859:
  6509  00E1' 3080               	movlw	128
  6510  00E2' 0023               	movlb	3	; select bank3
  6511  00E3' 0600'              	xorwf	(powf@iy+2)^(0+384),w
  6512  00E4' 307F               	movlw	127
  6513  00E5' 1903               	skipnz
  6514  00E6' 0600'              	xorwf	(powf@iy+3)^(0+384),w
  6515  00E7' 0400'              	iorwf	powf@iy^(0+384),w
  6516  00E8' 0400'              	iorwf	(powf@iy+1)^(0+384),w
  6517  00E9' 3180' 1D03         	btfss	3,2
  6518  00EB' 2800'              	goto	i1l2887
  6519  00EC' 3080               	movlw	128
  6520  00ED' 0023               	movlb	3	; select bank3
  6521  00EE' 0600'              	xorwf	(powf@ix+2)^(0+384),w
  6522  00EF' 303F               	movlw	63
  6523  00F0' 1903               	skipnz
  6524  00F1' 0600'              	xorwf	(powf@ix+3)^(0+384),w
  6525  00F2' 0400'              	iorwf	powf@ix^(0+384),w
  6526  00F3' 0400'              	iorwf	(powf@ix+1)^(0+384),w
  6527  00F4' 1D03               	btfss	3,2
  6528  00F5' 2800'              	goto	i1l2869
  6529  00F6' 303F               	movlw	63
  6530  00F7' 0021               	movlb	1	; select bank1
  6531  00F8' 0080'              	movwf	(?_powf+3)^(0+128)
  6532  00F9' 3080               	movlw	128
  6533  00FA' 0080'              	movwf	(?_powf+2)^(0+128)
  6534  00FB' 3000               	movlw	0
  6535  00FC' 0080'              	movwf	(?_powf+1)^(0+128)
  6536  00FD' 3000               	movlw	0
  6537  00FE' 0080'              	movwf	?_powf^(0+128)
  6538  00FF' 0008               	return
  6539                           
  6540                           	psect	text7_split_2
  6541  0000'                    i1l2869:
  6542  0000' 0023               	movlb	3	; select bank3
  6543  0001' 1B80'              	btfsc	(powf@ix+3)^(0+384),7
  6544  0002' 2800'              	goto	i1l808
  6545  0003' 3001               	movlw	1
  6546  0004' 0200'              	subwf	powf@ix^(0+384),w
  6547  0005' 3000               	movlw	0
  6548  0006' 3B00'              	subwfb	(powf@ix+1)^(0+384),w
  6549  0007' 3080               	movlw	128
  6550  0008' 3B00'              	subwfb	(powf@ix+2)^(0+384),w
  6551  0009' 303F               	movlw	63
  6552  000A' 3B00'              	subwfb	(powf@ix+3)^(0+384),w
  6553  000B' 1C03               	btfss	3,0
  6554  000C' 2800'              	goto	i1l808
  6555  000D' 0023               	movlb	3	; select bank3
  6556  000E' 1F80'              	btfss	(powf@hy+3)^(0+384),7
  6557  000F' 2800'              	goto	i1l2875
  6558  0010' 3000               	movlw	0
  6559  0011' 0021               	movlb	1	; select bank1
  6560  0012' 0080'              	movwf	(?_powf+3)^(0+128)
  6561  0013' 3000               	movlw	0
  6562  0014' 0080'              	movwf	(?_powf+2)^(0+128)
  6563  0015' 3000               	movlw	0
  6564  0016' 0080'              	movwf	(?_powf+1)^(0+128)
  6565  0017' 3000               	movlw	0
  6566  0018' 0080'              	movwf	?_powf^(0+128)
  6567  0019' 0008               	return
  6568  001A'                    i1l2875:
  6569  001A' 0021               	movlb	1	; select bank1
  6570  001B' 0800'              	movf	(powf@y+3)^(0+128),w
  6571  001C' 0080'              	movwf	(?_powf+3)^(0+128)
  6572  001D' 0800'              	movf	(powf@y+2)^(0+128),w
  6573  001E' 0080'              	movwf	(?_powf+2)^(0+128)
  6574  001F' 0800'              	movf	(powf@y+1)^(0+128),w
  6575  0020' 0080'              	movwf	(?_powf+1)^(0+128)
  6576  0021' 0800'              	movf	powf@y^(0+128),w
  6577  0022' 0080'              	movwf	?_powf^(0+128)
  6578  0023' 0008               	return
  6579  0024'                    i1l808:
  6580  0024' 0023               	movlb	3	; select bank3
  6581  0025' 1F80'              	btfss	(powf@hy+3)^(0+384),7
  6582  0026' 2800'              	goto	i1l2883
  6583  0027' 0021               	movlb	1	; select bank1
  6584  0028' 0800'              	movf	(powf@y+3)^(0+128),w
  6585  0029' 0083'              	movwf	___flneg@f1+3
  6586  002A' 0800'              	movf	(powf@y+2)^(0+128),w
  6587  002B' 0082'              	movwf	___flneg@f1+2
  6588  002C' 0800'              	movf	(powf@y+1)^(0+128),w
  6589  002D' 0081'              	movwf	___flneg@f1+1
  6590  002E' 0800'              	movf	powf@y^(0+128),w
  6591  002F' 0080'              	movwf	___flneg@f1
  6592  0030' 3180' 2000'        	fcall	___flneg
  6593  0032' 0803'              	movf	?___flneg+3,w
  6594  0033' 0021               	movlb	1	; select bank1
  6595  0034' 0080'              	movwf	(?_powf+3)^(0+128)
  6596  0035' 0802'              	movf	?___flneg+2,w
  6597  0036' 0080'              	movwf	(?_powf+2)^(0+128)
  6598  0037' 0801'              	movf	?___flneg+1,w
  6599  0038' 0080'              	movwf	(?_powf+1)^(0+128)
  6600  0039' 0800'              	movf	?___flneg,w
  6601  003A' 0080'              	movwf	?_powf^(0+128)
  6602  003B' 0008               	return
  6603  003C'                    i1l2883:
  6604  003C' 3000               	movlw	0
  6605  003D' 0021               	movlb	1	; select bank1
  6606  003E' 0080'              	movwf	(?_powf+3)^(0+128)
  6607  003F' 3000               	movlw	0
  6608  0040' 0080'              	movwf	(?_powf+2)^(0+128)
  6609  0041' 3000               	movlw	0
  6610  0042' 0080'              	movwf	(?_powf+1)^(0+128)
  6611  0043' 3000               	movlw	0
  6612  0044' 0080'              	movwf	?_powf^(0+128)
  6613  0045' 0008               	return
  6614  0046'                    i1l2887:
  6615  0046' 3080               	movlw	128
  6616  0047' 0023               	movlb	3	; select bank3
  6617  0048' 0600'              	xorwf	(powf@iy+2)^(0+384),w
  6618  0049' 303F               	movlw	63
  6619  004A' 1903               	skipnz
  6620  004B' 0600'              	xorwf	(powf@iy+3)^(0+384),w
  6621  004C' 0400'              	iorwf	powf@iy^(0+384),w
  6622  004D' 0400'              	iorwf	(powf@iy+1)^(0+384),w
  6623  004E' 1D03               	btfss	3,2
  6624  004F' 2800'              	goto	i1l2893
  6625  0050' 0023               	movlb	3	; select bank3
  6626  0051' 1F80'              	btfss	(powf@hy+3)^(0+384),7
  6627  0052' 0008               	return
  6628  0053' 0021               	movlb	1	; select bank1
  6629  0054' 0800'              	movf	(powf@x+3)^(0+128),w
  6630  0055' 0020               	movlb	0	; select bank0
  6631  0056' 00AC'              	movwf	___fldiv@a+3
  6632  0057' 0021               	movlb	1	; select bank1
  6633  0058' 0800'              	movf	(powf@x+2)^(0+128),w
  6634  0059' 0020               	movlb	0	; select bank0
  6635  005A' 00AB'              	movwf	___fldiv@a+2
  6636  005B' 0021               	movlb	1	; select bank1
  6637  005C' 0800'              	movf	(powf@x+1)^(0+128),w
  6638  005D' 0020               	movlb	0	; select bank0
  6639  005E' 00AA'              	movwf	___fldiv@a+1
  6640  005F' 0021               	movlb	1	; select bank1
  6641  0060' 0800'              	movf	powf@x^(0+128),w
  6642  0061' 0020               	movlb	0	; select bank0
  6643  0062' 00A9'              	movwf	___fldiv@a
  6644  0063' 303F               	movlw	63
  6645  0064' 00B0'              	movwf	___fldiv@b+3
  6646  0065' 3080               	movlw	128
  6647  0066' 00AF'              	movwf	___fldiv@b+2
  6648  0067' 3000               	movlw	0
  6649  0068' 00AE'              	movwf	___fldiv@b+1
  6650  0069' 3000               	movlw	0
  6651  006A' 00AD'              	movwf	___fldiv@b
  6652  006B' 3180' 2000'        	fcall	___fldiv
  6653  006D' 082C'              	movf	?___fldiv+3,w
  6654  006E' 0021               	movlb	1	; select bank1
  6655  006F' 0080'              	movwf	(?_powf+3)^(0+128)
  6656  0070' 0020               	movlb	0	; select bank0
  6657  0071' 082B'              	movf	?___fldiv+2,w
  6658  0072' 0021               	movlb	1	; select bank1
  6659  0073' 0080'              	movwf	(?_powf+2)^(0+128)
  6660  0074' 0020               	movlb	0	; select bank0
  6661  0075' 082A'              	movf	?___fldiv+1,w
  6662  0076' 0021               	movlb	1	; select bank1
  6663  0077' 0080'              	movwf	(?_powf+1)^(0+128)
  6664  0078' 0020               	movlb	0	; select bank0
  6665  0079' 0829'              	movf	?___fldiv,w
  6666  007A' 0021               	movlb	1	; select bank1
  6667  007B' 0080'              	movwf	?_powf^(0+128)
  6668  007C' 0008               	return
  6669  007D'                    i1l2893:
  6670  007D' 3040               	movlw	64
  6671  007E' 0023               	movlb	3	; select bank3
  6672  007F' 0600'              	xorwf	(powf@hy+3)^(0+384),w
  6673  0080' 0400'              	iorwf	powf@hy^(0+384),w
  6674  0081' 0400'              	iorwf	(powf@hy+1)^(0+384),w
  6675  0082' 0400'              	iorwf	(powf@hy+2)^(0+384),w
  6676  0083' 3180' 1D03         	btfss	3,2
  6677  0085' 2800'              	goto	i1l2899
  6678  0086' 0021               	movlb	1	; select bank1
  6679  0087' 0800'              	movf	(powf@x+3)^(0+128),w
  6680  0088' 0020               	movlb	0	; select bank0
  6681  0089' 0083'              	movwf	___flmul@b+3
  6682  008A' 0021               	movlb	1	; select bank1
  6683  008B' 0800'              	movf	(powf@x+2)^(0+128),w
  6684  008C' 0020               	movlb	0	; select bank0
  6685  008D' 0082'              	movwf	___flmul@b+2
  6686  008E' 0021               	movlb	1	; select bank1
  6687  008F' 0800'              	movf	(powf@x+1)^(0+128),w
  6688  0090' 0020               	movlb	0	; select bank0
  6689  0091' 0081'              	movwf	___flmul@b+1
  6690  0092' 0021               	movlb	1	; select bank1
  6691  0093' 0800'              	movf	powf@x^(0+128),w
  6692  0094' 0020               	movlb	0	; select bank0
  6693  0095' 0080'              	movwf	___flmul@b
  6694  0096' 0021               	movlb	1	; select bank1
  6695  0097' 0800'              	movf	(powf@x+3)^(0+128),w
  6696  0098' 0020               	movlb	0	; select bank0
  6697  0099' 0087'              	movwf	___flmul@a+3
  6698  009A' 0021               	movlb	1	; select bank1
  6699  009B' 0800'              	movf	(powf@x+2)^(0+128),w
  6700  009C' 0020               	movlb	0	; select bank0
  6701  009D' 0086'              	movwf	___flmul@a+2
  6702  009E' 0021               	movlb	1	; select bank1
  6703  009F' 0800'              	movf	(powf@x+1)^(0+128),w
  6704  00A0' 0020               	movlb	0	; select bank0
  6705  00A1' 0085'              	movwf	___flmul@a+1
  6706  00A2' 0021               	movlb	1	; select bank1
  6707  00A3' 0800'              	movf	powf@x^(0+128),w
  6708  00A4' 0020               	movlb	0	; select bank0
  6709  00A5' 0084'              	movwf	___flmul@a
  6710  00A6' 3180' 2000'        	fcall	___flmul
  6711  00A8' 0803'              	movf	?___flmul+3,w
  6712  00A9' 0021               	movlb	1	; select bank1
  6713  00AA' 0080'              	movwf	(?_powf+3)^(0+128)
  6714  00AB' 0020               	movlb	0	; select bank0
  6715  00AC' 0802'              	movf	?___flmul+2,w
  6716  00AD' 0021               	movlb	1	; select bank1
  6717  00AE' 0080'              	movwf	(?_powf+2)^(0+128)
  6718  00AF' 0020               	movlb	0	; select bank0
  6719  00B0' 0801'              	movf	?___flmul+1,w
  6720  00B1' 0021               	movlb	1	; select bank1
  6721  00B2' 0080'              	movwf	(?_powf+1)^(0+128)
  6722  00B3' 0020               	movlb	0	; select bank0
  6723  00B4' 0800'              	movf	?___flmul,w
  6724  00B5' 0021               	movlb	1	; select bank1
  6725  00B6' 0080'              	movwf	?_powf^(0+128)
  6726  00B7' 0008               	return
  6727                           
  6728                           	psect	text7_split_3
  6729  0000'                    i1l2899:
  6730  0000' 303F               	movlw	63
  6731  0001' 0023               	movlb	3	; select bank3
  6732  0002' 0600'              	xorwf	(powf@hy+3)^(0+384),w
  6733  0003' 0400'              	iorwf	powf@hy^(0+384),w
  6734  0004' 0400'              	iorwf	(powf@hy+1)^(0+384),w
  6735  0005' 0400'              	iorwf	(powf@hy+2)^(0+384),w
  6736  0006' 1D03               	btfss	3,2
  6737  0007' 2800'              	goto	i1l2907
  6738  0008' 0022               	movlb	2	; select bank2
  6739  0009' 1B80'              	btfsc	(powf@hx+3)^(0+256),7
  6740  000A' 2800'              	goto	i1l2907
  6741  000B' 0021               	movlb	1	; select bank1
  6742  000C' 0800'              	movf	(powf@x+3)^(0+128),w
  6743  000D' 0083'              	movwf	sqrtf@x+3
  6744  000E' 0800'              	movf	(powf@x+2)^(0+128),w
  6745  000F' 0082'              	movwf	sqrtf@x+2
  6746  0010' 0800'              	movf	(powf@x+1)^(0+128),w
  6747  0011' 0081'              	movwf	sqrtf@x+1
  6748  0012' 0800'              	movf	powf@x^(0+128),w
  6749  0013' 0080'              	movwf	sqrtf@x
  6750  0014' 3180' 2000'        	fcall	_sqrtf
  6751  0016' 0803'              	movf	?_sqrtf+3,w
  6752  0017' 0021               	movlb	1	; select bank1
  6753  0018' 0080'              	movwf	(?_powf+3)^(0+128)
  6754  0019' 0802'              	movf	?_sqrtf+2,w
  6755  001A' 0080'              	movwf	(?_powf+2)^(0+128)
  6756  001B' 0801'              	movf	?_sqrtf+1,w
  6757  001C' 0080'              	movwf	(?_powf+1)^(0+128)
  6758  001D' 0800'              	movf	?_sqrtf,w
  6759  001E' 0080'              	movwf	?_powf^(0+128)
  6760  001F' 0008               	return
  6761  0020'                    i1l2907:
  6762  0020' 0023               	movlb	3	; select bank3
  6763  0021' 0800'              	movf	(powf@ix+3)^(0+384),w
  6764  0022' 0022               	movlb	2	; select bank2
  6765  0023' 0080'              	movwf	(powf@ax+3)^(0+256)
  6766  0024' 0023               	movlb	3	; select bank3
  6767  0025' 0800'              	movf	(powf@ix+2)^(0+384),w
  6768  0026' 0022               	movlb	2	; select bank2
  6769  0027' 0080'              	movwf	(powf@ax+2)^(0+256)
  6770  0028' 0023               	movlb	3	; select bank3
  6771  0029' 0800'              	movf	(powf@ix+1)^(0+384),w
  6772  002A' 0022               	movlb	2	; select bank2
  6773  002B' 0080'              	movwf	(powf@ax+1)^(0+256)
  6774  002C' 0023               	movlb	3	; select bank3
  6775  002D' 0800'              	movf	powf@ix^(0+384),w
  6776  002E' 0022               	movlb	2	; select bank2
  6777  002F' 0080'              	movwf	powf@ax^(0+256)
  6778  0030' 3080               	movlw	128
  6779  0031' 0023               	movlb	3	; select bank3
  6780  0032' 0600'              	xorwf	(powf@ix+2)^(0+384),w
  6781  0033' 307F               	movlw	127
  6782  0034' 1903               	skipnz
  6783  0035' 0600'              	xorwf	(powf@ix+3)^(0+384),w
  6784  0036' 0400'              	iorwf	powf@ix^(0+384),w
  6785  0037' 0400'              	iorwf	(powf@ix+1)^(0+384),w
  6786  0038' 1903               	btfsc	3,2
  6787  0039' 2800'              	goto	i1l2915
  6788  003A' 0023               	movlb	3	; select bank3
  6789  003B' 0800'              	movf	(powf@ix+3)^(0+384),w
  6790  003C' 0400'              	iorwf	(powf@ix+2)^(0+384),w
  6791  003D' 0400'              	iorwf	(powf@ix+1)^(0+384),w
  6792  003E' 0400'              	iorwf	powf@ix^(0+384),w
  6793  003F' 1903               	skipnz
  6794  0040' 2800'              	goto	i1l2915
  6795  0041' 3080               	movlw	128
  6796  0042' 0600'              	xorwf	(powf@ix+2)^(0+384),w
  6797  0043' 303F               	movlw	63
  6798  0044' 1903               	skipnz
  6799  0045' 0600'              	xorwf	(powf@ix+3)^(0+384),w
  6800  0046' 0400'              	iorwf	powf@ix^(0+384),w
  6801  0047' 0400'              	iorwf	(powf@ix+1)^(0+384),w
  6802  0048' 1D03               	btfss	3,2
  6803  0049' 2800'              	goto	L14
  6804  004A'                    i1l2915:
  6805  004A' 0022               	movlb	2	; select bank2
  6806  004B' 0800'              	movf	(powf@ax+3)^(0+256),w
  6807  004C' 0023               	movlb	3	; select bank3
  6808  004D' 0080'              	movwf	(powf@z+3)^(0+384)
  6809  004E' 0022               	movlb	2	; select bank2
  6810  004F' 0800'              	movf	(powf@ax+2)^(0+256),w
  6811  0050' 0023               	movlb	3	; select bank3
  6812  0051' 0080'              	movwf	(powf@z+2)^(0+384)
  6813  0052' 0022               	movlb	2	; select bank2
  6814  0053' 0800'              	movf	(powf@ax+1)^(0+256),w
  6815  0054' 0023               	movlb	3	; select bank3
  6816  0055' 0080'              	movwf	(powf@z+1)^(0+384)
  6817  0056' 0022               	movlb	2	; select bank2
  6818  0057' 0800'              	movf	powf@ax^(0+256),w
  6819  0058' 0023               	movlb	3	; select bank3
  6820  0059' 0080'              	movwf	powf@z^(0+384)
  6821  005A' 1F80'              	btfss	(powf@hy+3)^(0+384),7
  6822  005B' 2800'              	goto	i1l2921
  6823  005C' 0800'              	movf	(powf@z+3)^(0+384),w
  6824  005D' 0020               	movlb	0	; select bank0
  6825  005E' 00AC'              	movwf	___fldiv@a+3
  6826  005F' 0023               	movlb	3	; select bank3
  6827  0060' 0800'              	movf	(powf@z+2)^(0+384),w
  6828  0061' 0020               	movlb	0	; select bank0
  6829  0062' 00AB'              	movwf	___fldiv@a+2
  6830  0063' 0023               	movlb	3	; select bank3
  6831  0064' 0800'              	movf	(powf@z+1)^(0+384),w
  6832  0065' 0020               	movlb	0	; select bank0
  6833  0066' 00AA'              	movwf	___fldiv@a+1
  6834  0067' 0023               	movlb	3	; select bank3
  6835  0068' 0800'              	movf	powf@z^(0+384),w
  6836  0069' 0020               	movlb	0	; select bank0
  6837  006A' 00A9'              	movwf	___fldiv@a
  6838  006B' 303F               	movlw	63
  6839  006C' 00B0'              	movwf	___fldiv@b+3
  6840  006D' 3080               	movlw	128
  6841  006E' 00AF'              	movwf	___fldiv@b+2
  6842  006F' 3000               	movlw	0
  6843  0070' 00AE'              	movwf	___fldiv@b+1
  6844  0071' 3000               	movlw	0
  6845  0072' 00AD'              	movwf	___fldiv@b
  6846  0073' 3180' 2000' 3180'  	fcall	___fldiv
  6847  0076' 082C'              	movf	?___fldiv+3,w
  6848  0077' 0023               	movlb	3	; select bank3
  6849  0078' 0080'              	movwf	(powf@z+3)^(0+384)
  6850  0079' 0020               	movlb	0	; select bank0
  6851  007A' 082B'              	movf	?___fldiv+2,w
  6852  007B' 0023               	movlb	3	; select bank3
  6853  007C' 0080'              	movwf	(powf@z+2)^(0+384)
  6854  007D' 0020               	movlb	0	; select bank0
  6855  007E' 082A'              	movf	?___fldiv+1,w
  6856  007F' 0023               	movlb	3	; select bank3
  6857  0080' 0080'              	movwf	(powf@z+1)^(0+384)
  6858  0081' 0020               	movlb	0	; select bank0
  6859  0082' 0829'              	movf	?___fldiv,w
  6860  0083' 0023               	movlb	3	; select bank3
  6861  0084' 0080'              	movwf	powf@z^(0+384)
  6862  0085'                    i1l2921:
  6863  0085' 0022               	movlb	2	; select bank2
  6864  0086' 1F80'              	btfss	(powf@hx+3)^(0+256),7
  6865  0087' 2800'              	goto	i1l2931
  6866  0088' 0800'              	movf	powf@yisint^(0+256),w
  6867  0089' 0021               	movlb	1	; select bank1
  6868  008A' 0080'              	movwf	??_powf^(0+128)
  6869  008B' 0022               	movlb	2	; select bank2
  6870  008C' 0800'              	movf	(powf@yisint+1)^(0+256),w
  6871  008D' 0021               	movlb	1	; select bank1
  6872  008E' 0081'              	movwf	(??_powf^(0+128)+1)
  6873  008F' 0022               	movlb	2	; select bank2
  6874  0090' 0800'              	movf	(powf@yisint+2)^(0+256),w
  6875  0091' 0021               	movlb	1	; select bank1
  6876  0092' 0082'              	movwf	(??_powf^(0+128)+2)
  6877  0093' 0022               	movlb	2	; select bank2
  6878  0094' 0800'              	movf	(powf@yisint+3)^(0+256),w
  6879  0095' 0021               	movlb	1	; select bank1
  6880  0096' 0083'              	movwf	(??_powf^(0+128)+3)
  6881  0097' 3000               	movlw	0
  6882  0098' 0080'              	movwf	(??_powf+4)^(0+128)
  6883  0099' 3000               	movlw	0
  6884  009A' 0081'              	movwf	((??_powf+4)^(0+128)+1)
  6885  009B' 3080               	movlw	128
  6886  009C' 0082'              	movwf	((??_powf+4)^(0+128)+2)
  6887  009D' 30C0               	movlw	192
  6888  009E' 0083'              	movwf	((??_powf+4)^(0+128)+3)
  6889  009F' 0023               	movlb	3	; select bank3
  6890  00A0' 0800'              	movf	powf@ix^(0+384),w
  6891  00A1' 0021               	movlb	1	; select bank1
  6892  00A2' 0780'              	addwf	(??_powf+4)^(0+128),f
  6893  00A3' 0023               	movlb	3	; select bank3
  6894  00A4' 0800'              	movf	(powf@ix+1)^(0+384),w
  6895  00A5' 0021               	movlb	1	; select bank1
  6896  00A6' 3D81'              	addwfc	((??_powf+4)^(0+128)+1),f
  6897  00A7' 0023               	movlb	3	; select bank3
  6898  00A8' 0800'              	movf	(powf@ix+2)^(0+384),w
  6899  00A9' 0021               	movlb	1	; select bank1
  6900  00AA' 3D82'              	addwfc	((??_powf+4)^(0+128)+2),f
  6901  00AB' 0023               	movlb	3	; select bank3
  6902  00AC' 0800'              	movf	(powf@ix+3)^(0+384),w
  6903  00AD' 0021               	movlb	1	; select bank1
  6904  00AE' 3D83'              	addwfc	((??_powf+4)^(0+128)+3),f
  6905  00AF' 0800'              	movf	(??_powf+4)^(0+128),w
  6906  00B0' 0480'              	iorwf	??_powf^(0+128),f
  6907  00B1' 0800'              	movf	(??_powf+5)^(0+128),w
  6908  00B2' 0481'              	iorwf	(??_powf^(0+128)+1),f
  6909  00B3' 0800'              	movf	(??_powf+6)^(0+128),w
  6910  00B4' 0482'              	iorwf	(??_powf^(0+128)+2),f
  6911  00B5' 0800'              	movf	(??_powf+7)^(0+128),w
  6912  00B6' 0483'              	iorwf	(??_powf^(0+128)+3),f
  6913  00B7' 0800'              	movf	(??_powf+3)^(0+128),w
  6914  00B8' 0400'              	iorwf	(??_powf+2)^(0+128),w
  6915  00B9' 0400'              	iorwf	(??_powf+1)^(0+128),w
  6916  00BA' 0400'              	iorwf	??_powf^(0+128),w
  6917  00BB' 1D03               	skipz
  6918  00BC' 2800'              	goto	i1l2927
  6919  00BD' 3021               	movlw	33
  6920  00BE' 0080'              	movwf	_errno^(0+128)
  6921  00BF' 3000               	movlw	0
  6922  00C0' 0081'              	movwf	(_errno^(0+128)+1)
  6923  00C1' 307F               	movlw	127
  6924  00C2' 0023               	movlb	3	; select bank3
  6925  00C3' 0080'              	movwf	(powf@z+3)^(0+384)
  6926  00C4' 30FF               	movlw	255
  6927  00C5' 0080'              	movwf	(powf@z+2)^(0+384)
  6928  00C6' 30FF               	movlw	255
  6929  00C7' 0080'              	movwf	(powf@z+1)^(0+384)
  6930  00C8' 30FF               	movlw	255
  6931  00C9' 2800'              	goto	L4
  6932  00CA'                    i1l2927:
  6933  00CA' 0022               	movlb	2	; select bank2
  6934  00CB' 0300'              	decf	powf@yisint^(0+256),w
  6935  00CC' 0400'              	iorwf	(powf@yisint+1)^(0+256),w
  6936  00CD' 0400'              	iorwf	(powf@yisint+2)^(0+256),w
  6937  00CE' 0400'              	iorwf	(powf@yisint+3)^(0+256),w
  6938  00CF' 1D03               	btfss	3,2
  6939  00D0' 2800'              	goto	i1l2931
  6940  00D1' 0023               	movlb	3	; select bank3
  6941  00D2' 0800'              	movf	(powf@z+3)^(0+384),w
  6942  00D3' 0083'              	movwf	___flneg@f1+3
  6943  00D4' 0800'              	movf	(powf@z+2)^(0+384),w
  6944  00D5' 0082'              	movwf	___flneg@f1+2
  6945  00D6' 0800'              	movf	(powf@z+1)^(0+384),w
  6946  00D7' 0081'              	movwf	___flneg@f1+1
  6947  00D8' 0800'              	movf	powf@z^(0+384),w
  6948  00D9' 0080'              	movwf	___flneg@f1
  6949  00DA' 3180' 2000'        	fcall	___flneg
  6950  00DC' 0803'              	movf	?___flneg+3,w
  6951  00DD' 0023               	movlb	3	; select bank3
  6952  00DE' 0080'              	movwf	(powf@z+3)^(0+384)
  6953  00DF' 0802'              	movf	?___flneg+2,w
  6954  00E0' 0080'              	movwf	(powf@z+2)^(0+384)
  6955  00E1' 0801'              	movf	?___flneg+1,w
  6956  00E2' 0080'              	movwf	(powf@z+1)^(0+384)
  6957  00E3' 0800'              	movf	?___flneg,w
  6958  00E4'                    L4:
  6959  00E4' 0080'              	movwf	powf@z^(0+384)
  6960  00E5'                    i1l2931:
  6961  00E5' 0023               	movlb	3	; select bank3
  6962  00E6' 0800'              	movf	(powf@z+3)^(0+384),w
  6963  00E7' 0021               	movlb	1	; select bank1
  6964  00E8' 0080'              	movwf	(?_powf+3)^(0+128)
  6965  00E9' 0023               	movlb	3	; select bank3
  6966  00EA' 0800'              	movf	(powf@z+2)^(0+384),w
  6967  00EB' 0021               	movlb	1	; select bank1
  6968  00EC' 0080'              	movwf	(?_powf+2)^(0+128)
  6969  00ED' 0023               	movlb	3	; select bank3
  6970  00EE' 0800'              	movf	(powf@z+1)^(0+384),w
  6971  00EF' 0021               	movlb	1	; select bank1
  6972  00F0' 0080'              	movwf	(?_powf+1)^(0+128)
  6973  00F1' 0023               	movlb	3	; select bank3
  6974  00F2' 0800'              	movf	powf@z^(0+384),w
  6975  00F3' 0021               	movlb	1	; select bank1
  6976  00F4' 0080'              	movwf	?_powf^(0+128)
  6977  00F5' 0008               	return
  6978  00F6'                    L14:
  6979  00F6'                    L13:
  6980  00F6' 3180' 2800'        	ljmp	i1l2935
  6981                           
  6982                           	psect	text7_split_4
  6983  0000'                    i1l2935:
  6984  0000' 3000               	movlw	0
  6985  0001' 0022               	movlb	2	; select bank2
  6986  0002' 0080'              	movwf	(powf@sn+3)^(0+256)
  6987  0003' 3000               	movlw	0
  6988  0004' 0080'              	movwf	(powf@sn+2)^(0+256)
  6989  0005' 3000               	movlw	0
  6990  0006' 0080'              	movwf	(powf@sn+1)^(0+256)
  6991  0007' 3000               	movlw	0
  6992  0008' 0080'              	movwf	powf@sn^(0+256)
  6993  0009' 1F80'              	btfss	(powf@hx+3)^(0+256),7
  6994  000A' 2800'              	goto	i1l2949
  6995  000B' 0800'              	movf	(powf@yisint+3)^(0+256),w
  6996  000C' 0400'              	iorwf	(powf@yisint+2)^(0+256),w
  6997  000D' 0400'              	iorwf	(powf@yisint+1)^(0+256),w
  6998  000E' 0400'              	iorwf	powf@yisint^(0+256),w
  6999  000F' 1D03               	skipz
  7000  0010' 2800'              	goto	i1l2945
  7001  0011' 3021               	movlw	33
  7002  0012' 0021               	movlb	1	; select bank1
  7003  0013' 0080'              	movwf	_errno^(0+128)
  7004  0014' 3000               	movlw	0
  7005  0015' 0081'              	movwf	(_errno^(0+128)+1)
  7006  0016' 307F               	movlw	127
  7007  0017' 0023               	movlb	3	; select bank3
  7008  0018' 0080'              	movwf	(powf@z+3)^(0+384)
  7009  0019' 30FF               	movlw	255
  7010  001A' 0080'              	movwf	(powf@z+2)^(0+384)
  7011  001B' 30FF               	movlw	255
  7012  001C' 0080'              	movwf	(powf@z+1)^(0+384)
  7013  001D' 30FF               	movlw	255
  7014  001E' 0080'              	movwf	powf@z^(0+384)
  7015  001F' 0800'              	movf	(powf@z+3)^(0+384),w
  7016  0020' 0021               	movlb	1	; select bank1
  7017  0021' 0080'              	movwf	(?_powf+3)^(0+128)
  7018  0022' 0023               	movlb	3	; select bank3
  7019  0023' 0800'              	movf	(powf@z+2)^(0+384),w
  7020  0024' 0021               	movlb	1	; select bank1
  7021  0025' 0080'              	movwf	(?_powf+2)^(0+128)
  7022  0026' 0023               	movlb	3	; select bank3
  7023  0027' 0800'              	movf	(powf@z+1)^(0+384),w
  7024  0028' 0021               	movlb	1	; select bank1
  7025  0029' 0080'              	movwf	(?_powf+1)^(0+128)
  7026  002A' 0023               	movlb	3	; select bank3
  7027  002B' 0800'              	movf	powf@z^(0+384),w
  7028  002C' 0021               	movlb	1	; select bank1
  7029  002D' 0080'              	movwf	?_powf^(0+128)
  7030  002E' 0008               	return
  7031  002F'                    i1l2945:
  7032  002F' 0300'              	decf	powf@yisint^(0+256),w
  7033  0030' 0400'              	iorwf	(powf@yisint+1)^(0+256),w
  7034  0031' 0400'              	iorwf	(powf@yisint+2)^(0+256),w
  7035  0032' 0400'              	iorwf	(powf@yisint+3)^(0+256),w
  7036  0033' 1D03               	btfss	3,2
  7037  0034' 2800'              	goto	i1l2949
  7038  0035' 3080               	movlw	128
  7039  0036' 0022               	movlb	2	; select bank2
  7040  0037' 0080'              	movwf	(powf@sn+3)^(0+256)
  7041  0038' 3000               	movlw	0
  7042  0039' 0080'              	movwf	(powf@sn+2)^(0+256)
  7043  003A' 3000               	movlw	0
  7044  003B' 0080'              	movwf	(powf@sn+1)^(0+256)
  7045  003C' 3000               	movlw	0
  7046  003D' 0080'              	movwf	powf@sn^(0+256)
  7047  003E'                    i1l2949:
  7048  003E' 0023               	movlb	3	; select bank3
  7049  003F' 1B80'              	btfsc	(powf@iy+3)^(0+384),7
  7050  0040' 2800'              	goto	L17
  7051  0041' 3001               	movlw	1
  7052  0042' 0200'              	subwf	powf@iy^(0+384),w
  7053  0043' 3000               	movlw	0
  7054  0044' 3B00'              	subwfb	(powf@iy+1)^(0+384),w
  7055  0045' 3000               	movlw	0
  7056  0046' 3B00'              	subwfb	(powf@iy+2)^(0+384),w
  7057  0047' 304D               	movlw	77
  7058  0048' 3B00'              	subwfb	(powf@iy+3)^(0+384),w
  7059  0049' 1C03               	btfss	3,0
  7060  004A' 2800'              	goto	L18
  7061  004B' 0023               	movlb	3	; select bank3
  7062  004C' 1B80'              	btfsc	(powf@ix+3)^(0+384),7
  7063  004D' 2800'              	goto	i1l2953
  7064  004E' 30F8               	movlw	248
  7065  004F' 0200'              	subwf	powf@ix^(0+384),w
  7066  0050' 30FF               	movlw	255
  7067  0051' 3B00'              	subwfb	(powf@ix+1)^(0+384),w
  7068  0052' 307F               	movlw	127
  7069  0053' 3B00'              	subwfb	(powf@ix+2)^(0+384),w
  7070  0054' 303F               	movlw	63
  7071  0055' 3B00'              	subwfb	(powf@ix+3)^(0+384),w
  7072  0056' 1803               	btfsc	3,0
  7073  0057' 2800'              	goto	L20
  7074  0058'                    i1l2953:
  7075  0058' 0023               	movlb	3	; select bank3
  7076  0059' 1F80'              	btfss	(powf@hy+3)^(0+384),7
  7077  005A' 2800'              	goto	i1l2961
  7078  005B'                    i1l2955:
  7079  005B' 3000               	movlw	0
  7080  005C' 0022               	movlb	2	; select bank2
  7081  005D' 0400'              	iorwf	powf@sn^(0+256),w
  7082  005E' 0023               	movlb	3	; select bank3
  7083  005F' 0080'              	movwf	powf@z^(0+384)
  7084  0060' 3000               	movlw	0
  7085  0061' 0022               	movlb	2	; select bank2
  7086  0062' 0400'              	iorwf	(powf@sn+1)^(0+256),w
  7087  0063' 0023               	movlb	3	; select bank3
  7088  0064' 0080'              	movwf	(powf@z+1)^(0+384)
  7089  0065' 3080               	movlw	128
  7090  0066' 0022               	movlb	2	; select bank2
  7091  0067' 0400'              	iorwf	(powf@sn+2)^(0+256),w
  7092  0068' 0023               	movlb	3	; select bank3
  7093  0069' 0080'              	movwf	(powf@z+2)^(0+384)
  7094  006A' 307F               	movlw	127
  7095  006B' 0022               	movlb	2	; select bank2
  7096  006C' 0400'              	iorwf	(powf@sn+3)^(0+256),w
  7097  006D' 0023               	movlb	3	; select bank3
  7098  006E' 0080'              	movwf	(powf@z+3)^(0+384)
  7099  006F' 0800'              	movf	(powf@z+3)^(0+384),w
  7100  0070' 0021               	movlb	1	; select bank1
  7101  0071' 0080'              	movwf	(?_powf+3)^(0+128)
  7102  0072' 0023               	movlb	3	; select bank3
  7103  0073' 0800'              	movf	(powf@z+2)^(0+384),w
  7104  0074' 0021               	movlb	1	; select bank1
  7105  0075' 0080'              	movwf	(?_powf+2)^(0+128)
  7106  0076' 0023               	movlb	3	; select bank3
  7107  0077' 0800'              	movf	(powf@z+1)^(0+384),w
  7108  0078' 0021               	movlb	1	; select bank1
  7109  0079' 0080'              	movwf	(?_powf+1)^(0+128)
  7110  007A' 0023               	movlb	3	; select bank3
  7111  007B' 0800'              	movf	powf@z^(0+384),w
  7112  007C' 0021               	movlb	1	; select bank1
  7113  007D' 0080'              	movwf	?_powf^(0+128)
  7114  007E' 0008               	return
  7115  007F'                    i1l2961:
  7116  007F' 3000               	movlw	0
  7117  0080' 0021               	movlb	1	; select bank1
  7118  0081' 0080'              	movwf	(?_powf+3)^(0+128)
  7119  0082' 3000               	movlw	0
  7120  0083' 0080'              	movwf	(?_powf+2)^(0+128)
  7121  0084' 3000               	movlw	0
  7122  0085' 0080'              	movwf	(?_powf+1)^(0+128)
  7123  0086' 3000               	movlw	0
  7124  0087' 0080'              	movwf	?_powf^(0+128)
  7125  0088' 0008               	return
  7126  0089'                    L18:
  7127  0089'                    L17:
  7128  0089' 3180' 2800'        	ljmp	i1l2985
  7129  008B'                    L20:
  7130  008B'                    L19:
  7131  008B' 3180' 2800'        	ljmp	i1l2965
  7132                           
  7133                           	psect	text7_split_5
  7134  0000'                    i1l3155:
  7135  0000' 30FF               	movlw	255
  7136  0001' 0023               	movlb	3	; select bank3
  7137  0002' 0500'              	andwf	powf@j^(0+384),w
  7138  0003' 0021               	movlb	1	; select bank1
  7139  0004' 0080'              	movwf	powf@i^(0+128)
  7140  0005' 30FF               	movlw	255
  7141  0006' 0023               	movlb	3	; select bank3
  7142  0007' 0500'              	andwf	(powf@j+1)^(0+384),w
  7143  0008' 0021               	movlb	1	; select bank1
  7144  0009' 0080'              	movwf	(powf@i+1)^(0+128)
  7145  000A' 30FF               	movlw	255
  7146  000B' 0023               	movlb	3	; select bank3
  7147  000C' 0500'              	andwf	(powf@j+2)^(0+384),w
  7148  000D' 0021               	movlb	1	; select bank1
  7149  000E' 0080'              	movwf	(powf@i+2)^(0+128)
  7150  000F' 307F               	movlw	127
  7151  0010' 0023               	movlb	3	; select bank3
  7152  0011' 0500'              	andwf	(powf@j+3)^(0+384),w
  7153  0012' 0021               	movlb	1	; select bank1
  7154  0013' 0080'              	movwf	(powf@i+3)^(0+128)
  7155  0014' 0800'              	movf	powf@i^(0+128),w
  7156  0015' 0080'              	movwf	??_powf^(0+128)
  7157  0016' 0800'              	movf	(powf@i+1)^(0+128),w
  7158  0017' 0081'              	movwf	(??_powf^(0+128)+1)
  7159  0018' 0800'              	movf	(powf@i+2)^(0+128),w
  7160  0019' 0082'              	movwf	(??_powf^(0+128)+2)
  7161  001A' 0800'              	movf	(powf@i+3)^(0+128),w
  7162  001B' 0083'              	movwf	(??_powf^(0+128)+3)
  7163  001C' 3017               	movlw	23
  7164  001D' 0080'              	movwf	(??_powf+4)^(0+128)
  7165  001E'                    u430_25:
  7166  001E' 3783'              	asrf	(??_powf^(0+128)+3),f
  7167  001F' 0C82'              	rrf	(??_powf^(0+128)+2),f
  7168  0020' 0C81'              	rrf	(??_powf^(0+128)+1),f
  7169  0021' 0C80'              	rrf	??_powf^(0+128),f
  7170  0022' 0B80'              	decfsz	(??_powf+4)^(0+128),f
  7171  0023' 2800'              	goto	u430_25
  7172  0024' 3081               	movlw	129
  7173  0025' 0700'              	addwf	??_powf^(0+128),w
  7174  0026' 0023               	movlb	3	; select bank3
  7175  0027' 0080'              	movwf	powf@k^(0+384)
  7176  0028' 30FF               	movlw	255
  7177  0029' 0021               	movlb	1	; select bank1
  7178  002A' 3D00'              	addwfc	(??_powf+1)^(0+128),w
  7179  002B' 0023               	movlb	3	; select bank3
  7180  002C' 0080'              	movwf	(powf@k+1)^(0+384)
  7181  002D' 30FF               	movlw	255
  7182  002E' 0021               	movlb	1	; select bank1
  7183  002F' 3D00'              	addwfc	(??_powf+2)^(0+128),w
  7184  0030' 0023               	movlb	3	; select bank3
  7185  0031' 0080'              	movwf	(powf@k+2)^(0+384)
  7186  0032' 30FF               	movlw	255
  7187  0033' 0021               	movlb	1	; select bank1
  7188  0034' 3D00'              	addwfc	(??_powf+3)^(0+128),w
  7189  0035' 0023               	movlb	3	; select bank3
  7190  0036' 0080'              	movwf	(powf@k+3)^(0+384)
  7191  0037' 3000               	movlw	0
  7192  0038' 0022               	movlb	2	; select bank2
  7193  0039' 0080'              	movwf	(powf@n+3)^(0+256)
  7194  003A' 3000               	movlw	0
  7195  003B' 0080'              	movwf	(powf@n+2)^(0+256)
  7196  003C' 3000               	movlw	0
  7197  003D' 0080'              	movwf	(powf@n+1)^(0+256)
  7198  003E' 3000               	movlw	0
  7199  003F' 0080'              	movwf	powf@n^(0+256)
  7200  0040' 0021               	movlb	1	; select bank1
  7201  0041' 1B80'              	btfsc	(powf@i+3)^(0+128),7
  7202  0042' 2800'              	goto	i1l859
  7203  0043' 3001               	movlw	1
  7204  0044' 0200'              	subwf	powf@i^(0+128),w
  7205  0045' 3000               	movlw	0
  7206  0046' 3B00'              	subwfb	(powf@i+1)^(0+128),w
  7207  0047' 3000               	movlw	0
  7208  0048' 3B00'              	subwfb	(powf@i+2)^(0+128),w
  7209  0049' 303F               	movlw	63
  7210  004A' 3B00'              	subwfb	(powf@i+3)^(0+128),w
  7211  004B' 1C03               	btfss	3,0
  7212  004C' 2800'              	goto	i1l859
  7213  004D' 0023               	movlb	3	; select bank3
  7214  004E' 0800'              	movf	powf@j^(0+384),w
  7215  004F' 0021               	movlb	1	; select bank1
  7216  0050' 0080'              	movwf	??_powf^(0+128)
  7217  0051' 0023               	movlb	3	; select bank3
  7218  0052' 0800'              	movf	(powf@j+1)^(0+384),w
  7219  0053' 0021               	movlb	1	; select bank1
  7220  0054' 0081'              	movwf	(??_powf^(0+128)+1)
  7221  0055' 0023               	movlb	3	; select bank3
  7222  0056' 0800'              	movf	(powf@j+2)^(0+384),w
  7223  0057' 0021               	movlb	1	; select bank1
  7224  0058' 0082'              	movwf	(??_powf^(0+128)+2)
  7225  0059' 0023               	movlb	3	; select bank3
  7226  005A' 0800'              	movf	(powf@j+3)^(0+384),w
  7227  005B' 0021               	movlb	1	; select bank1
  7228  005C' 0083'              	movwf	(??_powf^(0+128)+3)
  7229  005D' 3000               	movlw	0
  7230  005E' 0080'              	movwf	(??_powf+4)^(0+128)
  7231  005F' 3000               	movlw	0
  7232  0060' 0081'              	movwf	((??_powf+4)^(0+128)+1)
  7233  0061' 3080               	movlw	128
  7234  0062' 0082'              	movwf	((??_powf+4)^(0+128)+2)
  7235  0063' 3000               	movlw	0
  7236  0064' 0083'              	movwf	((??_powf+4)^(0+128)+3)
  7237  0065' 0023               	movlb	3	; select bank3
  7238  0066' 0800'              	movf	powf@k^(0+384),w
  7239  0067' 3E01               	addlw	1
  7240  0068' 0A89               	incf	9,f
  7241  0069' 0021               	movlb	1	; select bank1
  7242  006A' 2800'              	goto	u432_20
  7243  006B'                    u432_25:
  7244  006B' 3783'              	asrf	((??_powf+4)^(0+128)+3),f
  7245  006C' 0C82'              	rrf	((??_powf+4)^(0+128)+2),f
  7246  006D' 0C81'              	rrf	((??_powf+4)^(0+128)+1),f
  7247  006E' 0C80'              	rrf	(??_powf+4)^(0+128),f
  7248  006F'                    u432_20:
  7249  006F' 0B89               	decfsz	9,f
  7250  0070' 2800'              	goto	u432_25
  7251  0071' 0800'              	movf	(??_powf+4)^(0+128),w
  7252  0072' 0780'              	addwf	??_powf^(0+128),f
  7253  0073' 0800'              	movf	(??_powf+5)^(0+128),w
  7254  0074' 3D81'              	addwfc	(??_powf^(0+128)+1),f
  7255  0075' 0800'              	movf	(??_powf+6)^(0+128),w
  7256  0076' 3D82'              	addwfc	(??_powf^(0+128)+2),f
  7257  0077' 0800'              	movf	(??_powf+7)^(0+128),w
  7258  0078' 3D83'              	addwfc	(??_powf^(0+128)+3),f
  7259  0079' 0800'              	movf	(??_powf+3)^(0+128),w
  7260  007A' 0022               	movlb	2	; select bank2
  7261  007B' 0080'              	movwf	(powf@n+3)^(0+256)
  7262  007C' 0021               	movlb	1	; select bank1
  7263  007D' 0800'              	movf	(??_powf+2)^(0+128),w
  7264  007E' 0022               	movlb	2	; select bank2
  7265  007F' 0080'              	movwf	(powf@n+2)^(0+256)
  7266  0080' 0021               	movlb	1	; select bank1
  7267  0081' 0800'              	movf	(??_powf+1)^(0+128),w
  7268  0082' 0022               	movlb	2	; select bank2
  7269  0083' 0080'              	movwf	(powf@n+1)^(0+256)
  7270  0084' 0021               	movlb	1	; select bank1
  7271  0085' 0800'              	movf	??_powf^(0+128),w
  7272  0086' 0022               	movlb	2	; select bank2
  7273  0087' 0080'              	movwf	powf@n^(0+256)
  7274  0088' 30FF               	movlw	255
  7275  0089' 0021               	movlb	1	; select bank1
  7276  008A' 0080'              	movwf	??_powf^(0+128)
  7277  008B' 3000               	movlw	0
  7278  008C' 0081'              	movwf	(??_powf^(0+128)+1)
  7279  008D' 3000               	movlw	0
  7280  008E' 0082'              	movwf	(??_powf^(0+128)+2)
  7281  008F' 3000               	movlw	0
  7282  0090' 0083'              	movwf	(??_powf^(0+128)+3)
  7283  0091' 0022               	movlb	2	; select bank2
  7284  0092' 0800'              	movf	powf@n^(0+256),w
  7285  0093' 0021               	movlb	1	; select bank1
  7286  0094' 0080'              	movwf	(??_powf+4)^(0+128)
  7287  0095' 0022               	movlb	2	; select bank2
  7288  0096' 0800'              	movf	(powf@n+1)^(0+256),w
  7289  0097' 0021               	movlb	1	; select bank1
  7290  0098' 0081'              	movwf	((??_powf+4)^(0+128)+1)
  7291  0099' 0022               	movlb	2	; select bank2
  7292  009A' 0800'              	movf	(powf@n+2)^(0+256),w
  7293  009B' 0021               	movlb	1	; select bank1
  7294  009C' 0082'              	movwf	((??_powf+4)^(0+128)+2)
  7295  009D' 0022               	movlb	2	; select bank2
  7296  009E' 0800'              	movf	(powf@n+3)^(0+256),w
  7297  009F' 0021               	movlb	1	; select bank1
  7298  00A0' 0083'              	movwf	((??_powf+4)^(0+128)+3)
  7299  00A1' 3017               	movlw	23
  7300  00A2' 0080'              	movwf	(??_powf+8)^(0+128)
  7301  00A3'                    u433_25:
  7302  00A3' 3783'              	asrf	((??_powf+4)^(0+128)+3),f
  7303  00A4' 0C82'              	rrf	((??_powf+4)^(0+128)+2),f
  7304  00A5' 0C81'              	rrf	((??_powf+4)^(0+128)+1),f
  7305  00A6' 0C80'              	rrf	(??_powf+4)^(0+128),f
  7306  00A7' 0B80'              	decfsz	(??_powf+8)^(0+128),f
  7307  00A8' 2800'              	goto	u433_25
  7308  00A9' 0800'              	movf	(??_powf+4)^(0+128),w
  7309  00AA' 0580'              	andwf	??_powf^(0+128),f
  7310  00AB' 0800'              	movf	(??_powf+5)^(0+128),w
  7311  00AC' 0581'              	andwf	(??_powf^(0+128)+1),f
  7312  00AD' 0800'              	movf	(??_powf+6)^(0+128),w
  7313  00AE' 0582'              	andwf	(??_powf^(0+128)+2),f
  7314  00AF' 0800'              	movf	(??_powf+7)^(0+128),w
  7315  00B0' 0583'              	andwf	(??_powf^(0+128)+3),f
  7316  00B1' 3081               	movlw	129
  7317  00B2' 0700'              	addwf	??_powf^(0+128),w
  7318  00B3' 0023               	movlb	3	; select bank3
  7319  00B4' 0080'              	movwf	powf@k^(0+384)
  7320  00B5' 30FF               	movlw	255
  7321  00B6' 0021               	movlb	1	; select bank1
  7322  00B7' 3D00'              	addwfc	(??_powf+1)^(0+128),w
  7323  00B8' 0023               	movlb	3	; select bank3
  7324  00B9' 0080'              	movwf	(powf@k+1)^(0+384)
  7325  00BA' 30FF               	movlw	255
  7326  00BB' 0021               	movlb	1	; select bank1
  7327  00BC' 3D00'              	addwfc	(??_powf+2)^(0+128),w
  7328  00BD' 0023               	movlb	3	; select bank3
  7329  00BE' 0080'              	movwf	(powf@k+2)^(0+384)
  7330  00BF' 30FF               	movlw	255
  7331  00C0' 0021               	movlb	1	; select bank1
  7332  00C1' 3D00'              	addwfc	(??_powf+3)^(0+128),w
  7333  00C2' 0023               	movlb	3	; select bank3
  7334  00C3' 0080'              	movwf	(powf@k+3)^(0+384)
  7335  00C4' 30FF               	movlw	255
  7336  00C5' 0021               	movlb	1	; select bank1
  7337  00C6' 0080'              	movwf	??_powf^(0+128)
  7338  00C7' 30FF               	movlw	255
  7339  00C8' 0081'              	movwf	(??_powf^(0+128)+1)
  7340  00C9' 307F               	movlw	127
  7341  00CA' 0082'              	movwf	(??_powf^(0+128)+2)
  7342  00CB' 3000               	movlw	0
  7343  00CC' 0083'              	movwf	(??_powf^(0+128)+3)
  7344  00CD' 0023               	movlb	3	; select bank3
  7345  00CE' 0A00'              	incf	powf@k^(0+384),w
  7346  00CF' 0021               	movlb	1	; select bank1
  7347  00D0' 2800'              	goto	u434_20
  7348  00D1'                    u434_25:
  7349  00D1' 3783'              	asrf	(??_powf^(0+128)+3),f
  7350  00D2' 0C82'              	rrf	(??_powf^(0+128)+2),f
  7351  00D3' 0C81'              	rrf	(??_powf^(0+128)+1),f
  7352  00D4' 0C80'              	rrf	??_powf^(0+128),f
  7353  00D5'                    u434_20:
  7354  00D5' 0B89               	decfsz	9,f
  7355  00D6' 2800'              	goto	u434_25
  7356  00D7' 0980'              	comf	??_powf^(0+128),f
  7357  00D8' 0981'              	comf	(??_powf^(0+128)+1),f
  7358  00D9' 0982'              	comf	(??_powf^(0+128)+2),f
  7359  00DA' 0983'              	comf	(??_powf^(0+128)+3),f
  7360  00DB' 0022               	movlb	2	; select bank2
  7361  00DC' 0800'              	movf	powf@n^(0+256),w
  7362  00DD' 0021               	movlb	1	; select bank1
  7363  00DE' 0500'              	andwf	??_powf^(0+128),w
  7364  00DF' 0023               	movlb	3	; select bank3
  7365  00E0' 0080'              	movwf	powf@t^(0+384)
  7366  00E1' 0022               	movlb	2	; select bank2
  7367  00E2' 0800'              	movf	(powf@n+1)^(0+256),w
  7368  00E3' 0021               	movlb	1	; select bank1
  7369  00E4' 0500'              	andwf	(??_powf+1)^(0+128),w
  7370  00E5' 0023               	movlb	3	; select bank3
  7371  00E6' 0080'              	movwf	(powf@t+1)^(0+384)
  7372  00E7' 0022               	movlb	2	; select bank2
  7373  00E8' 0800'              	movf	(powf@n+2)^(0+256),w
  7374  00E9' 0021               	movlb	1	; select bank1
  7375  00EA' 0500'              	andwf	(??_powf+2)^(0+128),w
  7376  00EB' 0023               	movlb	3	; select bank3
  7377  00EC' 0080'              	movwf	(powf@t+2)^(0+384)
  7378  00ED' 0022               	movlb	2	; select bank2
  7379  00EE' 0800'              	movf	(powf@n+3)^(0+256),w
  7380  00EF' 0021               	movlb	1	; select bank1
  7381  00F0' 0500'              	andwf	(??_powf+3)^(0+128),w
  7382  00F1' 0023               	movlb	3	; select bank3
  7383  00F2' 0080'              	movwf	(powf@t+3)^(0+384)
  7384  00F3' 3000               	movlw	0
  7385  00F4' 0021               	movlb	1	; select bank1
  7386  00F5' 0080'              	movwf	??_powf^(0+128)
  7387  00F6' 3000               	movlw	0
  7388  00F7' 0081'              	movwf	(??_powf^(0+128)+1)
  7389  00F8' 3080               	movlw	128
  7390  00F9' 0082'              	movwf	(??_powf^(0+128)+2)
  7391  00FA' 3000               	movlw	0
  7392  00FB' 0083'              	movwf	(??_powf^(0+128)+3)
  7393  00FC' 30FF               	movlw	255
  7394  00FD' 0022               	movlb	2	; select bank2
  7395  00FE' 0500'              	andwf	powf@n^(0+256),w
  7396  00FF' 0021               	movlb	1	; select bank1
  7397  0100' 0080'              	movwf	(??_powf+4)^(0+128)
  7398  0101' 30FF               	movlw	255
  7399  0102' 0022               	movlb	2	; select bank2
  7400  0103' 0500'              	andwf	(powf@n+1)^(0+256),w
  7401  0104' 0021               	movlb	1	; select bank1
  7402  0105' 0081'              	movwf	((??_powf+4)^(0+128)+1)
  7403  0106' 307F               	movlw	127
  7404  0107' 0022               	movlb	2	; select bank2
  7405  0108' 0500'              	andwf	(powf@n+2)^(0+256),w
  7406  0109' 0021               	movlb	1	; select bank1
  7407  010A' 0082'              	movwf	((??_powf+4)^(0+128)+2)
  7408  010B' 3000               	movlw	0
  7409  010C' 0022               	movlb	2	; select bank2
  7410  010D' 0500'              	andwf	(powf@n+3)^(0+256),w
  7411  010E' 0021               	movlb	1	; select bank1
  7412  010F' 0083'              	movwf	((??_powf+4)^(0+128)+3)
  7413  0110' 0800'              	movf	(??_powf+4)^(0+128),w
  7414  0111' 0480'              	iorwf	??_powf^(0+128),f
  7415  0112' 0800'              	movf	(??_powf+5)^(0+128),w
  7416  0113' 0481'              	iorwf	(??_powf^(0+128)+1),f
  7417  0114' 0800'              	movf	(??_powf+6)^(0+128),w
  7418  0115' 0482'              	iorwf	(??_powf^(0+128)+2),f
  7419  0116' 0800'              	movf	(??_powf+7)^(0+128),w
  7420  0117' 0483'              	iorwf	(??_powf^(0+128)+3),f
  7421  0118' 0023               	movlb	3	; select bank3
  7422  0119' 0800'              	movf	powf@k^(0+384),w
  7423  011A' 3C17               	sublw	23
  7424  011B' 0A89               	incf	9,f
  7425  011C' 0021               	movlb	1	; select bank1
  7426  011D' 2800'              	goto	u435_20
  7427  011E'                    u435_25:
  7428  011E' 3783'              	asrf	(??_powf^(0+128)+3),f
  7429  011F' 0C82'              	rrf	(??_powf^(0+128)+2),f
  7430  0120' 0C81'              	rrf	(??_powf^(0+128)+1),f
  7431  0121' 0C80'              	rrf	??_powf^(0+128),f
  7432  0122'                    u435_20:
  7433  0122' 0B89               	decfsz	9,f
  7434  0123' 2800'              	goto	u435_25
  7435  0124' 0800'              	movf	(??_powf+3)^(0+128),w
  7436  0125' 0022               	movlb	2	; select bank2
  7437  0126' 0080'              	movwf	(powf@n+3)^(0+256)
  7438  0127' 0021               	movlb	1	; select bank1
  7439  0128' 0800'              	movf	(??_powf+2)^(0+128),w
  7440  0129' 0022               	movlb	2	; select bank2
  7441  012A' 0080'              	movwf	(powf@n+2)^(0+256)
  7442  012B' 0021               	movlb	1	; select bank1
  7443  012C' 0800'              	movf	(??_powf+1)^(0+128),w
  7444  012D' 0022               	movlb	2	; select bank2
  7445  012E' 0080'              	movwf	(powf@n+1)^(0+256)
  7446  012F' 0021               	movlb	1	; select bank1
  7447  0130' 0800'              	movf	??_powf^(0+128),w
  7448  0131' 0022               	movlb	2	; select bank2
  7449  0132' 0080'              	movwf	powf@n^(0+256)
  7450  0133' 0023               	movlb	3	; select bank3
  7451  0134' 1F80'              	btfss	(powf@j+3)^(0+384),7
  7452  0135' 2800'              	goto	i1l3167
  7453  0136' 0022               	movlb	2	; select bank2
  7454  0137' 0980'              	comf	powf@n^(0+256),f
  7455  0138' 0980'              	comf	(powf@n+1)^(0+256),f
  7456  0139' 0980'              	comf	(powf@n+2)^(0+256),f
  7457  013A' 0980'              	comf	(powf@n+3)^(0+256),f
  7458  013B' 0A80'              	incf	powf@n^(0+256),f
  7459  013C' 1903               	skipnz
  7460  013D' 0A80'              	incf	(powf@n+1)^(0+256),f
  7461  013E' 1903               	skipnz
  7462  013F' 0A80'              	incf	(powf@n+2)^(0+256),f
  7463  0140' 1903               	skipnz
  7464  0141' 0A80'              	incf	(powf@n+3)^(0+256),f
  7465  0142'                    i1l3167:
  7466  0142' 0023               	movlb	3	; select bank3
  7467  0143' 0800'              	movf	(powf@t+3)^(0+384),w
  7468  0144' 0020               	movlb	0	; select bank0
  7469  0145' 00C6'              	movwf	___flsub@a+3
  7470  0146' 0023               	movlb	3	; select bank3
  7471  0147' 0800'              	movf	(powf@t+2)^(0+384),w
  7472  0148' 0020               	movlb	0	; select bank0
  7473  0149' 00C5'              	movwf	___flsub@a+2
  7474  014A' 0023               	movlb	3	; select bank3
  7475  014B' 0800'              	movf	(powf@t+1)^(0+384),w
  7476  014C' 0020               	movlb	0	; select bank0
  7477  014D' 00C4'              	movwf	___flsub@a+1
  7478  014E' 0023               	movlb	3	; select bank3
  7479  014F' 0800'              	movf	powf@t^(0+384),w
  7480  0150' 0020               	movlb	0	; select bank0
  7481  0151' 00C3'              	movwf	___flsub@a
  7482  0152' 0023               	movlb	3	; select bank3
  7483  0153' 0800'              	movf	(powf@p_h+3)^(0+384),w
  7484  0154' 0020               	movlb	0	; select bank0
  7485  0155' 00CA'              	movwf	___flsub@b+3
  7486  0156' 0023               	movlb	3	; select bank3
  7487  0157' 0800'              	movf	(powf@p_h+2)^(0+384),w
  7488  0158' 0020               	movlb	0	; select bank0
  7489  0159' 00C9'              	movwf	___flsub@b+2
  7490  015A' 0023               	movlb	3	; select bank3
  7491  015B' 0800'              	movf	(powf@p_h+1)^(0+384),w
  7492  015C' 0020               	movlb	0	; select bank0
  7493  015D' 00C8'              	movwf	___flsub@b+1
  7494  015E' 0023               	movlb	3	; select bank3
  7495  015F' 0800'              	movf	powf@p_h^(0+384),w
  7496  0160' 0020               	movlb	0	; select bank0
  7497  0161' 00C7'              	movwf	___flsub@b
  7498  0162' 3180' 2000' 3180'  	fcall	___flsub
  7499  0165' 0846'              	movf	?___flsub+3,w
  7500  0166' 0023               	movlb	3	; select bank3
  7501  0167' 0080'              	movwf	(powf@p_h+3)^(0+384)
  7502  0168' 0020               	movlb	0	; select bank0
  7503  0169' 0845'              	movf	?___flsub+2,w
  7504  016A' 0023               	movlb	3	; select bank3
  7505  016B' 0080'              	movwf	(powf@p_h+2)^(0+384)
  7506  016C' 0020               	movlb	0	; select bank0
  7507  016D' 0844'              	movf	?___flsub+1,w
  7508  016E' 0023               	movlb	3	; select bank3
  7509  016F' 0080'              	movwf	(powf@p_h+1)^(0+384)
  7510  0170' 0020               	movlb	0	; select bank0
  7511  0171' 0843'              	movf	?___flsub,w
  7512  0172' 0023               	movlb	3	; select bank3
  7513  0173' 0080'              	movwf	powf@p_h^(0+384)
  7514  0174'                    i1l859:
  7515  0174' 0022               	movlb	2	; select bank2
  7516  0175' 0800'              	movf	(powf@p_l+3)^(0+256),w
  7517  0176' 0020               	movlb	0	; select bank0
  7518  0177' 0098'              	movwf	___fladd@b+3
  7519  0178' 0022               	movlb	2	; select bank2
  7520  0179' 0800'              	movf	(powf@p_l+2)^(0+256),w
  7521  017A' 0020               	movlb	0	; select bank0
  7522  017B' 0097'              	movwf	___fladd@b+2
  7523  017C' 0022               	movlb	2	; select bank2
  7524  017D' 0800'              	movf	(powf@p_l+1)^(0+256),w
  7525  017E' 0020               	movlb	0	; select bank0
  7526  017F' 0096'              	movwf	___fladd@b+1
  7527  0180' 0022               	movlb	2	; select bank2
  7528  0181' 0800'              	movf	powf@p_l^(0+256),w
  7529  0182' 0020               	movlb	0	; select bank0
  7530  0183' 0095'              	movwf	___fladd@b
  7531  0184' 0023               	movlb	3	; select bank3
  7532  0185' 0800'              	movf	(powf@p_h+3)^(0+384),w
  7533  0186' 0020               	movlb	0	; select bank0
  7534  0187' 009C'              	movwf	___fladd@a+3
  7535  0188' 0023               	movlb	3	; select bank3
  7536  0189' 0800'              	movf	(powf@p_h+2)^(0+384),w
  7537  018A' 0020               	movlb	0	; select bank0
  7538  018B' 009B'              	movwf	___fladd@a+2
  7539  018C' 0023               	movlb	3	; select bank3
  7540  018D' 0800'              	movf	(powf@p_h+1)^(0+384),w
  7541  018E' 0020               	movlb	0	; select bank0
  7542  018F' 009A'              	movwf	___fladd@a+1
  7543  0190' 0023               	movlb	3	; select bank3
  7544  0191' 0800'              	movf	powf@p_h^(0+384),w
  7545  0192' 0020               	movlb	0	; select bank0
  7546  0193' 0099'              	movwf	___fladd@a
  7547  0194' 3180' 2000' 3180'  	fcall	___fladd
  7548  0197' 0818'              	movf	?___fladd+3,w
  7549  0198' 0023               	movlb	3	; select bank3
  7550  0199' 0080'              	movwf	(powf@t+3)^(0+384)
  7551  019A' 0020               	movlb	0	; select bank0
  7552  019B' 0817'              	movf	?___fladd+2,w
  7553  019C' 0023               	movlb	3	; select bank3
  7554  019D' 0080'              	movwf	(powf@t+2)^(0+384)
  7555  019E' 0020               	movlb	0	; select bank0
  7556  019F' 0816'              	movf	?___fladd+1,w
  7557  01A0' 0023               	movlb	3	; select bank3
  7558  01A1' 0080'              	movwf	(powf@t+1)^(0+384)
  7559  01A2' 0020               	movlb	0	; select bank0
  7560  01A3' 0815'              	movf	?___fladd,w
  7561  01A4' 0023               	movlb	3	; select bank3
  7562  01A5' 0080'              	movwf	powf@t^(0+384)
  7563  01A6' 0800'              	movf	(powf@t+3)^(0+384),w
  7564  01A7' 0080'              	movwf	(powf@is+3)^(0+384)
  7565  01A8' 0800'              	movf	(powf@t+2)^(0+384),w
  7566  01A9' 0080'              	movwf	(powf@is+2)^(0+384)
  7567  01AA' 0800'              	movf	(powf@t+1)^(0+384),w
  7568  01AB' 0080'              	movwf	(powf@is+1)^(0+384)
  7569  01AC' 0800'              	movf	powf@t^(0+384),w
  7570  01AD' 0080'              	movwf	powf@is^(0+384)
  7571  01AE' 3000               	movlw	0
  7572  01AF' 0500'              	andwf	powf@is^(0+384),w
  7573  01B0' 0080'              	movwf	powf@t^(0+384)
  7574  01B1' 3080               	movlw	128
  7575  01B2' 0500'              	andwf	(powf@is+1)^(0+384),w
  7576  01B3' 0080'              	movwf	(powf@t+1)^(0+384)
  7577  01B4' 30FF               	movlw	255
  7578  01B5' 0500'              	andwf	(powf@is+2)^(0+384),w
  7579  01B6' 0080'              	movwf	(powf@t+2)^(0+384)
  7580  01B7' 30FF               	movlw	255
  7581  01B8' 0500'              	andwf	(powf@is+3)^(0+384),w
  7582  01B9' 0080'              	movwf	(powf@t+3)^(0+384)
  7583  01BA' 303F               	movlw	63
  7584  01BB' 0020               	movlb	0	; select bank0
  7585  01BC' 0083'              	movwf	___flmul@b+3
  7586  01BD' 3031               	movlw	49
  7587  01BE' 0082'              	movwf	___flmul@b+2
  7588  01BF' 3072               	movlw	114
  7589  01C0' 0081'              	movwf	___flmul@b+1
  7590  01C1' 3000               	movlw	0
  7591  01C2' 0080'              	movwf	___flmul@b
  7592  01C3' 0023               	movlb	3	; select bank3
  7593  01C4' 0800'              	movf	(powf@t+3)^(0+384),w
  7594  01C5' 0020               	movlb	0	; select bank0
  7595  01C6' 0087'              	movwf	___flmul@a+3
  7596  01C7' 0023               	movlb	3	; select bank3
  7597  01C8' 0800'              	movf	(powf@t+2)^(0+384),w
  7598  01C9' 0020               	movlb	0	; select bank0
  7599  01CA' 0086'              	movwf	___flmul@a+2
  7600  01CB' 0023               	movlb	3	; select bank3
  7601  01CC' 0800'              	movf	(powf@t+1)^(0+384),w
  7602  01CD' 0020               	movlb	0	; select bank0
  7603  01CE' 0085'              	movwf	___flmul@a+1
  7604  01CF' 0023               	movlb	3	; select bank3
  7605  01D0' 0800'              	movf	powf@t^(0+384),w
  7606  01D1' 0020               	movlb	0	; select bank0
  7607  01D2' 0084'              	movwf	___flmul@a
  7608  01D3' 3180' 2000' 3180'  	fcall	___flmul
  7609  01D6' 0803'              	movf	?___flmul+3,w
  7610  01D7' 0022               	movlb	2	; select bank2
  7611  01D8' 0080'              	movwf	(powf@u+3)^(0+256)
  7612  01D9' 0020               	movlb	0	; select bank0
  7613  01DA' 0802'              	movf	?___flmul+2,w
  7614  01DB' 0022               	movlb	2	; select bank2
  7615  01DC' 0080'              	movwf	(powf@u+2)^(0+256)
  7616  01DD' 0020               	movlb	0	; select bank0
  7617  01DE' 0801'              	movf	?___flmul+1,w
  7618  01DF' 0022               	movlb	2	; select bank2
  7619  01E0' 0080'              	movwf	(powf@u+1)^(0+256)
  7620  01E1' 0020               	movlb	0	; select bank0
  7621  01E2' 0800'              	movf	?___flmul,w
  7622  01E3' 0022               	movlb	2	; select bank2
  7623  01E4' 0080'              	movwf	powf@u^(0+256)
  7624  01E5' 0023               	movlb	3	; select bank3
  7625  01E6' 0800'              	movf	(powf@p_h+3)^(0+384),w
  7626  01E7' 0020               	movlb	0	; select bank0
  7627  01E8' 00C6'              	movwf	___flsub@a+3
  7628  01E9' 0023               	movlb	3	; select bank3
  7629  01EA' 0800'              	movf	(powf@p_h+2)^(0+384),w
  7630  01EB' 0020               	movlb	0	; select bank0
  7631  01EC' 00C5'              	movwf	___flsub@a+2
  7632  01ED' 0023               	movlb	3	; select bank3
  7633  01EE' 0800'              	movf	(powf@p_h+1)^(0+384),w
  7634  01EF' 0020               	movlb	0	; select bank0
  7635  01F0' 00C4'              	movwf	___flsub@a+1
  7636  01F1' 0023               	movlb	3	; select bank3
  7637  01F2' 0800'              	movf	powf@p_h^(0+384),w
  7638  01F3' 0020               	movlb	0	; select bank0
  7639  01F4' 00C3'              	movwf	___flsub@a
  7640  01F5' 0023               	movlb	3	; select bank3
  7641  01F6' 0800'              	movf	(powf@t+3)^(0+384),w
  7642  01F7' 0020               	movlb	0	; select bank0
  7643  01F8' 00CA'              	movwf	___flsub@b+3
  7644  01F9' 0023               	movlb	3	; select bank3
  7645  01FA' 0800'              	movf	(powf@t+2)^(0+384),w
  7646  01FB' 0020               	movlb	0	; select bank0
  7647  01FC' 00C9'              	movwf	___flsub@b+2
  7648  01FD' 0023               	movlb	3	; select bank3
  7649  01FE' 0800'              	movf	(powf@t+1)^(0+384),w
  7650  01FF' 0020               	movlb	0	; select bank0
  7651  0200' 00C8'              	movwf	___flsub@b+1
  7652  0201' 0023               	movlb	3	; select bank3
  7653  0202' 0800'              	movf	powf@t^(0+384),w
  7654  0203' 0020               	movlb	0	; select bank0
  7655  0204' 00C7'              	movwf	___flsub@b
  7656  0205' 3180' 2000' 3180'  	fcall	___flsub
  7657  0208' 0846'              	movf	?___flsub+3,w
  7658  0209' 0023               	movlb	3	; select bank3
  7659  020A' 0080'              	movwf	(_powf$1039+3)^(0+384)
  7660  020B' 0020               	movlb	0	; select bank0
  7661  020C' 0845'              	movf	?___flsub+2,w
  7662  020D' 0023               	movlb	3	; select bank3
  7663  020E' 0080'              	movwf	(_powf$1039+2)^(0+384)
  7664  020F' 0020               	movlb	0	; select bank0
  7665  0210' 0844'              	movf	?___flsub+1,w
  7666  0211' 0023               	movlb	3	; select bank3
  7667  0212' 0080'              	movwf	(_powf$1039+1)^(0+384)
  7668  0213' 0020               	movlb	0	; select bank0
  7669  0214' 0843'              	movf	?___flsub,w
  7670  0215' 0023               	movlb	3	; select bank3
  7671  0216' 0080'              	movwf	_powf$1039^(0+384)
  7672  0217' 303F               	movlw	63
  7673  0218' 0020               	movlb	0	; select bank0
  7674  0219' 0083'              	movwf	___flmul@b+3
  7675  021A' 3031               	movlw	49
  7676  021B' 0082'              	movwf	___flmul@b+2
  7677  021C' 3072               	movlw	114
  7678  021D' 0081'              	movwf	___flmul@b+1
  7679  021E' 3018               	movlw	24
  7680  021F' 0080'              	movwf	___flmul@b
  7681  0220' 0023               	movlb	3	; select bank3
  7682  0221' 0800'              	movf	(_powf$1039+3)^(0+384),w
  7683  0222' 0020               	movlb	0	; select bank0
  7684  0223' 00C6'              	movwf	___flsub@a+3
  7685  0224' 0023               	movlb	3	; select bank3
  7686  0225' 0800'              	movf	(_powf$1039+2)^(0+384),w
  7687  0226' 0020               	movlb	0	; select bank0
  7688  0227' 00C5'              	movwf	___flsub@a+2
  7689  0228' 0023               	movlb	3	; select bank3
  7690  0229' 0800'              	movf	(_powf$1039+1)^(0+384),w
  7691  022A' 0020               	movlb	0	; select bank0
  7692  022B' 00C4'              	movwf	___flsub@a+1
  7693  022C' 0023               	movlb	3	; select bank3
  7694  022D' 0800'              	movf	_powf$1039^(0+384),w
  7695  022E' 0020               	movlb	0	; select bank0
  7696  022F' 00C3'              	movwf	___flsub@a
  7697  0230' 0022               	movlb	2	; select bank2
  7698  0231' 0800'              	movf	(powf@p_l+3)^(0+256),w
  7699  0232' 0020               	movlb	0	; select bank0
  7700  0233' 00CA'              	movwf	___flsub@b+3
  7701  0234' 0022               	movlb	2	; select bank2
  7702  0235' 0800'              	movf	(powf@p_l+2)^(0+256),w
  7703  0236' 0020               	movlb	0	; select bank0
  7704  0237' 00C9'              	movwf	___flsub@b+2
  7705  0238' 0022               	movlb	2	; select bank2
  7706  0239' 0800'              	movf	(powf@p_l+1)^(0+256),w
  7707  023A' 0020               	movlb	0	; select bank0
  7708  023B' 00C8'              	movwf	___flsub@b+1
  7709  023C' 0022               	movlb	2	; select bank2
  7710  023D' 0800'              	movf	powf@p_l^(0+256),w
  7711  023E' 0020               	movlb	0	; select bank0
  7712  023F' 00C7'              	movwf	___flsub@b
  7713  0240' 3180' 2000' 3180'  	fcall	___flsub
  7714  0243' 0846'              	movf	?___flsub+3,w
  7715  0244' 0087'              	movwf	___flmul@a+3
  7716  0245' 0845'              	movf	?___flsub+2,w
  7717  0246' 0086'              	movwf	___flmul@a+2
  7718  0247' 0844'              	movf	?___flsub+1,w
  7719  0248' 0085'              	movwf	___flmul@a+1
  7720  0249' 0843'              	movf	?___flsub,w
  7721  024A' 0084'              	movwf	___flmul@a
  7722  024B' 3180' 2000' 3180'  	fcall	___flmul
  7723  024E' 0803'              	movf	?___flmul+3,w
  7724  024F' 0021               	movlb	1	; select bank1
  7725  0250' 0080'              	movwf	(_powf$1049+3)^(0+128)
  7726  0251' 0020               	movlb	0	; select bank0
  7727  0252' 0802'              	movf	?___flmul+2,w
  7728  0253' 0021               	movlb	1	; select bank1
  7729  0254' 0080'              	movwf	(_powf$1049+2)^(0+128)
  7730  0255' 0020               	movlb	0	; select bank0
  7731  0256' 0801'              	movf	?___flmul+1,w
  7732  0257' 0021               	movlb	1	; select bank1
  7733  0258' 0080'              	movwf	(_powf$1049+1)^(0+128)
  7734  0259' 0020               	movlb	0	; select bank0
  7735  025A' 0800'              	movf	?___flmul,w
  7736  025B' 0021               	movlb	1	; select bank1
  7737  025C' 0080'              	movwf	_powf$1049^(0+128)
  7738  025D' 3035               	movlw	53
  7739  025E' 0020               	movlb	0	; select bank0
  7740  025F' 0083'              	movwf	___flmul@b+3
  7741  0260' 30BF               	movlw	191
  7742  0261' 0082'              	movwf	___flmul@b+2
  7743  0262' 30BE               	movlw	190
  7744  0263' 0081'              	movwf	___flmul@b+1
  7745  0264' 308C               	movlw	140
  7746  0265' 0080'              	movwf	___flmul@b
  7747  0266' 0023               	movlb	3	; select bank3
  7748  0267' 0800'              	movf	(powf@t+3)^(0+384),w
  7749  0268' 0020               	movlb	0	; select bank0
  7750  0269' 0087'              	movwf	___flmul@a+3
  7751  026A' 0023               	movlb	3	; select bank3
  7752  026B' 0800'              	movf	(powf@t+2)^(0+384),w
  7753  026C' 0020               	movlb	0	; select bank0
  7754  026D' 0086'              	movwf	___flmul@a+2
  7755  026E' 0023               	movlb	3	; select bank3
  7756  026F' 0800'              	movf	(powf@t+1)^(0+384),w
  7757  0270' 0020               	movlb	0	; select bank0
  7758  0271' 0085'              	movwf	___flmul@a+1
  7759  0272' 0023               	movlb	3	; select bank3
  7760  0273' 0800'              	movf	powf@t^(0+384),w
  7761  0274' 0020               	movlb	0	; select bank0
  7762  0275' 0084'              	movwf	___flmul@a
  7763  0276' 3180' 2000' 3180'  	fcall	___flmul
  7764  0279' 0803'              	movf	?___flmul+3,w
  7765  027A' 0098'              	movwf	___fladd@b+3
  7766  027B' 0802'              	movf	?___flmul+2,w
  7767  027C' 0097'              	movwf	___fladd@b+2
  7768  027D' 0801'              	movf	?___flmul+1,w
  7769  027E' 0096'              	movwf	___fladd@b+1
  7770  027F' 0800'              	movf	?___flmul,w
  7771  0280' 0095'              	movwf	___fladd@b
  7772  0281' 0021               	movlb	1	; select bank1
  7773  0282' 0800'              	movf	(_powf$1049+3)^(0+128),w
  7774  0283' 0020               	movlb	0	; select bank0
  7775  0284' 009C'              	movwf	___fladd@a+3
  7776  0285' 0021               	movlb	1	; select bank1
  7777  0286' 0800'              	movf	(_powf$1049+2)^(0+128),w
  7778  0287' 0020               	movlb	0	; select bank0
  7779  0288' 009B'              	movwf	___fladd@a+2
  7780  0289' 0021               	movlb	1	; select bank1
  7781  028A' 0800'              	movf	(_powf$1049+1)^(0+128),w
  7782  028B' 0020               	movlb	0	; select bank0
  7783  028C' 009A'              	movwf	___fladd@a+1
  7784  028D' 0021               	movlb	1	; select bank1
  7785  028E' 0800'              	movf	_powf$1049^(0+128),w
  7786  028F' 0020               	movlb	0	; select bank0
  7787  0290' 0099'              	movwf	___fladd@a
  7788  0291' 3180' 2000' 3180'  	fcall	___fladd
  7789  0294' 0818'              	movf	?___fladd+3,w
  7790  0295' 0023               	movlb	3	; select bank3
  7791  0296' 0080'              	movwf	(powf@v+3)^(0+384)
  7792  0297' 0020               	movlb	0	; select bank0
  7793  0298' 0817'              	movf	?___fladd+2,w
  7794  0299' 0023               	movlb	3	; select bank3
  7795  029A' 0080'              	movwf	(powf@v+2)^(0+384)
  7796  029B' 0020               	movlb	0	; select bank0
  7797  029C' 0816'              	movf	?___fladd+1,w
  7798  029D' 0023               	movlb	3	; select bank3
  7799  029E' 0080'              	movwf	(powf@v+1)^(0+384)
  7800  029F' 0020               	movlb	0	; select bank0
  7801  02A0' 0815'              	movf	?___fladd,w
  7802  02A1' 0023               	movlb	3	; select bank3
  7803  02A2' 0080'              	movwf	powf@v^(0+384)
  7804  02A3' 0800'              	movf	(powf@v+3)^(0+384),w
  7805  02A4' 0020               	movlb	0	; select bank0
  7806  02A5' 0098'              	movwf	___fladd@b+3
  7807  02A6' 0023               	movlb	3	; select bank3
  7808  02A7' 0800'              	movf	(powf@v+2)^(0+384),w
  7809  02A8' 0020               	movlb	0	; select bank0
  7810  02A9' 0097'              	movwf	___fladd@b+2
  7811  02AA' 0023               	movlb	3	; select bank3
  7812  02AB' 0800'              	movf	(powf@v+1)^(0+384),w
  7813  02AC' 0020               	movlb	0	; select bank0
  7814  02AD' 0096'              	movwf	___fladd@b+1
  7815  02AE' 0023               	movlb	3	; select bank3
  7816  02AF' 0800'              	movf	powf@v^(0+384),w
  7817  02B0' 0020               	movlb	0	; select bank0
  7818  02B1' 0095'              	movwf	___fladd@b
  7819  02B2' 0022               	movlb	2	; select bank2
  7820  02B3' 0800'              	movf	(powf@u+3)^(0+256),w
  7821  02B4' 0020               	movlb	0	; select bank0
  7822  02B5' 009C'              	movwf	___fladd@a+3
  7823  02B6' 0022               	movlb	2	; select bank2
  7824  02B7' 0800'              	movf	(powf@u+2)^(0+256),w
  7825  02B8' 0020               	movlb	0	; select bank0
  7826  02B9' 009B'              	movwf	___fladd@a+2
  7827  02BA' 0022               	movlb	2	; select bank2
  7828  02BB' 0800'              	movf	(powf@u+1)^(0+256),w
  7829  02BC' 0020               	movlb	0	; select bank0
  7830  02BD' 009A'              	movwf	___fladd@a+1
  7831  02BE' 0022               	movlb	2	; select bank2
  7832  02BF' 0800'              	movf	powf@u^(0+256),w
  7833  02C0' 0020               	movlb	0	; select bank0
  7834  02C1' 0099'              	movwf	___fladd@a
  7835  02C2' 3180' 2000' 3180'  	fcall	___fladd
  7836  02C5' 0818'              	movf	?___fladd+3,w
  7837  02C6' 0023               	movlb	3	; select bank3
  7838  02C7' 0080'              	movwf	(powf@z+3)^(0+384)
  7839  02C8' 0020               	movlb	0	; select bank0
  7840  02C9' 0817'              	movf	?___fladd+2,w
  7841  02CA' 0023               	movlb	3	; select bank3
  7842  02CB' 0080'              	movwf	(powf@z+2)^(0+384)
  7843  02CC' 0020               	movlb	0	; select bank0
  7844  02CD' 0816'              	movf	?___fladd+1,w
  7845  02CE' 0023               	movlb	3	; select bank3
  7846  02CF' 0080'              	movwf	(powf@z+1)^(0+384)
  7847  02D0' 0020               	movlb	0	; select bank0
  7848  02D1' 0815'              	movf	?___fladd,w
  7849  02D2' 0023               	movlb	3	; select bank3
  7850  02D3' 0080'              	movwf	powf@z^(0+384)
  7851  02D4' 0022               	movlb	2	; select bank2
  7852  02D5' 0800'              	movf	(powf@u+3)^(0+256),w
  7853  02D6' 0020               	movlb	0	; select bank0
  7854  02D7' 00C6'              	movwf	___flsub@a+3
  7855  02D8' 0022               	movlb	2	; select bank2
  7856  02D9' 0800'              	movf	(powf@u+2)^(0+256),w
  7857  02DA' 0020               	movlb	0	; select bank0
  7858  02DB' 00C5'              	movwf	___flsub@a+2
  7859  02DC' 0022               	movlb	2	; select bank2
  7860  02DD' 0800'              	movf	(powf@u+1)^(0+256),w
  7861  02DE' 0020               	movlb	0	; select bank0
  7862  02DF' 00C4'              	movwf	___flsub@a+1
  7863  02E0' 0022               	movlb	2	; select bank2
  7864  02E1' 0800'              	movf	powf@u^(0+256),w
  7865  02E2' 0020               	movlb	0	; select bank0
  7866  02E3' 00C3'              	movwf	___flsub@a
  7867  02E4' 0023               	movlb	3	; select bank3
  7868  02E5' 0800'              	movf	(powf@z+3)^(0+384),w
  7869  02E6' 0020               	movlb	0	; select bank0
  7870  02E7' 00CA'              	movwf	___flsub@b+3
  7871  02E8' 0023               	movlb	3	; select bank3
  7872  02E9' 0800'              	movf	(powf@z+2)^(0+384),w
  7873  02EA' 0020               	movlb	0	; select bank0
  7874  02EB' 00C9'              	movwf	___flsub@b+2
  7875  02EC' 0023               	movlb	3	; select bank3
  7876  02ED' 0800'              	movf	(powf@z+1)^(0+384),w
  7877  02EE' 0020               	movlb	0	; select bank0
  7878  02EF' 00C8'              	movwf	___flsub@b+1
  7879  02F0' 0023               	movlb	3	; select bank3
  7880  02F1' 0800'              	movf	powf@z^(0+384),w
  7881  02F2' 0020               	movlb	0	; select bank0
  7882  02F3' 00C7'              	movwf	___flsub@b
  7883  02F4' 3180' 2000' 3180'  	fcall	___flsub
  7884  02F7' 0846'              	movf	?___flsub+3,w
  7885  02F8' 0023               	movlb	3	; select bank3
  7886  02F9' 0080'              	movwf	(_powf$1039+3)^(0+384)
  7887  02FA' 0020               	movlb	0	; select bank0
  7888  02FB' 0845'              	movf	?___flsub+2,w
  7889  02FC' 0023               	movlb	3	; select bank3
  7890  02FD' 0080'              	movwf	(_powf$1039+2)^(0+384)
  7891  02FE' 0020               	movlb	0	; select bank0
  7892  02FF' 0844'              	movf	?___flsub+1,w
  7893  0300' 0023               	movlb	3	; select bank3
  7894  0301' 0080'              	movwf	(_powf$1039+1)^(0+384)
  7895  0302' 0020               	movlb	0	; select bank0
  7896  0303' 0843'              	movf	?___flsub,w
  7897  0304' 0023               	movlb	3	; select bank3
  7898  0305' 0080'              	movwf	_powf$1039^(0+384)
  7899  0306' 0800'              	movf	(_powf$1039+3)^(0+384),w
  7900  0307' 0020               	movlb	0	; select bank0
  7901  0308' 00C6'              	movwf	___flsub@a+3
  7902  0309' 0023               	movlb	3	; select bank3
  7903  030A' 0800'              	movf	(_powf$1039+2)^(0+384),w
  7904  030B' 0020               	movlb	0	; select bank0
  7905  030C' 00C5'              	movwf	___flsub@a+2
  7906  030D' 0023               	movlb	3	; select bank3
  7907  030E' 0800'              	movf	(_powf$1039+1)^(0+384),w
  7908  030F' 0020               	movlb	0	; select bank0
  7909  0310' 00C4'              	movwf	___flsub@a+1
  7910  0311' 0023               	movlb	3	; select bank3
  7911  0312' 0800'              	movf	_powf$1039^(0+384),w
  7912  0313' 0020               	movlb	0	; select bank0
  7913  0314' 00C3'              	movwf	___flsub@a
  7914  0315' 0023               	movlb	3	; select bank3
  7915  0316' 0800'              	movf	(powf@v+3)^(0+384),w
  7916  0317' 0020               	movlb	0	; select bank0
  7917  0318' 00CA'              	movwf	___flsub@b+3
  7918  0319' 0023               	movlb	3	; select bank3
  7919  031A' 0800'              	movf	(powf@v+2)^(0+384),w
  7920  031B' 0020               	movlb	0	; select bank0
  7921  031C' 00C9'              	movwf	___flsub@b+2
  7922  031D' 0023               	movlb	3	; select bank3
  7923  031E' 0800'              	movf	(powf@v+1)^(0+384),w
  7924  031F' 0020               	movlb	0	; select bank0
  7925  0320' 00C8'              	movwf	___flsub@b+1
  7926  0321' 0023               	movlb	3	; select bank3
  7927  0322' 0800'              	movf	powf@v^(0+384),w
  7928  0323' 0020               	movlb	0	; select bank0
  7929  0324' 00C7'              	movwf	___flsub@b
  7930  0325' 3180' 2000' 3180'  	fcall	___flsub
  7931  0328' 0846'              	movf	?___flsub+3,w
  7932  0329' 0022               	movlb	2	; select bank2
  7933  032A' 0080'              	movwf	(powf@w+3)^(0+256)
  7934  032B' 0020               	movlb	0	; select bank0
  7935  032C' 0845'              	movf	?___flsub+2,w
  7936  032D' 0022               	movlb	2	; select bank2
  7937  032E' 0080'              	movwf	(powf@w+2)^(0+256)
  7938  032F' 0020               	movlb	0	; select bank0
  7939  0330' 0844'              	movf	?___flsub+1,w
  7940  0331' 0022               	movlb	2	; select bank2
  7941  0332' 0080'              	movwf	(powf@w+1)^(0+256)
  7942  0333' 0020               	movlb	0	; select bank0
  7943  0334' 0843'              	movf	?___flsub,w
  7944  0335' 0022               	movlb	2	; select bank2
  7945  0336' 0080'              	movwf	powf@w^(0+256)
  7946  0337' 0023               	movlb	3	; select bank3
  7947  0338' 0800'              	movf	(powf@z+3)^(0+384),w
  7948  0339' 0020               	movlb	0	; select bank0
  7949  033A' 0083'              	movwf	___flmul@b+3
  7950  033B' 0023               	movlb	3	; select bank3
  7951  033C' 0800'              	movf	(powf@z+2)^(0+384),w
  7952  033D' 0020               	movlb	0	; select bank0
  7953  033E' 0082'              	movwf	___flmul@b+2
  7954  033F' 0023               	movlb	3	; select bank3
  7955  0340' 0800'              	movf	(powf@z+1)^(0+384),w
  7956  0341' 0020               	movlb	0	; select bank0
  7957  0342' 0081'              	movwf	___flmul@b+1
  7958  0343' 0023               	movlb	3	; select bank3
  7959  0344' 0800'              	movf	powf@z^(0+384),w
  7960  0345' 0020               	movlb	0	; select bank0
  7961  0346' 0080'              	movwf	___flmul@b
  7962  0347' 0023               	movlb	3	; select bank3
  7963  0348' 0800'              	movf	(powf@z+3)^(0+384),w
  7964  0349' 0020               	movlb	0	; select bank0
  7965  034A' 0087'              	movwf	___flmul@a+3
  7966  034B' 0023               	movlb	3	; select bank3
  7967  034C' 0800'              	movf	(powf@z+2)^(0+384),w
  7968  034D' 0020               	movlb	0	; select bank0
  7969  034E' 0086'              	movwf	___flmul@a+2
  7970  034F' 0023               	movlb	3	; select bank3
  7971  0350' 0800'              	movf	(powf@z+1)^(0+384),w
  7972  0351' 0020               	movlb	0	; select bank0
  7973  0352' 0085'              	movwf	___flmul@a+1
  7974  0353' 0023               	movlb	3	; select bank3
  7975  0354' 0800'              	movf	powf@z^(0+384),w
  7976  0355' 0020               	movlb	0	; select bank0
  7977  0356' 0084'              	movwf	___flmul@a
  7978  0357' 3180' 2000' 3180'  	fcall	___flmul
  7979  035A' 0803'              	movf	?___flmul+3,w
  7980  035B' 0023               	movlb	3	; select bank3
  7981  035C' 0080'              	movwf	(powf@t+3)^(0+384)
  7982  035D' 0020               	movlb	0	; select bank0
  7983  035E' 0802'              	movf	?___flmul+2,w
  7984  035F' 0023               	movlb	3	; select bank3
  7985  0360' 0080'              	movwf	(powf@t+2)^(0+384)
  7986  0361' 0020               	movlb	0	; select bank0
  7987  0362' 0801'              	movf	?___flmul+1,w
  7988  0363' 0023               	movlb	3	; select bank3
  7989  0364' 0080'              	movwf	(powf@t+1)^(0+384)
  7990  0365' 0020               	movlb	0	; select bank0
  7991  0366' 0800'              	movf	?___flmul,w
  7992  0367' 0023               	movlb	3	; select bank3
  7993  0368' 0080'              	movwf	powf@t^(0+384)
  7994  0369' 30B5               	movlw	181
  7995  036A' 0020               	movlb	0	; select bank0
  7996  036B' 0098'              	movwf	___fladd@b+3
  7997  036C' 30DD               	movlw	221
  7998  036D' 0097'              	movwf	___fladd@b+2
  7999  036E' 30EA               	movlw	234
  8000  036F' 0096'              	movwf	___fladd@b+1
  8001  0370' 300E               	movlw	14
  8002  0371' 0095'              	movwf	___fladd@b
  8003  0372' 3033               	movlw	51
  8004  0373' 0083'              	movwf	___flmul@b+3
  8005  0374' 3031               	movlw	49
  8006  0375' 0082'              	movwf	___flmul@b+2
  8007  0376' 30BB               	movlw	187
  8008  0377' 0081'              	movwf	___flmul@b+1
  8009  0378' 304C               	movlw	76
  8010  0379' 0080'              	movwf	___flmul@b
  8011  037A' 0023               	movlb	3	; select bank3
  8012  037B' 0800'              	movf	(powf@t+3)^(0+384),w
  8013  037C' 0020               	movlb	0	; select bank0
  8014  037D' 0087'              	movwf	___flmul@a+3
  8015  037E' 0023               	movlb	3	; select bank3
  8016  037F' 0800'              	movf	(powf@t+2)^(0+384),w
  8017  0380' 0020               	movlb	0	; select bank0
  8018  0381' 0086'              	movwf	___flmul@a+2
  8019  0382' 0023               	movlb	3	; select bank3
  8020  0383' 0800'              	movf	(powf@t+1)^(0+384),w
  8021  0384' 0020               	movlb	0	; select bank0
  8022  0385' 0085'              	movwf	___flmul@a+1
  8023  0386' 0023               	movlb	3	; select bank3
  8024  0387' 0800'              	movf	powf@t^(0+384),w
  8025  0388' 0020               	movlb	0	; select bank0
  8026  0389' 0084'              	movwf	___flmul@a
  8027  038A' 3180' 2000' 3180'  	fcall	___flmul
  8028  038D' 0803'              	movf	?___flmul+3,w
  8029  038E' 009C'              	movwf	___fladd@a+3
  8030  038F' 0802'              	movf	?___flmul+2,w
  8031  0390' 009B'              	movwf	___fladd@a+2
  8032  0391' 0801'              	movf	?___flmul+1,w
  8033  0392' 009A'              	movwf	___fladd@a+1
  8034  0393' 0800'              	movf	?___flmul,w
  8035  0394' 0099'              	movwf	___fladd@a
  8036  0395' 3180' 2000' 3180'  	fcall	___fladd
  8037  0398' 0818'              	movf	?___fladd+3,w
  8038  0399' 0022               	movlb	2	; select bank2
  8039  039A' 0080'              	movwf	(_powf$1036+3)^(0+256)
  8040  039B' 0020               	movlb	0	; select bank0
  8041  039C' 0817'              	movf	?___fladd+2,w
  8042  039D' 0022               	movlb	2	; select bank2
  8043  039E' 0080'              	movwf	(_powf$1036+2)^(0+256)
  8044  039F' 0020               	movlb	0	; select bank0
  8045  03A0' 0816'              	movf	?___fladd+1,w
  8046  03A1' 0022               	movlb	2	; select bank2
  8047  03A2' 0080'              	movwf	(_powf$1036+1)^(0+256)
  8048  03A3' 0020               	movlb	0	; select bank0
  8049  03A4' 0815'              	movf	?___fladd,w
  8050  03A5' 0022               	movlb	2	; select bank2
  8051  03A6' 0080'              	movwf	_powf$1036^(0+256)
  8052  03A7' 3038               	movlw	56
  8053  03A8' 0020               	movlb	0	; select bank0
  8054  03A9' 0098'              	movwf	___fladd@b+3
  8055  03AA' 308A               	movlw	138
  8056  03AB' 0097'              	movwf	___fladd@b+2
  8057  03AC' 30B3               	movlw	179
  8058  03AD' 0096'              	movwf	___fladd@b+1
  8059  03AE' 3055               	movlw	85
  8060  03AF' 0095'              	movwf	___fladd@b
  8061  03B0' 0023               	movlb	3	; select bank3
  8062  03B1' 0800'              	movf	(powf@t+3)^(0+384),w
  8063  03B2' 0020               	movlb	0	; select bank0
  8064  03B3' 0083'              	movwf	___flmul@b+3
  8065  03B4' 0023               	movlb	3	; select bank3
  8066  03B5' 0800'              	movf	(powf@t+2)^(0+384),w
  8067  03B6' 0020               	movlb	0	; select bank0
  8068  03B7' 0082'              	movwf	___flmul@b+2
  8069  03B8' 0023               	movlb	3	; select bank3
  8070  03B9' 0800'              	movf	(powf@t+1)^(0+384),w
  8071  03BA' 0020               	movlb	0	; select bank0
  8072  03BB' 0081'              	movwf	___flmul@b+1
  8073  03BC' 0023               	movlb	3	; select bank3
  8074  03BD' 0800'              	movf	powf@t^(0+384),w
  8075  03BE' 0020               	movlb	0	; select bank0
  8076  03BF' 0080'              	movwf	___flmul@b
  8077  03C0' 0022               	movlb	2	; select bank2
  8078  03C1' 0800'              	movf	(_powf$1036+3)^(0+256),w
  8079  03C2' 0020               	movlb	0	; select bank0
  8080  03C3' 0087'              	movwf	___flmul@a+3
  8081  03C4' 0022               	movlb	2	; select bank2
  8082  03C5' 0800'              	movf	(_powf$1036+2)^(0+256),w
  8083  03C6' 0020               	movlb	0	; select bank0
  8084  03C7' 0086'              	movwf	___flmul@a+2
  8085  03C8' 0022               	movlb	2	; select bank2
  8086  03C9' 0800'              	movf	(_powf$1036+1)^(0+256),w
  8087  03CA' 0020               	movlb	0	; select bank0
  8088  03CB' 0085'              	movwf	___flmul@a+1
  8089  03CC' 0022               	movlb	2	; select bank2
  8090  03CD' 0800'              	movf	_powf$1036^(0+256),w
  8091  03CE' 0020               	movlb	0	; select bank0
  8092  03CF' 0084'              	movwf	___flmul@a
  8093  03D0' 3180' 2000' 3180'  	fcall	___flmul
  8094  03D3' 0803'              	movf	?___flmul+3,w
  8095  03D4' 009C'              	movwf	___fladd@a+3
  8096  03D5' 0802'              	movf	?___flmul+2,w
  8097  03D6' 009B'              	movwf	___fladd@a+2
  8098  03D7' 0801'              	movf	?___flmul+1,w
  8099  03D8' 009A'              	movwf	___fladd@a+1
  8100  03D9' 0800'              	movf	?___flmul,w
  8101  03DA' 0099'              	movwf	___fladd@a
  8102  03DB' 3180' 2000' 3180'  	fcall	___fladd
  8103  03DE' 0818'              	movf	?___fladd+3,w
  8104  03DF' 0022               	movlb	2	; select bank2
  8105  03E0' 0080'              	movwf	(_powf$1037+3)^(0+256)
  8106  03E1' 0020               	movlb	0	; select bank0
  8107  03E2' 0817'              	movf	?___fladd+2,w
  8108  03E3' 0022               	movlb	2	; select bank2
  8109  03E4' 0080'              	movwf	(_powf$1037+2)^(0+256)
  8110  03E5' 0020               	movlb	0	; select bank0
  8111  03E6' 0816'              	movf	?___fladd+1,w
  8112  03E7' 0022               	movlb	2	; select bank2
  8113  03E8' 0080'              	movwf	(_powf$1037+1)^(0+256)
  8114  03E9' 0020               	movlb	0	; select bank0
  8115  03EA' 0815'              	movf	?___fladd,w
  8116  03EB' 0022               	movlb	2	; select bank2
  8117  03EC' 0080'              	movwf	_powf$1037^(0+256)
  8118  03ED' 30BB               	movlw	187
  8119  03EE' 0020               	movlb	0	; select bank0
  8120  03EF' 0098'              	movwf	___fladd@b+3
  8121  03F0' 3036               	movlw	54
  8122  03F1' 0097'              	movwf	___fladd@b+2
  8123  03F2' 300B               	movlw	11
  8124  03F3' 0096'              	movwf	___fladd@b+1
  8125  03F4' 3061               	movlw	97
  8126  03F5' 0095'              	movwf	___fladd@b
  8127  03F6' 0023               	movlb	3	; select bank3
  8128  03F7' 0800'              	movf	(powf@t+3)^(0+384),w
  8129  03F8' 0020               	movlb	0	; select bank0
  8130  03F9' 0083'              	movwf	___flmul@b+3
  8131  03FA' 0023               	movlb	3	; select bank3
  8132  03FB' 0800'              	movf	(powf@t+2)^(0+384),w
  8133  03FC' 0020               	movlb	0	; select bank0
  8134  03FD' 0082'              	movwf	___flmul@b+2
  8135  03FE' 0023               	movlb	3	; select bank3
  8136  03FF' 0800'              	movf	(powf@t+1)^(0+384),w
  8137  0400' 0020               	movlb	0	; select bank0
  8138  0401' 0081'              	movwf	___flmul@b+1
  8139  0402' 0023               	movlb	3	; select bank3
  8140  0403' 0800'              	movf	powf@t^(0+384),w
  8141  0404' 0020               	movlb	0	; select bank0
  8142  0405' 0080'              	movwf	___flmul@b
  8143  0406' 0022               	movlb	2	; select bank2
  8144  0407' 0800'              	movf	(_powf$1037+3)^(0+256),w
  8145  0408' 0020               	movlb	0	; select bank0
  8146  0409' 0087'              	movwf	___flmul@a+3
  8147  040A' 0022               	movlb	2	; select bank2
  8148  040B' 0800'              	movf	(_powf$1037+2)^(0+256),w
  8149  040C' 0020               	movlb	0	; select bank0
  8150  040D' 0086'              	movwf	___flmul@a+2
  8151  040E' 0022               	movlb	2	; select bank2
  8152  040F' 0800'              	movf	(_powf$1037+1)^(0+256),w
  8153  0410' 0020               	movlb	0	; select bank0
  8154  0411' 0085'              	movwf	___flmul@a+1
  8155  0412' 0022               	movlb	2	; select bank2
  8156  0413' 0800'              	movf	_powf$1037^(0+256),w
  8157  0414' 0020               	movlb	0	; select bank0
  8158  0415' 0084'              	movwf	___flmul@a
  8159  0416' 3180' 2000' 3180'  	fcall	___flmul
  8160  0419' 0803'              	movf	?___flmul+3,w
  8161  041A' 009C'              	movwf	___fladd@a+3
  8162  041B' 0802'              	movf	?___flmul+2,w
  8163  041C' 009B'              	movwf	___fladd@a+2
  8164  041D' 0801'              	movf	?___flmul+1,w
  8165  041E' 009A'              	movwf	___fladd@a+1
  8166  041F' 0800'              	movf	?___flmul,w
  8167  0420' 0099'              	movwf	___fladd@a
  8168  0421' 3180' 2000' 3180'  	fcall	___fladd
  8169  0424' 0818'              	movf	?___fladd+3,w
  8170  0425' 0022               	movlb	2	; select bank2
  8171  0426' 0080'              	movwf	(_powf$1038+3)^(0+256)
  8172  0427' 0020               	movlb	0	; select bank0
  8173  0428' 0817'              	movf	?___fladd+2,w
  8174  0429' 0022               	movlb	2	; select bank2
  8175  042A' 0080'              	movwf	(_powf$1038+2)^(0+256)
  8176  042B' 0020               	movlb	0	; select bank0
  8177  042C' 0816'              	movf	?___fladd+1,w
  8178  042D' 0022               	movlb	2	; select bank2
  8179  042E' 0080'              	movwf	(_powf$1038+1)^(0+256)
  8180  042F' 0020               	movlb	0	; select bank0
  8181  0430' 0815'              	movf	?___fladd,w
  8182  0431' 0022               	movlb	2	; select bank2
  8183  0432' 0080'              	movwf	_powf$1038^(0+256)
  8184  0433' 303E               	movlw	62
  8185  0434' 0020               	movlb	0	; select bank0
  8186  0435' 0098'              	movwf	___fladd@b+3
  8187  0436' 302A               	movlw	42
  8188  0437' 0097'              	movwf	___fladd@b+2
  8189  0438' 30AA               	movlw	170
  8190  0439' 0096'              	movwf	___fladd@b+1
  8191  043A' 30AB               	movlw	171
  8192  043B' 0095'              	movwf	___fladd@b
  8193  043C' 0023               	movlb	3	; select bank3
  8194  043D' 0800'              	movf	(powf@t+3)^(0+384),w
  8195  043E' 0020               	movlb	0	; select bank0
  8196  043F' 0083'              	movwf	___flmul@b+3
  8197  0440' 0023               	movlb	3	; select bank3
  8198  0441' 0800'              	movf	(powf@t+2)^(0+384),w
  8199  0442' 0020               	movlb	0	; select bank0
  8200  0443' 0082'              	movwf	___flmul@b+2
  8201  0444' 0023               	movlb	3	; select bank3
  8202  0445' 0800'              	movf	(powf@t+1)^(0+384),w
  8203  0446' 0020               	movlb	0	; select bank0
  8204  0447' 0081'              	movwf	___flmul@b+1
  8205  0448' 0023               	movlb	3	; select bank3
  8206  0449' 0800'              	movf	powf@t^(0+384),w
  8207  044A' 0020               	movlb	0	; select bank0
  8208  044B' 0080'              	movwf	___flmul@b
  8209  044C' 0022               	movlb	2	; select bank2
  8210  044D' 0800'              	movf	(_powf$1038+3)^(0+256),w
  8211  044E' 0020               	movlb	0	; select bank0
  8212  044F' 0087'              	movwf	___flmul@a+3
  8213  0450' 0022               	movlb	2	; select bank2
  8214  0451' 0800'              	movf	(_powf$1038+2)^(0+256),w
  8215  0452' 0020               	movlb	0	; select bank0
  8216  0453' 0086'              	movwf	___flmul@a+2
  8217  0454' 0022               	movlb	2	; select bank2
  8218  0455' 0800'              	movf	(_powf$1038+1)^(0+256),w
  8219  0456' 0020               	movlb	0	; select bank0
  8220  0457' 0085'              	movwf	___flmul@a+1
  8221  0458' 0022               	movlb	2	; select bank2
  8222  0459' 0800'              	movf	_powf$1038^(0+256),w
  8223  045A' 0020               	movlb	0	; select bank0
  8224  045B' 0084'              	movwf	___flmul@a
  8225  045C' 3180' 2000' 3180'  	fcall	___flmul
  8226  045F' 0803'              	movf	?___flmul+3,w
  8227  0460' 009C'              	movwf	___fladd@a+3
  8228  0461' 0802'              	movf	?___flmul+2,w
  8229  0462' 009B'              	movwf	___fladd@a+2
  8230  0463' 0801'              	movf	?___flmul+1,w
  8231  0464' 009A'              	movwf	___fladd@a+1
  8232  0465' 0800'              	movf	?___flmul,w
  8233  0466' 0099'              	movwf	___fladd@a
  8234  0467' 3180' 2000' 3180'  	fcall	___fladd
  8235  046A' 0818'              	movf	?___fladd+3,w
  8236  046B' 0022               	movlb	2	; select bank2
  8237  046C' 0080'              	movwf	(_powf$1040+3)^(0+256)
  8238  046D' 0020               	movlb	0	; select bank0
  8239  046E' 0817'              	movf	?___fladd+2,w
  8240  046F' 0022               	movlb	2	; select bank2
  8241  0470' 0080'              	movwf	(_powf$1040+2)^(0+256)
  8242  0471' 0020               	movlb	0	; select bank0
  8243  0472' 0816'              	movf	?___fladd+1,w
  8244  0473' 0022               	movlb	2	; select bank2
  8245  0474' 0080'              	movwf	(_powf$1040+1)^(0+256)
  8246  0475' 0020               	movlb	0	; select bank0
  8247  0476' 0815'              	movf	?___fladd,w
  8248  0477' 0022               	movlb	2	; select bank2
  8249  0478' 0080'              	movwf	_powf$1040^(0+256)
  8250  0479' 0023               	movlb	3	; select bank3
  8251  047A' 0800'              	movf	(powf@t+3)^(0+384),w
  8252  047B' 0020               	movlb	0	; select bank0
  8253  047C' 0083'              	movwf	___flmul@b+3
  8254  047D' 0023               	movlb	3	; select bank3
  8255  047E' 0800'              	movf	(powf@t+2)^(0+384),w
  8256  047F' 0020               	movlb	0	; select bank0
  8257  0480' 0082'              	movwf	___flmul@b+2
  8258  0481' 0023               	movlb	3	; select bank3
  8259  0482' 0800'              	movf	(powf@t+1)^(0+384),w
  8260  0483' 0020               	movlb	0	; select bank0
  8261  0484' 0081'              	movwf	___flmul@b+1
  8262  0485' 0023               	movlb	3	; select bank3
  8263  0486' 0800'              	movf	powf@t^(0+384),w
  8264  0487' 0020               	movlb	0	; select bank0
  8265  0488' 0080'              	movwf	___flmul@b
  8266  0489' 0022               	movlb	2	; select bank2
  8267  048A' 0800'              	movf	(_powf$1040+3)^(0+256),w
  8268  048B' 0020               	movlb	0	; select bank0
  8269  048C' 0087'              	movwf	___flmul@a+3
  8270  048D' 0022               	movlb	2	; select bank2
  8271  048E' 0800'              	movf	(_powf$1040+2)^(0+256),w
  8272  048F' 0020               	movlb	0	; select bank0
  8273  0490' 0086'              	movwf	___flmul@a+2
  8274  0491' 0022               	movlb	2	; select bank2
  8275  0492' 0800'              	movf	(_powf$1040+1)^(0+256),w
  8276  0493' 0020               	movlb	0	; select bank0
  8277  0494' 0085'              	movwf	___flmul@a+1
  8278  0495' 0022               	movlb	2	; select bank2
  8279  0496' 0800'              	movf	_powf$1040^(0+256),w
  8280  0497' 0020               	movlb	0	; select bank0
  8281  0498' 0084'              	movwf	___flmul@a
  8282  0499' 3180' 2000' 3180'  	fcall	___flmul
  8283  049C' 0803'              	movf	?___flmul+3,w
  8284  049D' 00C6'              	movwf	___flsub@a+3
  8285  049E' 0802'              	movf	?___flmul+2,w
  8286  049F' 00C5'              	movwf	___flsub@a+2
  8287  04A0' 0801'              	movf	?___flmul+1,w
  8288  04A1' 00C4'              	movwf	___flsub@a+1
  8289  04A2' 0800'              	movf	?___flmul,w
  8290  04A3' 00C3'              	movwf	___flsub@a
  8291  04A4' 0023               	movlb	3	; select bank3
  8292  04A5' 0800'              	movf	(powf@z+3)^(0+384),w
  8293  04A6' 0020               	movlb	0	; select bank0
  8294  04A7' 00CA'              	movwf	___flsub@b+3
  8295  04A8' 0023               	movlb	3	; select bank3
  8296  04A9' 0800'              	movf	(powf@z+2)^(0+384),w
  8297  04AA' 0020               	movlb	0	; select bank0
  8298  04AB' 00C9'              	movwf	___flsub@b+2
  8299  04AC' 0023               	movlb	3	; select bank3
  8300  04AD' 0800'              	movf	(powf@z+1)^(0+384),w
  8301  04AE' 0020               	movlb	0	; select bank0
  8302  04AF' 00C8'              	movwf	___flsub@b+1
  8303  04B0' 0023               	movlb	3	; select bank3
  8304  04B1' 0800'              	movf	powf@z^(0+384),w
  8305  04B2' 0020               	movlb	0	; select bank0
  8306  04B3' 00C7'              	movwf	___flsub@b
  8307  04B4' 3180' 2000' 3180'  	fcall	___flsub
  8308  04B7' 0846'              	movf	?___flsub+3,w
  8309  04B8' 0023               	movlb	3	; select bank3
  8310  04B9' 0080'              	movwf	(powf@t1+3)^(0+384)
  8311  04BA' 0020               	movlb	0	; select bank0
  8312  04BB' 0845'              	movf	?___flsub+2,w
  8313  04BC' 0023               	movlb	3	; select bank3
  8314  04BD' 0080'              	movwf	(powf@t1+2)^(0+384)
  8315  04BE' 0020               	movlb	0	; select bank0
  8316  04BF' 0844'              	movf	?___flsub+1,w
  8317  04C0' 0023               	movlb	3	; select bank3
  8318  04C1' 0080'              	movwf	(powf@t1+1)^(0+384)
  8319  04C2' 0020               	movlb	0	; select bank0
  8320  04C3' 0843'              	movf	?___flsub,w
  8321  04C4' 0023               	movlb	3	; select bank3
  8322  04C5' 0080'              	movwf	powf@t1^(0+384)
  8323  04C6' 0022               	movlb	2	; select bank2
  8324  04C7' 0800'              	movf	(powf@w+3)^(0+256),w
  8325  04C8' 0020               	movlb	0	; select bank0
  8326  04C9' 0098'              	movwf	___fladd@b+3
  8327  04CA' 0022               	movlb	2	; select bank2
  8328  04CB' 0800'              	movf	(powf@w+2)^(0+256),w
  8329  04CC' 0020               	movlb	0	; select bank0
  8330  04CD' 0097'              	movwf	___fladd@b+2
  8331  04CE' 0022               	movlb	2	; select bank2
  8332  04CF' 0800'              	movf	(powf@w+1)^(0+256),w
  8333  04D0' 0020               	movlb	0	; select bank0
  8334  04D1' 0096'              	movwf	___fladd@b+1
  8335  04D2' 0022               	movlb	2	; select bank2
  8336  04D3' 0800'              	movf	powf@w^(0+256),w
  8337  04D4' 0020               	movlb	0	; select bank0
  8338  04D5' 0095'              	movwf	___fladd@b
  8339  04D6' 0022               	movlb	2	; select bank2
  8340  04D7' 0800'              	movf	(powf@w+3)^(0+256),w
  8341  04D8' 0020               	movlb	0	; select bank0
  8342  04D9' 0083'              	movwf	___flmul@b+3
  8343  04DA' 0022               	movlb	2	; select bank2
  8344  04DB' 0800'              	movf	(powf@w+2)^(0+256),w
  8345  04DC' 0020               	movlb	0	; select bank0
  8346  04DD' 0082'              	movwf	___flmul@b+2
  8347  04DE' 0022               	movlb	2	; select bank2
  8348  04DF' 0800'              	movf	(powf@w+1)^(0+256),w
  8349  04E0' 0020               	movlb	0	; select bank0
  8350  04E1' 0081'              	movwf	___flmul@b+1
  8351  04E2' 0022               	movlb	2	; select bank2
  8352  04E3' 0800'              	movf	powf@w^(0+256),w
  8353  04E4' 0020               	movlb	0	; select bank0
  8354  04E5' 0080'              	movwf	___flmul@b
  8355  04E6' 0023               	movlb	3	; select bank3
  8356  04E7' 0800'              	movf	(powf@z+3)^(0+384),w
  8357  04E8' 0020               	movlb	0	; select bank0
  8358  04E9' 0087'              	movwf	___flmul@a+3
  8359  04EA' 0023               	movlb	3	; select bank3
  8360  04EB' 0800'              	movf	(powf@z+2)^(0+384),w
  8361  04EC' 0020               	movlb	0	; select bank0
  8362  04ED' 0086'              	movwf	___flmul@a+2
  8363  04EE' 0023               	movlb	3	; select bank3
  8364  04EF' 0800'              	movf	(powf@z+1)^(0+384),w
  8365  04F0' 0020               	movlb	0	; select bank0
  8366  04F1' 0085'              	movwf	___flmul@a+1
  8367  04F2' 0023               	movlb	3	; select bank3
  8368  04F3' 0800'              	movf	powf@z^(0+384),w
  8369  04F4' 0020               	movlb	0	; select bank0
  8370  04F5' 0084'              	movwf	___flmul@a
  8371  04F6' 3180' 2000' 3180'  	fcall	___flmul
  8372  04F9' 0803'              	movf	?___flmul+3,w
  8373  04FA' 009C'              	movwf	___fladd@a+3
  8374  04FB' 0802'              	movf	?___flmul+2,w
  8375  04FC' 009B'              	movwf	___fladd@a+2
  8376  04FD' 0801'              	movf	?___flmul+1,w
  8377  04FE' 009A'              	movwf	___fladd@a+1
  8378  04FF' 0800'              	movf	?___flmul,w
  8379  0500' 0099'              	movwf	___fladd@a
  8380  0501' 3180' 2000' 3180'  	fcall	___fladd
  8381  0504' 0818'              	movf	?___fladd+3,w
  8382  0505' 0022               	movlb	2	; select bank2
  8383  0506' 0080'              	movwf	(_powf$1044+3)^(0+256)
  8384  0507' 0020               	movlb	0	; select bank0
  8385  0508' 0817'              	movf	?___fladd+2,w
  8386  0509' 0022               	movlb	2	; select bank2
  8387  050A' 0080'              	movwf	(_powf$1044+2)^(0+256)
  8388  050B' 0020               	movlb	0	; select bank0
  8389  050C' 0816'              	movf	?___fladd+1,w
  8390  050D' 0022               	movlb	2	; select bank2
  8391  050E' 0080'              	movwf	(_powf$1044+1)^(0+256)
  8392  050F' 0020               	movlb	0	; select bank0
  8393  0510' 0815'              	movf	?___fladd,w
  8394  0511' 0022               	movlb	2	; select bank2
  8395  0512' 0080'              	movwf	_powf$1044^(0+256)
  8396  0513' 30C0               	movlw	192
  8397  0514' 0020               	movlb	0	; select bank0
  8398  0515' 0098'              	movwf	___fladd@b+3
  8399  0516' 3000               	movlw	0
  8400  0517' 0097'              	movwf	___fladd@b+2
  8401  0518' 3000               	movlw	0
  8402  0519' 0096'              	movwf	___fladd@b+1
  8403  051A' 3000               	movlw	0
  8404  051B' 0095'              	movwf	___fladd@b
  8405  051C' 0023               	movlb	3	; select bank3
  8406  051D' 0800'              	movf	(powf@t1+3)^(0+384),w
  8407  051E' 0020               	movlb	0	; select bank0
  8408  051F' 009C'              	movwf	___fladd@a+3
  8409  0520' 0023               	movlb	3	; select bank3
  8410  0521' 0800'              	movf	(powf@t1+2)^(0+384),w
  8411  0522' 0020               	movlb	0	; select bank0
  8412  0523' 009B'              	movwf	___fladd@a+2
  8413  0524' 0023               	movlb	3	; select bank3
  8414  0525' 0800'              	movf	(powf@t1+1)^(0+384),w
  8415  0526' 0020               	movlb	0	; select bank0
  8416  0527' 009A'              	movwf	___fladd@a+1
  8417  0528' 0023               	movlb	3	; select bank3
  8418  0529' 0800'              	movf	powf@t1^(0+384),w
  8419  052A' 0020               	movlb	0	; select bank0
  8420  052B' 0099'              	movwf	___fladd@a
  8421  052C' 3180' 2000' 3180'  	fcall	___fladd
  8422  052F' 0818'              	movf	?___fladd+3,w
  8423  0530' 00AC'              	movwf	___fldiv@a+3
  8424  0531' 0817'              	movf	?___fladd+2,w
  8425  0532' 00AB'              	movwf	___fldiv@a+2
  8426  0533' 0816'              	movf	?___fladd+1,w
  8427  0534' 00AA'              	movwf	___fldiv@a+1
  8428  0535' 0815'              	movf	?___fladd,w
  8429  0536' 00A9'              	movwf	___fldiv@a
  8430  0537' 0023               	movlb	3	; select bank3
  8431  0538' 0800'              	movf	(powf@t1+3)^(0+384),w
  8432  0539' 0020               	movlb	0	; select bank0
  8433  053A' 0083'              	movwf	___flmul@b+3
  8434  053B' 0023               	movlb	3	; select bank3
  8435  053C' 0800'              	movf	(powf@t1+2)^(0+384),w
  8436  053D' 0020               	movlb	0	; select bank0
  8437  053E' 0082'              	movwf	___flmul@b+2
  8438  053F' 0023               	movlb	3	; select bank3
  8439  0540' 0800'              	movf	(powf@t1+1)^(0+384),w
  8440  0541' 0020               	movlb	0	; select bank0
  8441  0542' 0081'              	movwf	___flmul@b+1
  8442  0543' 0023               	movlb	3	; select bank3
  8443  0544' 0800'              	movf	powf@t1^(0+384),w
  8444  0545' 0020               	movlb	0	; select bank0
  8445  0546' 0080'              	movwf	___flmul@b
  8446  0547' 0023               	movlb	3	; select bank3
  8447  0548' 0800'              	movf	(powf@z+3)^(0+384),w
  8448  0549' 0020               	movlb	0	; select bank0
  8449  054A' 0087'              	movwf	___flmul@a+3
  8450  054B' 0023               	movlb	3	; select bank3
  8451  054C' 0800'              	movf	(powf@z+2)^(0+384),w
  8452  054D' 0020               	movlb	0	; select bank0
  8453  054E' 0086'              	movwf	___flmul@a+2
  8454  054F' 0023               	movlb	3	; select bank3
  8455  0550' 0800'              	movf	(powf@z+1)^(0+384),w
  8456  0551' 0020               	movlb	0	; select bank0
  8457  0552' 0085'              	movwf	___flmul@a+1
  8458  0553' 0023               	movlb	3	; select bank3
  8459  0554' 0800'              	movf	powf@z^(0+384),w
  8460  0555' 0020               	movlb	0	; select bank0
  8461  0556' 0084'              	movwf	___flmul@a
  8462  0557' 3180' 2000' 3180'  	fcall	___flmul
  8463  055A' 0803'              	movf	?___flmul+3,w
  8464  055B' 00B0'              	movwf	___fldiv@b+3
  8465  055C' 0802'              	movf	?___flmul+2,w
  8466  055D' 00AF'              	movwf	___fldiv@b+2
  8467  055E' 0801'              	movf	?___flmul+1,w
  8468  055F' 00AE'              	movwf	___fldiv@b+1
  8469  0560' 0800'              	movf	?___flmul,w
  8470  0561' 00AD'              	movwf	___fldiv@b
  8471  0562' 3180' 2000' 3180'  	fcall	___fldiv
  8472  0565' 082C'              	movf	?___fldiv+3,w
  8473  0566' 0021               	movlb	1	; select bank1
  8474  0567' 0080'              	movwf	(_powf$1050+3)^(0+128)
  8475  0568' 0020               	movlb	0	; select bank0
  8476  0569' 082B'              	movf	?___fldiv+2,w
  8477  056A' 0021               	movlb	1	; select bank1
  8478  056B' 0080'              	movwf	(_powf$1050+2)^(0+128)
  8479  056C' 0020               	movlb	0	; select bank0
  8480  056D' 082A'              	movf	?___fldiv+1,w
  8481  056E' 0021               	movlb	1	; select bank1
  8482  056F' 0080'              	movwf	(_powf$1050+1)^(0+128)
  8483  0570' 0020               	movlb	0	; select bank0
  8484  0571' 0829'              	movf	?___fldiv,w
  8485  0572' 0021               	movlb	1	; select bank1
  8486  0573' 0080'              	movwf	_powf$1050^(0+128)
  8487  0574' 0022               	movlb	2	; select bank2
  8488  0575' 0800'              	movf	(_powf$1044+3)^(0+256),w
  8489  0576' 0020               	movlb	0	; select bank0
  8490  0577' 00C6'              	movwf	___flsub@a+3
  8491  0578' 0022               	movlb	2	; select bank2
  8492  0579' 0800'              	movf	(_powf$1044+2)^(0+256),w
  8493  057A' 0020               	movlb	0	; select bank0
  8494  057B' 00C5'              	movwf	___flsub@a+2
  8495  057C' 0022               	movlb	2	; select bank2
  8496  057D' 0800'              	movf	(_powf$1044+1)^(0+256),w
  8497  057E' 0020               	movlb	0	; select bank0
  8498  057F' 00C4'              	movwf	___flsub@a+1
  8499  0580' 0022               	movlb	2	; select bank2
  8500  0581' 0800'              	movf	_powf$1044^(0+256),w
  8501  0582' 0020               	movlb	0	; select bank0
  8502  0583' 00C3'              	movwf	___flsub@a
  8503  0584' 0021               	movlb	1	; select bank1
  8504  0585' 0800'              	movf	(_powf$1050+3)^(0+128),w
  8505  0586' 0020               	movlb	0	; select bank0
  8506  0587' 00CA'              	movwf	___flsub@b+3
  8507  0588' 0021               	movlb	1	; select bank1
  8508  0589' 0800'              	movf	(_powf$1050+2)^(0+128),w
  8509  058A' 0020               	movlb	0	; select bank0
  8510  058B' 00C9'              	movwf	___flsub@b+2
  8511  058C' 0021               	movlb	1	; select bank1
  8512  058D' 0800'              	movf	(_powf$1050+1)^(0+128),w
  8513  058E' 0020               	movlb	0	; select bank0
  8514  058F' 00C8'              	movwf	___flsub@b+1
  8515  0590' 0021               	movlb	1	; select bank1
  8516  0591' 0800'              	movf	_powf$1050^(0+128),w
  8517  0592' 0020               	movlb	0	; select bank0
  8518  0593' 00C7'              	movwf	___flsub@b
  8519  0594' 3180' 2000' 3180'  	fcall	___flsub
  8520  0597' 0846'              	movf	?___flsub+3,w
  8521  0598' 0022               	movlb	2	; select bank2
  8522  0599' 0080'              	movwf	(powf@r+3)^(0+256)
  8523  059A' 0020               	movlb	0	; select bank0
  8524  059B' 0845'              	movf	?___flsub+2,w
  8525  059C' 0022               	movlb	2	; select bank2
  8526  059D' 0080'              	movwf	(powf@r+2)^(0+256)
  8527  059E' 0020               	movlb	0	; select bank0
  8528  059F' 0844'              	movf	?___flsub+1,w
  8529  05A0' 0022               	movlb	2	; select bank2
  8530  05A1' 0080'              	movwf	(powf@r+1)^(0+256)
  8531  05A2' 0020               	movlb	0	; select bank0
  8532  05A3' 0843'              	movf	?___flsub,w
  8533  05A4' 0022               	movlb	2	; select bank2
  8534  05A5' 0080'              	movwf	powf@r^(0+256)
  8535  05A6' 0023               	movlb	3	; select bank3
  8536  05A7' 0800'              	movf	(powf@z+3)^(0+384),w
  8537  05A8' 0020               	movlb	0	; select bank0
  8538  05A9' 00C6'              	movwf	___flsub@a+3
  8539  05AA' 0023               	movlb	3	; select bank3
  8540  05AB' 0800'              	movf	(powf@z+2)^(0+384),w
  8541  05AC' 0020               	movlb	0	; select bank0
  8542  05AD' 00C5'              	movwf	___flsub@a+2
  8543  05AE' 0023               	movlb	3	; select bank3
  8544  05AF' 0800'              	movf	(powf@z+1)^(0+384),w
  8545  05B0' 0020               	movlb	0	; select bank0
  8546  05B1' 00C4'              	movwf	___flsub@a+1
  8547  05B2' 0023               	movlb	3	; select bank3
  8548  05B3' 0800'              	movf	powf@z^(0+384),w
  8549  05B4' 0020               	movlb	0	; select bank0
  8550  05B5' 00C3'              	movwf	___flsub@a
  8551  05B6' 0022               	movlb	2	; select bank2
  8552  05B7' 0800'              	movf	(powf@r+3)^(0+256),w
  8553  05B8' 0020               	movlb	0	; select bank0
  8554  05B9' 00CA'              	movwf	___flsub@b+3
  8555  05BA' 0022               	movlb	2	; select bank2
  8556  05BB' 0800'              	movf	(powf@r+2)^(0+256),w
  8557  05BC' 0020               	movlb	0	; select bank0
  8558  05BD' 00C9'              	movwf	___flsub@b+2
  8559  05BE' 0022               	movlb	2	; select bank2
  8560  05BF' 0800'              	movf	(powf@r+1)^(0+256),w
  8561  05C0' 0020               	movlb	0	; select bank0
  8562  05C1' 00C8'              	movwf	___flsub@b+1
  8563  05C2' 0022               	movlb	2	; select bank2
  8564  05C3' 0800'              	movf	powf@r^(0+256),w
  8565  05C4' 0020               	movlb	0	; select bank0
  8566  05C5' 00C7'              	movwf	___flsub@b
  8567  05C6' 3180' 2000' 3180'  	fcall	___flsub
  8568  05C9' 0846'              	movf	?___flsub+3,w
  8569  05CA' 0023               	movlb	3	; select bank3
  8570  05CB' 0080'              	movwf	(_powf$1039+3)^(0+384)
  8571  05CC' 0020               	movlb	0	; select bank0
  8572  05CD' 0845'              	movf	?___flsub+2,w
  8573  05CE' 0023               	movlb	3	; select bank3
  8574  05CF' 0080'              	movwf	(_powf$1039+2)^(0+384)
  8575  05D0' 0020               	movlb	0	; select bank0
  8576  05D1' 0844'              	movf	?___flsub+1,w
  8577  05D2' 0023               	movlb	3	; select bank3
  8578  05D3' 0080'              	movwf	(_powf$1039+1)^(0+384)
  8579  05D4' 0020               	movlb	0	; select bank0
  8580  05D5' 0843'              	movf	?___flsub,w
  8581  05D6' 0023               	movlb	3	; select bank3
  8582  05D7' 0080'              	movwf	_powf$1039^(0+384)
  8583  05D8' 0800'              	movf	(_powf$1039+3)^(0+384),w
  8584  05D9' 0020               	movlb	0	; select bank0
  8585  05DA' 00C6'              	movwf	___flsub@a+3
  8586  05DB' 0023               	movlb	3	; select bank3
  8587  05DC' 0800'              	movf	(_powf$1039+2)^(0+384),w
  8588  05DD' 0020               	movlb	0	; select bank0
  8589  05DE' 00C5'              	movwf	___flsub@a+2
  8590  05DF' 0023               	movlb	3	; select bank3
  8591  05E0' 0800'              	movf	(_powf$1039+1)^(0+384),w
  8592  05E1' 0020               	movlb	0	; select bank0
  8593  05E2' 00C4'              	movwf	___flsub@a+1
  8594  05E3' 0023               	movlb	3	; select bank3
  8595  05E4' 0800'              	movf	_powf$1039^(0+384),w
  8596  05E5' 0020               	movlb	0	; select bank0
  8597  05E6' 00C3'              	movwf	___flsub@a
  8598  05E7' 303F               	movlw	63
  8599  05E8' 00CA'              	movwf	___flsub@b+3
  8600  05E9' 3080               	movlw	128
  8601  05EA' 00C9'              	movwf	___flsub@b+2
  8602  05EB' 3000               	movlw	0
  8603  05EC' 00C8'              	movwf	___flsub@b+1
  8604  05ED' 3000               	movlw	0
  8605  05EE' 00C7'              	movwf	___flsub@b
  8606  05EF' 3180' 2000' 3180'  	fcall	___flsub
  8607  05F2' 0846'              	movf	?___flsub+3,w
  8608  05F3' 0023               	movlb	3	; select bank3
  8609  05F4' 0080'              	movwf	(powf@z+3)^(0+384)
  8610  05F5' 0020               	movlb	0	; select bank0
  8611  05F6' 0845'              	movf	?___flsub+2,w
  8612  05F7' 0023               	movlb	3	; select bank3
  8613  05F8' 0080'              	movwf	(powf@z+2)^(0+384)
  8614  05F9' 0020               	movlb	0	; select bank0
  8615  05FA' 0844'              	movf	?___flsub+1,w
  8616  05FB' 0023               	movlb	3	; select bank3
  8617  05FC' 0080'              	movwf	(powf@z+1)^(0+384)
  8618  05FD' 0020               	movlb	0	; select bank0
  8619  05FE' 0843'              	movf	?___flsub,w
  8620  05FF' 0023               	movlb	3	; select bank3
  8621  0600' 0080'              	movwf	powf@z^(0+384)
  8622  0601' 0800'              	movf	(powf@z+3)^(0+384),w
  8623  0602' 0080'              	movwf	(powf@j+3)^(0+384)
  8624  0603' 0800'              	movf	(powf@z+2)^(0+384),w
  8625  0604' 0080'              	movwf	(powf@j+2)^(0+384)
  8626  0605' 0800'              	movf	(powf@z+1)^(0+384),w
  8627  0606' 0080'              	movwf	(powf@j+1)^(0+384)
  8628  0607' 0800'              	movf	powf@z^(0+384),w
  8629  0608' 0080'              	movwf	powf@j^(0+384)
  8630  0609' 0022               	movlb	2	; select bank2
  8631  060A' 0800'              	movf	powf@n^(0+256),w
  8632  060B' 0021               	movlb	1	; select bank1
  8633  060C' 0080'              	movwf	??_powf^(0+128)
  8634  060D' 0022               	movlb	2	; select bank2
  8635  060E' 0800'              	movf	(powf@n+1)^(0+256),w
  8636  060F' 0021               	movlb	1	; select bank1
  8637  0610' 0081'              	movwf	(??_powf^(0+128)+1)
  8638  0611' 0022               	movlb	2	; select bank2
  8639  0612' 0800'              	movf	(powf@n+2)^(0+256),w
  8640  0613' 0021               	movlb	1	; select bank1
  8641  0614' 0082'              	movwf	(??_powf^(0+128)+2)
  8642  0615' 0022               	movlb	2	; select bank2
  8643  0616' 0800'              	movf	(powf@n+3)^(0+256),w
  8644  0617' 0021               	movlb	1	; select bank1
  8645  0618' 0083'              	movwf	(??_powf^(0+128)+3)
  8646  0619' 3017               	movlw	23
  8647  061A'                    u437_25:
  8648  061A' 3580'              	lslf	??_powf^(0+128),f
  8649  061B' 0D81'              	rlf	(??_powf^(0+128)+1),f
  8650  061C' 0D82'              	rlf	(??_powf^(0+128)+2),f
  8651  061D' 0D83'              	rlf	(??_powf^(0+128)+3),f
  8652  061E' 0B89               	decfsz	9,f
  8653  061F' 2800'              	goto	u437_25
  8654  0620' 0800'              	movf	??_powf^(0+128),w
  8655  0621' 0023               	movlb	3	; select bank3
  8656  0622' 0780'              	addwf	powf@j^(0+384),f
  8657  0623' 0021               	movlb	1	; select bank1
  8658  0624' 0800'              	movf	(??_powf+1)^(0+128),w
  8659  0625' 0023               	movlb	3	; select bank3
  8660  0626' 3D80'              	addwfc	(powf@j+1)^(0+384),f
  8661  0627' 0021               	movlb	1	; select bank1
  8662  0628' 0800'              	movf	(??_powf+2)^(0+128),w
  8663  0629' 0023               	movlb	3	; select bank3
  8664  062A' 3D80'              	addwfc	(powf@j+2)^(0+384),f
  8665  062B' 0021               	movlb	1	; select bank1
  8666  062C' 0800'              	movf	(??_powf+3)^(0+128),w
  8667  062D' 0023               	movlb	3	; select bank3
  8668  062E' 3D80'              	addwfc	(powf@j+3)^(0+384),f
  8669  062F' 0800'              	movf	powf@j^(0+384),w
  8670  0630' 0021               	movlb	1	; select bank1
  8671  0631' 0080'              	movwf	??_powf^(0+128)
  8672  0632' 0023               	movlb	3	; select bank3
  8673  0633' 0800'              	movf	(powf@j+1)^(0+384),w
  8674  0634' 0021               	movlb	1	; select bank1
  8675  0635' 0081'              	movwf	(??_powf^(0+128)+1)
  8676  0636' 0023               	movlb	3	; select bank3
  8677  0637' 0800'              	movf	(powf@j+2)^(0+384),w
  8678  0638' 0021               	movlb	1	; select bank1
  8679  0639' 0082'              	movwf	(??_powf^(0+128)+2)
  8680  063A' 0023               	movlb	3	; select bank3
  8681  063B' 0800'              	movf	(powf@j+3)^(0+384),w
  8682  063C' 0021               	movlb	1	; select bank1
  8683  063D' 0083'              	movwf	(??_powf^(0+128)+3)
  8684  063E' 3017               	movlw	23
  8685  063F' 0080'              	movwf	(??_powf+4)^(0+128)
  8686  0640'                    u438_25:
  8687  0640' 3783'              	asrf	(??_powf^(0+128)+3),f
  8688  0641' 0C82'              	rrf	(??_powf^(0+128)+2),f
  8689  0642' 0C81'              	rrf	(??_powf^(0+128)+1),f
  8690  0643' 0C80'              	rrf	??_powf^(0+128),f
  8691  0644' 0B80'              	decfsz	(??_powf+4)^(0+128),f
  8692  0645' 2800'              	goto	u438_25
  8693  0646' 1B83'              	btfsc	(??_powf^(0+128)+3),7
  8694  0647' 2800'              	goto	i1l3179
  8695  0648' 0803'              	movf	(??_powf^(0+128)+3),w
  8696  0649' 1D03               	btfss	3,2
  8697  064A' 2800'              	goto	i1l3181
  8698  064B' 0802'              	movf	(??_powf^(0+128)+2),w
  8699  064C' 1D03               	btfss	3,2
  8700  064D' 2800'              	goto	i1l3181
  8701  064E' 0801'              	movf	(??_powf^(0+128)+1),w
  8702  064F' 1D03               	btfss	3,2
  8703  0650' 2800'              	goto	i1l3181
  8704  0651' 3001               	movlw	1
  8705  0652' 0200'              	subwf	??_powf^(0+128),w
  8706  0653' 1803               	btfsc	3,0
  8707  0654' 2800'              	goto	i1l3181
  8708  0655'                    i1l3179:
  8709  0655' 0023               	movlb	3	; select bank3
  8710  0656' 0800'              	movf	(powf@z+3)^(0+384),w
  8711  0657' 0020               	movlb	0	; select bank0
  8712  0658' 0098'              	movwf	scalbnf@x+3
  8713  0659' 0023               	movlb	3	; select bank3
  8714  065A' 0800'              	movf	(powf@z+2)^(0+384),w
  8715  065B' 0020               	movlb	0	; select bank0
  8716  065C' 0097'              	movwf	scalbnf@x+2
  8717  065D' 0023               	movlb	3	; select bank3
  8718  065E' 0800'              	movf	(powf@z+1)^(0+384),w
  8719  065F' 0020               	movlb	0	; select bank0
  8720  0660' 0096'              	movwf	scalbnf@x+1
  8721  0661' 0023               	movlb	3	; select bank3
  8722  0662' 0800'              	movf	powf@z^(0+384),w
  8723  0663' 0020               	movlb	0	; select bank0
  8724  0664' 0095'              	movwf	scalbnf@x
  8725  0665' 0022               	movlb	2	; select bank2
  8726  0666' 0800'              	movf	(powf@n+1)^(0+256),w
  8727  0667' 0020               	movlb	0	; select bank0
  8728  0668' 009A'              	movwf	scalbnf@n+1
  8729  0669' 0022               	movlb	2	; select bank2
  8730  066A' 0800'              	movf	powf@n^(0+256),w
  8731  066B' 0020               	movlb	0	; select bank0
  8732  066C' 0099'              	movwf	scalbnf@n
  8733  066D' 3180' 2000' 3180'  	fcall	_scalbnf
  8734  0670' 0818'              	movf	?_scalbnf+3,w
  8735  0671' 0023               	movlb	3	; select bank3
  8736  0672' 0080'              	movwf	(powf@z+3)^(0+384)
  8737  0673' 0020               	movlb	0	; select bank0
  8738  0674' 0817'              	movf	?_scalbnf+2,w
  8739  0675' 0023               	movlb	3	; select bank3
  8740  0676' 0080'              	movwf	(powf@z+2)^(0+384)
  8741  0677' 0020               	movlb	0	; select bank0
  8742  0678' 0816'              	movf	?_scalbnf+1,w
  8743  0679' 0023               	movlb	3	; select bank3
  8744  067A' 0080'              	movwf	(powf@z+1)^(0+384)
  8745  067B' 0020               	movlb	0	; select bank0
  8746  067C' 0815'              	movf	?_scalbnf,w
  8747  067D' 0023               	movlb	3	; select bank3
  8748  067E' 2800'              	goto	L6
  8749  067F'                    i1l3181:
  8750  067F' 0023               	movlb	3	; select bank3
  8751  0680' 0800'              	movf	(powf@j+3)^(0+384),w
  8752  0681' 0080'              	movwf	(powf@z+3)^(0+384)
  8753  0682' 0800'              	movf	(powf@j+2)^(0+384),w
  8754  0683' 0080'              	movwf	(powf@z+2)^(0+384)
  8755  0684' 0800'              	movf	(powf@j+1)^(0+384),w
  8756  0685' 0080'              	movwf	(powf@z+1)^(0+384)
  8757  0686' 0800'              	movf	powf@j^(0+384),w
  8758  0687'                    L6:
  8759  0687' 0080'              	movwf	powf@z^(0+384)
  8760  0688' 0800'              	movf	(powf@z+3)^(0+384),w
  8761  0689' 0400'              	iorwf	(powf@z+2)^(0+384),w
  8762  068A' 0400'              	iorwf	(powf@z+1)^(0+384),w
  8763  068B' 0400'              	iorwf	powf@z^(0+384),w
  8764  068C' 1903               	skipnz
  8765  068D' 2800'              	goto	L15
  8766  068E' 0022               	movlb	2	; select bank2
  8767  068F' 0800'              	movf	powf@sn^(0+256),w
  8768  0690' 0023               	movlb	3	; select bank3
  8769  0691' 0680'              	xorwf	powf@z^(0+384),f
  8770  0692' 0022               	movlb	2	; select bank2
  8771  0693' 0800'              	movf	(powf@sn+1)^(0+256),w
  8772  0694' 0023               	movlb	3	; select bank3
  8773  0695' 0680'              	xorwf	(powf@z+1)^(0+384),f
  8774  0696' 0022               	movlb	2	; select bank2
  8775  0697' 0800'              	movf	(powf@sn+2)^(0+256),w
  8776  0698' 0023               	movlb	3	; select bank3
  8777  0699' 0680'              	xorwf	(powf@z+2)^(0+384),f
  8778  069A' 0022               	movlb	2	; select bank2
  8779  069B' 0800'              	movf	(powf@sn+3)^(0+256),w
  8780  069C' 0023               	movlb	3	; select bank3
  8781  069D' 0680'              	xorwf	(powf@z+3)^(0+384),f
  8782  069E'                    L15:
  8783  069E' 3180' 2800'        	goto	i1l2931
  8784  06A0'                    __end_of_powf:
  8785                           
  8786                           	psect	text7_split_6
  8787  0000'                    i1l2965:
  8788  0000' 0023               	movlb	3	; select bank3
  8789  0001' 1B80'              	btfsc	(powf@ix+3)^(0+384),7
  8790  0002' 2800'              	goto	i1l2979
  8791  0003' 3008               	movlw	8
  8792  0004' 0200'              	subwf	powf@ix^(0+384),w
  8793  0005' 3000               	movlw	0
  8794  0006' 3B00'              	subwfb	(powf@ix+1)^(0+384),w
  8795  0007' 3080               	movlw	128
  8796  0008' 3B00'              	subwfb	(powf@ix+2)^(0+384),w
  8797  0009' 303F               	movlw	63
  8798  000A' 3B00'              	subwfb	(powf@ix+3)^(0+384),w
  8799  000B' 1C03               	btfss	3,0
  8800  000C' 2800'              	goto	i1l2979
  8801  000D' 0023               	movlb	3	; select bank3
  8802  000E' 1B80'              	btfsc	(powf@hy+3)^(0+384),7
  8803  000F' 2800'              	goto	i1l2975
  8804  0010' 0800'              	movf	(powf@hy+3)^(0+384),w
  8805  0011' 3180' 1D03         	btfss	3,2
  8806  0013' 2800' 3180'        	goto	L21
  8807  0015' 0800'              	movf	(powf@hy+2)^(0+384),w
  8808  0016' 1D03               	btfss	3,2
  8809  0017' 2800'              	goto	L23
  8810  0018' 0800'              	movf	(powf@hy+1)^(0+384),w
  8811  0019' 1D03               	btfss	3,2
  8812  001A' 2800'              	goto	L24
  8813  001B' 3001               	movlw	1
  8814  001C' 0200'              	subwf	powf@hy^(0+384),w
  8815  001D' 1803               	btfsc	3,0
  8816  001E' 2800'              	goto	L24
  8817  001F'                    i1l2975:
  8818  001F' 3000               	movlw	0
  8819  0020' 0021               	movlb	1	; select bank1
  8820  0021' 0080'              	movwf	(?_powf+3)^(0+128)
  8821  0022' 3000               	movlw	0
  8822  0023' 0080'              	movwf	(?_powf+2)^(0+128)
  8823  0024' 3000               	movlw	0
  8824  0025' 0080'              	movwf	(?_powf+1)^(0+128)
  8825  0026' 3000               	movlw	0
  8826  0027' 0080'              	movwf	?_powf^(0+128)
  8827  0028' 0008               	return
  8828  0029'                    i1l2979:
  8829  0029' 30BF               	movlw	191
  8830  002A' 0020               	movlb	0	; select bank0
  8831  002B' 0098'              	movwf	___fladd@b+3
  8832  002C' 3080               	movlw	128
  8833  002D' 0097'              	movwf	___fladd@b+2
  8834  002E' 3000               	movlw	0
  8835  002F' 0096'              	movwf	___fladd@b+1
  8836  0030' 3000               	movlw	0
  8837  0031' 0095'              	movwf	___fladd@b
  8838  0032' 0022               	movlb	2	; select bank2
  8839  0033' 0800'              	movf	(powf@ax+3)^(0+256),w
  8840  0034' 0020               	movlb	0	; select bank0
  8841  0035' 009C'              	movwf	___fladd@a+3
  8842  0036' 0022               	movlb	2	; select bank2
  8843  0037' 0800'              	movf	(powf@ax+2)^(0+256),w
  8844  0038' 0020               	movlb	0	; select bank0
  8845  0039' 009B'              	movwf	___fladd@a+2
  8846  003A' 0022               	movlb	2	; select bank2
  8847  003B' 0800'              	movf	(powf@ax+1)^(0+256),w
  8848  003C' 0020               	movlb	0	; select bank0
  8849  003D' 009A'              	movwf	___fladd@a+1
  8850  003E' 0022               	movlb	2	; select bank2
  8851  003F' 0800'              	movf	powf@ax^(0+256),w
  8852  0040' 0020               	movlb	0	; select bank0
  8853  0041' 0099'              	movwf	___fladd@a
  8854  0042' 3180' 2000' 3180'  	fcall	___fladd
  8855  0045' 0818'              	movf	?___fladd+3,w
  8856  0046' 0023               	movlb	3	; select bank3
  8857  0047' 0080'              	movwf	(powf@t+3)^(0+384)
  8858  0048' 0020               	movlb	0	; select bank0
  8859  0049' 0817'              	movf	?___fladd+2,w
  8860  004A' 0023               	movlb	3	; select bank3
  8861  004B' 0080'              	movwf	(powf@t+2)^(0+384)
  8862  004C' 0020               	movlb	0	; select bank0
  8863  004D' 0816'              	movf	?___fladd+1,w
  8864  004E' 0023               	movlb	3	; select bank3
  8865  004F' 0080'              	movwf	(powf@t+1)^(0+384)
  8866  0050' 0020               	movlb	0	; select bank0
  8867  0051' 0815'              	movf	?___fladd,w
  8868  0052' 0023               	movlb	3	; select bank3
  8869  0053' 0080'              	movwf	powf@t^(0+384)
  8870  0054' 303E               	movlw	62
  8871  0055' 0020               	movlb	0	; select bank0
  8872  0056' 0083'              	movwf	___flmul@b+3
  8873  0057' 3080               	movlw	128
  8874  0058' 0082'              	movwf	___flmul@b+2
  8875  0059' 3000               	movlw	0
  8876  005A' 0081'              	movwf	___flmul@b+1
  8877  005B' 3000               	movlw	0
  8878  005C' 0080'              	movwf	___flmul@b
  8879  005D' 0023               	movlb	3	; select bank3
  8880  005E' 0800'              	movf	(powf@t+3)^(0+384),w
  8881  005F' 0020               	movlb	0	; select bank0
  8882  0060' 0087'              	movwf	___flmul@a+3
  8883  0061' 0023               	movlb	3	; select bank3
  8884  0062' 0800'              	movf	(powf@t+2)^(0+384),w
  8885  0063' 0020               	movlb	0	; select bank0
  8886  0064' 0086'              	movwf	___flmul@a+2
  8887  0065' 0023               	movlb	3	; select bank3
  8888  0066' 0800'              	movf	(powf@t+1)^(0+384),w
  8889  0067' 0020               	movlb	0	; select bank0
  8890  0068' 0085'              	movwf	___flmul@a+1
  8891  0069' 0023               	movlb	3	; select bank3
  8892  006A' 0800'              	movf	powf@t^(0+384),w
  8893  006B' 0020               	movlb	0	; select bank0
  8894  006C' 0084'              	movwf	___flmul@a
  8895  006D' 3180' 2000' 3180'  	fcall	___flmul
  8896  0070' 0803'              	movf	?___flmul+3,w
  8897  0071' 00C6'              	movwf	___flsub@a+3
  8898  0072' 0802'              	movf	?___flmul+2,w
  8899  0073' 00C5'              	movwf	___flsub@a+2
  8900  0074' 0801'              	movf	?___flmul+1,w
  8901  0075' 00C4'              	movwf	___flsub@a+1
  8902  0076' 0800'              	movf	?___flmul,w
  8903  0077' 00C3'              	movwf	___flsub@a
  8904  0078' 303E               	movlw	62
  8905  0079' 00CA'              	movwf	___flsub@b+3
  8906  007A' 30AA               	movlw	170
  8907  007B' 00C9'              	movwf	___flsub@b+2
  8908  007C' 30AA               	movlw	170
  8909  007D' 00C8'              	movwf	___flsub@b+1
  8910  007E' 30AB               	movlw	171
  8911  007F' 00C7'              	movwf	___flsub@b
  8912  0080' 3180' 2000' 3180'  	fcall	___flsub
  8913  0083' 0846'              	movf	?___flsub+3,w
  8914  0084' 0022               	movlb	2	; select bank2
  8915  0085' 0080'              	movwf	(_powf$1036+3)^(0+256)
  8916  0086' 0020               	movlb	0	; select bank0
  8917  0087' 0845'              	movf	?___flsub+2,w
  8918  0088' 0022               	movlb	2	; select bank2
  8919  0089' 0080'              	movwf	(_powf$1036+2)^(0+256)
  8920  008A' 0020               	movlb	0	; select bank0
  8921  008B' 0844'              	movf	?___flsub+1,w
  8922  008C' 0022               	movlb	2	; select bank2
  8923  008D' 0080'              	movwf	(_powf$1036+1)^(0+256)
  8924  008E' 0020               	movlb	0	; select bank0
  8925  008F' 0843'              	movf	?___flsub,w
  8926  0090' 0022               	movlb	2	; select bank2
  8927  0091' 0080'              	movwf	_powf$1036^(0+256)
  8928  0092' 0023               	movlb	3	; select bank3
  8929  0093' 0800'              	movf	(powf@t+3)^(0+384),w
  8930  0094' 0020               	movlb	0	; select bank0
  8931  0095' 0083'              	movwf	___flmul@b+3
  8932  0096' 0023               	movlb	3	; select bank3
  8933  0097' 0800'              	movf	(powf@t+2)^(0+384),w
  8934  0098' 0020               	movlb	0	; select bank0
  8935  0099' 0082'              	movwf	___flmul@b+2
  8936  009A' 0023               	movlb	3	; select bank3
  8937  009B' 0800'              	movf	(powf@t+1)^(0+384),w
  8938  009C' 0020               	movlb	0	; select bank0
  8939  009D' 0081'              	movwf	___flmul@b+1
  8940  009E' 0023               	movlb	3	; select bank3
  8941  009F' 0800'              	movf	powf@t^(0+384),w
  8942  00A0' 0020               	movlb	0	; select bank0
  8943  00A1' 0080'              	movwf	___flmul@b
  8944  00A2' 0022               	movlb	2	; select bank2
  8945  00A3' 0800'              	movf	(_powf$1036+3)^(0+256),w
  8946  00A4' 0020               	movlb	0	; select bank0
  8947  00A5' 0087'              	movwf	___flmul@a+3
  8948  00A6' 0022               	movlb	2	; select bank2
  8949  00A7' 0800'              	movf	(_powf$1036+2)^(0+256),w
  8950  00A8' 0020               	movlb	0	; select bank0
  8951  00A9' 0086'              	movwf	___flmul@a+2
  8952  00AA' 0022               	movlb	2	; select bank2
  8953  00AB' 0800'              	movf	(_powf$1036+1)^(0+256),w
  8954  00AC' 0020               	movlb	0	; select bank0
  8955  00AD' 0085'              	movwf	___flmul@a+1
  8956  00AE' 0022               	movlb	2	; select bank2
  8957  00AF' 0800'              	movf	_powf$1036^(0+256),w
  8958  00B0' 0020               	movlb	0	; select bank0
  8959  00B1' 0084'              	movwf	___flmul@a
  8960  00B2' 3180' 2000' 3180'  	fcall	___flmul
  8961  00B5' 0803'              	movf	?___flmul+3,w
  8962  00B6' 00C6'              	movwf	___flsub@a+3
  8963  00B7' 0802'              	movf	?___flmul+2,w
  8964  00B8' 00C5'              	movwf	___flsub@a+2
  8965  00B9' 0801'              	movf	?___flmul+1,w
  8966  00BA' 00C4'              	movwf	___flsub@a+1
  8967  00BB' 0800'              	movf	?___flmul,w
  8968  00BC' 00C3'              	movwf	___flsub@a
  8969  00BD' 303F               	movlw	63
  8970  00BE' 00CA'              	movwf	___flsub@b+3
  8971  00BF' 3000               	movlw	0
  8972  00C0' 00C9'              	movwf	___flsub@b+2
  8973  00C1' 3000               	movlw	0
  8974  00C2' 00C8'              	movwf	___flsub@b+1
  8975  00C3' 3000               	movlw	0
  8976  00C4' 00C7'              	movwf	___flsub@b
  8977  00C5' 3180' 2000' 3180'  	fcall	___flsub
  8978  00C8' 0846'              	movf	?___flsub+3,w
  8979  00C9' 0022               	movlb	2	; select bank2
  8980  00CA' 0080'              	movwf	(_powf$1037+3)^(0+256)
  8981  00CB' 0020               	movlb	0	; select bank0
  8982  00CC' 0845'              	movf	?___flsub+2,w
  8983  00CD' 0022               	movlb	2	; select bank2
  8984  00CE' 0080'              	movwf	(_powf$1037+2)^(0+256)
  8985  00CF' 0020               	movlb	0	; select bank0
  8986  00D0' 0844'              	movf	?___flsub+1,w
  8987  00D1' 0022               	movlb	2	; select bank2
  8988  00D2' 0080'              	movwf	(_powf$1037+1)^(0+256)
  8989  00D3' 0020               	movlb	0	; select bank0
  8990  00D4' 0843'              	movf	?___flsub,w
  8991  00D5' 0022               	movlb	2	; select bank2
  8992  00D6' 0080'              	movwf	_powf$1037^(0+256)
  8993  00D7' 0023               	movlb	3	; select bank3
  8994  00D8' 0800'              	movf	(powf@t+3)^(0+384),w
  8995  00D9' 0020               	movlb	0	; select bank0
  8996  00DA' 0083'              	movwf	___flmul@b+3
  8997  00DB' 0023               	movlb	3	; select bank3
  8998  00DC' 0800'              	movf	(powf@t+2)^(0+384),w
  8999  00DD' 0020               	movlb	0	; select bank0
  9000  00DE' 0082'              	movwf	___flmul@b+2
  9001  00DF' 0023               	movlb	3	; select bank3
  9002  00E0' 0800'              	movf	(powf@t+1)^(0+384),w
  9003  00E1' 0020               	movlb	0	; select bank0
  9004  00E2' 0081'              	movwf	___flmul@b+1
  9005  00E3' 0023               	movlb	3	; select bank3
  9006  00E4' 0800'              	movf	powf@t^(0+384),w
  9007  00E5' 0020               	movlb	0	; select bank0
  9008  00E6' 0080'              	movwf	___flmul@b
  9009  00E7' 0023               	movlb	3	; select bank3
  9010  00E8' 0800'              	movf	(powf@t+3)^(0+384),w
  9011  00E9' 0020               	movlb	0	; select bank0
  9012  00EA' 0087'              	movwf	___flmul@a+3
  9013  00EB' 0023               	movlb	3	; select bank3
  9014  00EC' 0800'              	movf	(powf@t+2)^(0+384),w
  9015  00ED' 0020               	movlb	0	; select bank0
  9016  00EE' 0086'              	movwf	___flmul@a+2
  9017  00EF' 0023               	movlb	3	; select bank3
  9018  00F0' 0800'              	movf	(powf@t+1)^(0+384),w
  9019  00F1' 0020               	movlb	0	; select bank0
  9020  00F2' 0085'              	movwf	___flmul@a+1
  9021  00F3' 0023               	movlb	3	; select bank3
  9022  00F4' 0800'              	movf	powf@t^(0+384),w
  9023  00F5' 0020               	movlb	0	; select bank0
  9024  00F6' 0084'              	movwf	___flmul@a
  9025  00F7' 3180' 2000' 3180'  	fcall	___flmul
  9026  00FA' 0803'              	movf	?___flmul+3,w
  9027  00FB' 0022               	movlb	2	; select bank2
  9028  00FC' 0080'              	movwf	(_powf$1038+3)^(0+256)
  9029  00FD' 0020               	movlb	0	; select bank0
  9030  00FE' 0802'              	movf	?___flmul+2,w
  9031  00FF' 0022               	movlb	2	; select bank2
  9032  0100' 0080'              	movwf	(_powf$1038+2)^(0+256)
  9033  0101' 0020               	movlb	0	; select bank0
  9034  0102' 0801'              	movf	?___flmul+1,w
  9035  0103' 0022               	movlb	2	; select bank2
  9036  0104' 0080'              	movwf	(_powf$1038+1)^(0+256)
  9037  0105' 0020               	movlb	0	; select bank0
  9038  0106' 0800'              	movf	?___flmul,w
  9039  0107' 0022               	movlb	2	; select bank2
  9040  0108' 0080'              	movwf	_powf$1038^(0+256)
  9041  0109' 0800'              	movf	(_powf$1037+3)^(0+256),w
  9042  010A' 0020               	movlb	0	; select bank0
  9043  010B' 0083'              	movwf	___flmul@b+3
  9044  010C' 0022               	movlb	2	; select bank2
  9045  010D' 0800'              	movf	(_powf$1037+2)^(0+256),w
  9046  010E' 0020               	movlb	0	; select bank0
  9047  010F' 0082'              	movwf	___flmul@b+2
  9048  0110' 0022               	movlb	2	; select bank2
  9049  0111' 0800'              	movf	(_powf$1037+1)^(0+256),w
  9050  0112' 0020               	movlb	0	; select bank0
  9051  0113' 0081'              	movwf	___flmul@b+1
  9052  0114' 0022               	movlb	2	; select bank2
  9053  0115' 0800'              	movf	_powf$1037^(0+256),w
  9054  0116' 0020               	movlb	0	; select bank0
  9055  0117' 0080'              	movwf	___flmul@b
  9056  0118' 0022               	movlb	2	; select bank2
  9057  0119' 0800'              	movf	(_powf$1038+3)^(0+256),w
  9058  011A' 0020               	movlb	0	; select bank0
  9059  011B' 0087'              	movwf	___flmul@a+3
  9060  011C' 0022               	movlb	2	; select bank2
  9061  011D' 0800'              	movf	(_powf$1038+2)^(0+256),w
  9062  011E' 0020               	movlb	0	; select bank0
  9063  011F' 0086'              	movwf	___flmul@a+2
  9064  0120' 0022               	movlb	2	; select bank2
  9065  0121' 0800'              	movf	(_powf$1038+1)^(0+256),w
  9066  0122' 0020               	movlb	0	; select bank0
  9067  0123' 0085'              	movwf	___flmul@a+1
  9068  0124' 0022               	movlb	2	; select bank2
  9069  0125' 0800'              	movf	_powf$1038^(0+256),w
  9070  0126' 0020               	movlb	0	; select bank0
  9071  0127' 0084'              	movwf	___flmul@a
  9072  0128' 3180' 2000' 3180'  	fcall	___flmul
  9073  012B' 0803'              	movf	?___flmul+3,w
  9074  012C' 0022               	movlb	2	; select bank2
  9075  012D' 0080'              	movwf	(powf@w+3)^(0+256)
  9076  012E' 0020               	movlb	0	; select bank0
  9077  012F' 0802'              	movf	?___flmul+2,w
  9078  0130' 0022               	movlb	2	; select bank2
  9079  0131' 0080'              	movwf	(powf@w+2)^(0+256)
  9080  0132' 0020               	movlb	0	; select bank0
  9081  0133' 0801'              	movf	?___flmul+1,w
  9082  0134' 0022               	movlb	2	; select bank2
  9083  0135' 0080'              	movwf	(powf@w+1)^(0+256)
  9084  0136' 0020               	movlb	0	; select bank0
  9085  0137' 0800'              	movf	?___flmul,w
  9086  0138' 0022               	movlb	2	; select bank2
  9087  0139' 0080'              	movwf	powf@w^(0+256)
  9088  013A' 303F               	movlw	63
  9089  013B' 0020               	movlb	0	; select bank0
  9090  013C' 0083'              	movwf	___flmul@b+3
  9091  013D' 30B8               	movlw	184
  9092  013E' 0082'              	movwf	___flmul@b+2
  9093  013F' 30AA               	movlw	170
  9094  0140' 0081'              	movwf	___flmul@b+1
  9095  0141' 3000               	movlw	0
  9096  0142' 0080'              	movwf	___flmul@b
  9097  0143' 0023               	movlb	3	; select bank3
  9098  0144' 0800'              	movf	(powf@t+3)^(0+384),w
  9099  0145' 0020               	movlb	0	; select bank0
  9100  0146' 0087'              	movwf	___flmul@a+3
  9101  0147' 0023               	movlb	3	; select bank3
  9102  0148' 0800'              	movf	(powf@t+2)^(0+384),w
  9103  0149' 0020               	movlb	0	; select bank0
  9104  014A' 0086'              	movwf	___flmul@a+2
  9105  014B' 0023               	movlb	3	; select bank3
  9106  014C' 0800'              	movf	(powf@t+1)^(0+384),w
  9107  014D' 0020               	movlb	0	; select bank0
  9108  014E' 0085'              	movwf	___flmul@a+1
  9109  014F' 0023               	movlb	3	; select bank3
  9110  0150' 0800'              	movf	powf@t^(0+384),w
  9111  0151' 0020               	movlb	0	; select bank0
  9112  0152' 0084'              	movwf	___flmul@a
  9113  0153' 3180' 2000' 3180'  	fcall	___flmul
  9114  0156' 0803'              	movf	?___flmul+3,w
  9115  0157' 0022               	movlb	2	; select bank2
  9116  0158' 0080'              	movwf	(powf@u+3)^(0+256)
  9117  0159' 0020               	movlb	0	; select bank0
  9118  015A' 0802'              	movf	?___flmul+2,w
  9119  015B' 0022               	movlb	2	; select bank2
  9120  015C' 0080'              	movwf	(powf@u+2)^(0+256)
  9121  015D' 0020               	movlb	0	; select bank0
  9122  015E' 0801'              	movf	?___flmul+1,w
  9123  015F' 0022               	movlb	2	; select bank2
  9124  0160' 0080'              	movwf	(powf@u+1)^(0+256)
  9125  0161' 0020               	movlb	0	; select bank0
  9126  0162' 0800'              	movf	?___flmul,w
  9127  0163' 0022               	movlb	2	; select bank2
  9128  0164' 0080'              	movwf	powf@u^(0+256)
  9129  0165' 303F               	movlw	63
  9130  0166' 0020               	movlb	0	; select bank0
  9131  0167' 0083'              	movwf	___flmul@b+3
  9132  0168' 30B8               	movlw	184
  9133  0169' 0082'              	movwf	___flmul@b+2
  9134  016A' 30AA               	movlw	170
  9135  016B' 0081'              	movwf	___flmul@b+1
  9136  016C' 303B               	movlw	59
  9137  016D' 0080'              	movwf	___flmul@b
  9138  016E' 0022               	movlb	2	; select bank2
  9139  016F' 0800'              	movf	(powf@w+3)^(0+256),w
  9140  0170' 0020               	movlb	0	; select bank0
  9141  0171' 0087'              	movwf	___flmul@a+3
  9142  0172' 0022               	movlb	2	; select bank2
  9143  0173' 0800'              	movf	(powf@w+2)^(0+256),w
  9144  0174' 0020               	movlb	0	; select bank0
  9145  0175' 0086'              	movwf	___flmul@a+2
  9146  0176' 0022               	movlb	2	; select bank2
  9147  0177' 0800'              	movf	(powf@w+1)^(0+256),w
  9148  0178' 0020               	movlb	0	; select bank0
  9149  0179' 0085'              	movwf	___flmul@a+1
  9150  017A' 0022               	movlb	2	; select bank2
  9151  017B' 0800'              	movf	powf@w^(0+256),w
  9152  017C' 0020               	movlb	0	; select bank0
  9153  017D' 0084'              	movwf	___flmul@a
  9154  017E' 3180' 2000' 3180'  	fcall	___flmul
  9155  0181' 0803'              	movf	?___flmul+3,w
  9156  0182' 00C6'              	movwf	___flsub@a+3
  9157  0183' 0802'              	movf	?___flmul+2,w
  9158  0184' 00C5'              	movwf	___flsub@a+2
  9159  0185' 0801'              	movf	?___flmul+1,w
  9160  0186' 00C4'              	movwf	___flsub@a+1
  9161  0187' 0800'              	movf	?___flmul,w
  9162  0188' 00C3'              	movwf	___flsub@a
  9163  0189' 3036               	movlw	54
  9164  018A' 0083'              	movwf	___flmul@b+3
  9165  018B' 30EC               	movlw	236
  9166  018C' 0082'              	movwf	___flmul@b+2
  9167  018D' 30A5               	movlw	165
  9168  018E' 0081'              	movwf	___flmul@b+1
  9169  018F' 3070               	movlw	112
  9170  0190' 0080'              	movwf	___flmul@b
  9171  0191' 0023               	movlb	3	; select bank3
  9172  0192' 0800'              	movf	(powf@t+3)^(0+384),w
  9173  0193' 0020               	movlb	0	; select bank0
  9174  0194' 0087'              	movwf	___flmul@a+3
  9175  0195' 0023               	movlb	3	; select bank3
  9176  0196' 0800'              	movf	(powf@t+2)^(0+384),w
  9177  0197' 0020               	movlb	0	; select bank0
  9178  0198' 0086'              	movwf	___flmul@a+2
  9179  0199' 0023               	movlb	3	; select bank3
  9180  019A' 0800'              	movf	(powf@t+1)^(0+384),w
  9181  019B' 0020               	movlb	0	; select bank0
  9182  019C' 0085'              	movwf	___flmul@a+1
  9183  019D' 0023               	movlb	3	; select bank3
  9184  019E' 0800'              	movf	powf@t^(0+384),w
  9185  019F' 0020               	movlb	0	; select bank0
  9186  01A0' 0084'              	movwf	___flmul@a
  9187  01A1' 3180' 2000' 3180'  	fcall	___flmul
  9188  01A4' 0803'              	movf	?___flmul+3,w
  9189  01A5' 00CA'              	movwf	___flsub@b+3
  9190  01A6' 0802'              	movf	?___flmul+2,w
  9191  01A7' 00C9'              	movwf	___flsub@b+2
  9192  01A8' 0801'              	movf	?___flmul+1,w
  9193  01A9' 00C8'              	movwf	___flsub@b+1
  9194  01AA' 0800'              	movf	?___flmul,w
  9195  01AB' 00C7'              	movwf	___flsub@b
  9196  01AC' 3180' 2000' 3180'  	fcall	___flsub
  9197  01AF' 0846'              	movf	?___flsub+3,w
  9198  01B0' 0023               	movlb	3	; select bank3
  9199  01B1' 0080'              	movwf	(powf@v+3)^(0+384)
  9200  01B2' 0020               	movlb	0	; select bank0
  9201  01B3' 0845'              	movf	?___flsub+2,w
  9202  01B4' 0023               	movlb	3	; select bank3
  9203  01B5' 0080'              	movwf	(powf@v+2)^(0+384)
  9204  01B6' 0020               	movlb	0	; select bank0
  9205  01B7' 0844'              	movf	?___flsub+1,w
  9206  01B8' 0023               	movlb	3	; select bank3
  9207  01B9' 0080'              	movwf	(powf@v+1)^(0+384)
  9208  01BA' 0020               	movlb	0	; select bank0
  9209  01BB' 0843'              	movf	?___flsub,w
  9210  01BC' 0023               	movlb	3	; select bank3
  9211  01BD' 0080'              	movwf	powf@v^(0+384)
  9212  01BE' 0800'              	movf	(powf@v+3)^(0+384),w
  9213  01BF' 0020               	movlb	0	; select bank0
  9214  01C0' 0098'              	movwf	___fladd@b+3
  9215  01C1' 0023               	movlb	3	; select bank3
  9216  01C2' 0800'              	movf	(powf@v+2)^(0+384),w
  9217  01C3' 0020               	movlb	0	; select bank0
  9218  01C4' 0097'              	movwf	___fladd@b+2
  9219  01C5' 0023               	movlb	3	; select bank3
  9220  01C6' 0800'              	movf	(powf@v+1)^(0+384),w
  9221  01C7' 0020               	movlb	0	; select bank0
  9222  01C8' 0096'              	movwf	___fladd@b+1
  9223  01C9' 0023               	movlb	3	; select bank3
  9224  01CA' 0800'              	movf	powf@v^(0+384),w
  9225  01CB' 0020               	movlb	0	; select bank0
  9226  01CC' 0095'              	movwf	___fladd@b
  9227  01CD' 0022               	movlb	2	; select bank2
  9228  01CE' 0800'              	movf	(powf@u+3)^(0+256),w
  9229  01CF' 0020               	movlb	0	; select bank0
  9230  01D0' 009C'              	movwf	___fladd@a+3
  9231  01D1' 0022               	movlb	2	; select bank2
  9232  01D2' 0800'              	movf	(powf@u+2)^(0+256),w
  9233  01D3' 0020               	movlb	0	; select bank0
  9234  01D4' 009B'              	movwf	___fladd@a+2
  9235  01D5' 0022               	movlb	2	; select bank2
  9236  01D6' 0800'              	movf	(powf@u+1)^(0+256),w
  9237  01D7' 0020               	movlb	0	; select bank0
  9238  01D8' 009A'              	movwf	___fladd@a+1
  9239  01D9' 0022               	movlb	2	; select bank2
  9240  01DA' 0800'              	movf	powf@u^(0+256),w
  9241  01DB' 0020               	movlb	0	; select bank0
  9242  01DC' 0099'              	movwf	___fladd@a
  9243  01DD' 3180' 2000' 3180'  	fcall	___fladd
  9244  01E0' 0818'              	movf	?___fladd+3,w
  9245  01E1' 0023               	movlb	3	; select bank3
  9246  01E2' 0080'              	movwf	(powf@t1+3)^(0+384)
  9247  01E3' 0020               	movlb	0	; select bank0
  9248  01E4' 0817'              	movf	?___fladd+2,w
  9249  01E5' 0023               	movlb	3	; select bank3
  9250  01E6' 0080'              	movwf	(powf@t1+2)^(0+384)
  9251  01E7' 0020               	movlb	0	; select bank0
  9252  01E8' 0816'              	movf	?___fladd+1,w
  9253  01E9' 0023               	movlb	3	; select bank3
  9254  01EA' 0080'              	movwf	(powf@t1+1)^(0+384)
  9255  01EB' 0020               	movlb	0	; select bank0
  9256  01EC' 0815'              	movf	?___fladd,w
  9257  01ED' 0023               	movlb	3	; select bank3
  9258  01EE' 0080'              	movwf	powf@t1^(0+384)
  9259  01EF' 0800'              	movf	(powf@t1+3)^(0+384),w
  9260  01F0' 0080'              	movwf	(powf@is+3)^(0+384)
  9261  01F1' 0800'              	movf	(powf@t1+2)^(0+384),w
  9262  01F2' 0080'              	movwf	(powf@is+2)^(0+384)
  9263  01F3' 0800'              	movf	(powf@t1+1)^(0+384),w
  9264  01F4' 0080'              	movwf	(powf@is+1)^(0+384)
  9265  01F5' 0800'              	movf	powf@t1^(0+384),w
  9266  01F6' 0080'              	movwf	powf@is^(0+384)
  9267  01F7' 3000               	movlw	0
  9268  01F8' 0500'              	andwf	powf@is^(0+384),w
  9269  01F9' 0080'              	movwf	powf@t1^(0+384)
  9270  01FA' 30F0               	movlw	240
  9271  01FB' 0500'              	andwf	(powf@is+1)^(0+384),w
  9272  01FC' 0080'              	movwf	(powf@t1+1)^(0+384)
  9273  01FD' 30FF               	movlw	255
  9274  01FE' 0500'              	andwf	(powf@is+2)^(0+384),w
  9275  01FF' 0080'              	movwf	(powf@t1+2)^(0+384)
  9276  0200' 30FF               	movlw	255
  9277  0201' 0500'              	andwf	(powf@is+3)^(0+384),w
  9278  0202' 0080'              	movwf	(powf@t1+3)^(0+384)
  9279  0203' 0022               	movlb	2	; select bank2
  9280  0204' 0800'              	movf	(powf@u+3)^(0+256),w
  9281  0205' 0020               	movlb	0	; select bank0
  9282  0206' 00C6'              	movwf	___flsub@a+3
  9283  0207' 0022               	movlb	2	; select bank2
  9284  0208' 0800'              	movf	(powf@u+2)^(0+256),w
  9285  0209' 0020               	movlb	0	; select bank0
  9286  020A' 00C5'              	movwf	___flsub@a+2
  9287  020B' 0022               	movlb	2	; select bank2
  9288  020C' 0800'              	movf	(powf@u+1)^(0+256),w
  9289  020D' 0020               	movlb	0	; select bank0
  9290  020E' 00C4'              	movwf	___flsub@a+1
  9291  020F' 0022               	movlb	2	; select bank2
  9292  0210' 0800'              	movf	powf@u^(0+256),w
  9293  0211' 0020               	movlb	0	; select bank0
  9294  0212' 00C3'              	movwf	___flsub@a
  9295  0213' 0023               	movlb	3	; select bank3
  9296  0214' 0800'              	movf	(powf@t1+3)^(0+384),w
  9297  0215' 0020               	movlb	0	; select bank0
  9298  0216' 00CA'              	movwf	___flsub@b+3
  9299  0217' 0023               	movlb	3	; select bank3
  9300  0218' 0800'              	movf	(powf@t1+2)^(0+384),w
  9301  0219' 0020               	movlb	0	; select bank0
  9302  021A' 00C9'              	movwf	___flsub@b+2
  9303  021B' 0023               	movlb	3	; select bank3
  9304  021C' 0800'              	movf	(powf@t1+1)^(0+384),w
  9305  021D' 0020               	movlb	0	; select bank0
  9306  021E' 00C8'              	movwf	___flsub@b+1
  9307  021F' 0023               	movlb	3	; select bank3
  9308  0220' 0800'              	movf	powf@t1^(0+384),w
  9309  0221' 0020               	movlb	0	; select bank0
  9310  0222' 00C7'              	movwf	___flsub@b
  9311  0223' 3180' 2000' 3180'  	fcall	___flsub
  9312  0226' 0846'              	movf	?___flsub+3,w
  9313  0227' 0023               	movlb	3	; select bank3
  9314  0228' 0080'              	movwf	(_powf$1039+3)^(0+384)
  9315  0229' 0020               	movlb	0	; select bank0
  9316  022A' 0845'              	movf	?___flsub+2,w
  9317  022B' 0023               	movlb	3	; select bank3
  9318  022C' 0080'              	movwf	(_powf$1039+2)^(0+384)
  9319  022D' 0020               	movlb	0	; select bank0
  9320  022E' 0844'              	movf	?___flsub+1,w
  9321  022F' 0023               	movlb	3	; select bank3
  9322  0230' 0080'              	movwf	(_powf$1039+1)^(0+384)
  9323  0231' 0020               	movlb	0	; select bank0
  9324  0232' 0843'              	movf	?___flsub,w
  9325  0233' 0023               	movlb	3	; select bank3
  9326  0234' 0080'              	movwf	_powf$1039^(0+384)
  9327  0235' 0800'              	movf	(_powf$1039+3)^(0+384),w
  9328  0236' 0020               	movlb	0	; select bank0
  9329  0237' 00C6'              	movwf	___flsub@a+3
  9330  0238' 0023               	movlb	3	; select bank3
  9331  0239' 0800'              	movf	(_powf$1039+2)^(0+384),w
  9332  023A' 0020               	movlb	0	; select bank0
  9333  023B' 00C5'              	movwf	___flsub@a+2
  9334  023C' 0023               	movlb	3	; select bank3
  9335  023D' 0800'              	movf	(_powf$1039+1)^(0+384),w
  9336  023E' 0020               	movlb	0	; select bank0
  9337  023F' 00C4'              	movwf	___flsub@a+1
  9338  0240' 0023               	movlb	3	; select bank3
  9339  0241' 0800'              	movf	_powf$1039^(0+384),w
  9340  0242' 0020               	movlb	0	; select bank0
  9341  0243' 00C3'              	movwf	___flsub@a
  9342  0244' 0023               	movlb	3	; select bank3
  9343  0245' 0800'              	movf	(powf@v+3)^(0+384),w
  9344  0246' 0020               	movlb	0	; select bank0
  9345  0247' 00CA'              	movwf	___flsub@b+3
  9346  0248' 0023               	movlb	3	; select bank3
  9347  0249' 0800'              	movf	(powf@v+2)^(0+384),w
  9348  024A' 0020               	movlb	0	; select bank0
  9349  024B' 00C9'              	movwf	___flsub@b+2
  9350  024C' 0023               	movlb	3	; select bank3
  9351  024D' 0800'              	movf	(powf@v+1)^(0+384),w
  9352  024E' 0020               	movlb	0	; select bank0
  9353  024F' 00C8'              	movwf	___flsub@b+1
  9354  0250' 0023               	movlb	3	; select bank3
  9355  0251' 0800'              	movf	powf@v^(0+384),w
  9356  0252' 3180' 2800'        	goto	L5
  9357  0254'                    L24:
  9358  0254'                    L23:
  9359  0254' 3180' 2800'        	ljmp	L22
  9360                           
  9361                           	psect	text7_split_7
  9362  0000'                    i1l2985:
  9363  0000' 3000               	movlw	0
  9364  0001' 0022               	movlb	2	; select bank2
  9365  0002' 0080'              	movwf	(powf@n+3)^(0+256)
  9366  0003' 3000               	movlw	0
  9367  0004' 0080'              	movwf	(powf@n+2)^(0+256)
  9368  0005' 3000               	movlw	0
  9369  0006' 0080'              	movwf	(powf@n+1)^(0+256)
  9370  0007' 3000               	movlw	0
  9371  0008' 0080'              	movwf	powf@n^(0+256)
  9372  0009' 0023               	movlb	3	; select bank3
  9373  000A' 1B80'              	btfsc	(powf@ix+3)^(0+384),7
  9374  000B' 2800'              	goto	i1l2989
  9375  000C' 0800'              	movf	(powf@ix+3)^(0+384),w
  9376  000D' 1D03               	btfss	3,2
  9377  000E' 2800'              	goto	i1l2995
  9378  000F' 3080               	movlw	128
  9379  0010' 0200'              	subwf	(powf@ix+2)^(0+384),w
  9380  0011' 1803               	btfsc	3,0
  9381  0012' 2800'              	goto	i1l2995
  9382  0013'                    i1l2989:
  9383  0013' 304B               	movlw	75
  9384  0014' 0020               	movlb	0	; select bank0
  9385  0015' 0083'              	movwf	___flmul@b+3
  9386  0016' 3080               	movlw	128
  9387  0017' 0082'              	movwf	___flmul@b+2
  9388  0018' 3000               	movlw	0
  9389  0019' 0081'              	movwf	___flmul@b+1
  9390  001A' 3000               	movlw	0
  9391  001B' 0080'              	movwf	___flmul@b
  9392  001C' 0022               	movlb	2	; select bank2
  9393  001D' 0800'              	movf	(powf@ax+3)^(0+256),w
  9394  001E' 0020               	movlb	0	; select bank0
  9395  001F' 0087'              	movwf	___flmul@a+3
  9396  0020' 0022               	movlb	2	; select bank2
  9397  0021' 0800'              	movf	(powf@ax+2)^(0+256),w
  9398  0022' 0020               	movlb	0	; select bank0
  9399  0023' 0086'              	movwf	___flmul@a+2
  9400  0024' 0022               	movlb	2	; select bank2
  9401  0025' 0800'              	movf	(powf@ax+1)^(0+256),w
  9402  0026' 0020               	movlb	0	; select bank0
  9403  0027' 0085'              	movwf	___flmul@a+1
  9404  0028' 0022               	movlb	2	; select bank2
  9405  0029' 0800'              	movf	powf@ax^(0+256),w
  9406  002A' 0020               	movlb	0	; select bank0
  9407  002B' 0084'              	movwf	___flmul@a
  9408  002C' 3180' 2000' 3180'  	fcall	___flmul
  9409  002F' 0803'              	movf	?___flmul+3,w
  9410  0030' 0022               	movlb	2	; select bank2
  9411  0031' 0080'              	movwf	(powf@ax+3)^(0+256)
  9412  0032' 0020               	movlb	0	; select bank0
  9413  0033' 0802'              	movf	?___flmul+2,w
  9414  0034' 0022               	movlb	2	; select bank2
  9415  0035' 0080'              	movwf	(powf@ax+2)^(0+256)
  9416  0036' 0020               	movlb	0	; select bank0
  9417  0037' 0801'              	movf	?___flmul+1,w
  9418  0038' 0022               	movlb	2	; select bank2
  9419  0039' 0080'              	movwf	(powf@ax+1)^(0+256)
  9420  003A' 0020               	movlb	0	; select bank0
  9421  003B' 0800'              	movf	?___flmul,w
  9422  003C' 0022               	movlb	2	; select bank2
  9423  003D' 0080'              	movwf	powf@ax^(0+256)
  9424  003E' 30E8               	movlw	232
  9425  003F' 0780'              	addwf	powf@n^(0+256),f
  9426  0040' 30FF               	movlw	255
  9427  0041' 3D80'              	addwfc	(powf@n+1)^(0+256),f
  9428  0042' 30FF               	movlw	255
  9429  0043' 3D80'              	addwfc	(powf@n+2)^(0+256),f
  9430  0044' 30FF               	movlw	255
  9431  0045' 3D80'              	addwfc	(powf@n+3)^(0+256),f
  9432  0046' 0800'              	movf	(powf@ax+3)^(0+256),w
  9433  0047' 0023               	movlb	3	; select bank3
  9434  0048' 0080'              	movwf	(powf@ix+3)^(0+384)
  9435  0049' 0022               	movlb	2	; select bank2
  9436  004A' 0800'              	movf	(powf@ax+2)^(0+256),w
  9437  004B' 0023               	movlb	3	; select bank3
  9438  004C' 0080'              	movwf	(powf@ix+2)^(0+384)
  9439  004D' 0022               	movlb	2	; select bank2
  9440  004E' 0800'              	movf	(powf@ax+1)^(0+256),w
  9441  004F' 0023               	movlb	3	; select bank3
  9442  0050' 0080'              	movwf	(powf@ix+1)^(0+384)
  9443  0051' 0022               	movlb	2	; select bank2
  9444  0052' 0800'              	movf	powf@ax^(0+256),w
  9445  0053' 0023               	movlb	3	; select bank3
  9446  0054' 0080'              	movwf	powf@ix^(0+384)
  9447  0055'                    i1l2995:
  9448  0055' 3081               	movlw	129
  9449  0056' 0021               	movlb	1	; select bank1
  9450  0057' 0080'              	movwf	??_powf^(0+128)
  9451  0058' 30FF               	movlw	255
  9452  0059' 0081'              	movwf	(??_powf^(0+128)+1)
  9453  005A' 30FF               	movlw	255
  9454  005B' 0082'              	movwf	(??_powf^(0+128)+2)
  9455  005C' 30FF               	movlw	255
  9456  005D' 0083'              	movwf	(??_powf^(0+128)+3)
  9457  005E' 0023               	movlb	3	; select bank3
  9458  005F' 0800'              	movf	powf@ix^(0+384),w
  9459  0060' 0021               	movlb	1	; select bank1
  9460  0061' 0080'              	movwf	(??_powf+4)^(0+128)
  9461  0062' 0023               	movlb	3	; select bank3
  9462  0063' 0800'              	movf	(powf@ix+1)^(0+384),w
  9463  0064' 0021               	movlb	1	; select bank1
  9464  0065' 0081'              	movwf	((??_powf+4)^(0+128)+1)
  9465  0066' 0023               	movlb	3	; select bank3
  9466  0067' 0800'              	movf	(powf@ix+2)^(0+384),w
  9467  0068' 0021               	movlb	1	; select bank1
  9468  0069' 0082'              	movwf	((??_powf+4)^(0+128)+2)
  9469  006A' 0023               	movlb	3	; select bank3
  9470  006B' 0800'              	movf	(powf@ix+3)^(0+384),w
  9471  006C' 0021               	movlb	1	; select bank1
  9472  006D' 0083'              	movwf	((??_powf+4)^(0+128)+3)
  9473  006E' 3017               	movlw	23
  9474  006F' 0080'              	movwf	(??_powf+8)^(0+128)
  9475  0070'                    u419_25:
  9476  0070' 3783'              	asrf	((??_powf+4)^(0+128)+3),f
  9477  0071' 0C82'              	rrf	((??_powf+4)^(0+128)+2),f
  9478  0072' 0C81'              	rrf	((??_powf+4)^(0+128)+1),f
  9479  0073' 0C80'              	rrf	(??_powf+4)^(0+128),f
  9480  0074' 0B80'              	decfsz	(??_powf+8)^(0+128),f
  9481  0075' 2800'              	goto	u419_25
  9482  0076' 0800'              	movf	(??_powf+4)^(0+128),w
  9483  0077' 0780'              	addwf	??_powf^(0+128),f
  9484  0078' 0800'              	movf	(??_powf+5)^(0+128),w
  9485  0079' 3D81'              	addwfc	(??_powf^(0+128)+1),f
  9486  007A' 0800'              	movf	(??_powf+6)^(0+128),w
  9487  007B' 3D82'              	addwfc	(??_powf^(0+128)+2),f
  9488  007C' 0800'              	movf	(??_powf+7)^(0+128),w
  9489  007D' 3D83'              	addwfc	(??_powf^(0+128)+3),f
  9490  007E' 0800'              	movf	??_powf^(0+128),w
  9491  007F' 0022               	movlb	2	; select bank2
  9492  0080' 0780'              	addwf	powf@n^(0+256),f
  9493  0081' 0021               	movlb	1	; select bank1
  9494  0082' 0800'              	movf	(??_powf+1)^(0+128),w
  9495  0083' 0022               	movlb	2	; select bank2
  9496  0084' 3D80'              	addwfc	(powf@n+1)^(0+256),f
  9497  0085' 0021               	movlb	1	; select bank1
  9498  0086' 0800'              	movf	(??_powf+2)^(0+128),w
  9499  0087' 0022               	movlb	2	; select bank2
  9500  0088' 3D80'              	addwfc	(powf@n+2)^(0+256),f
  9501  0089' 0021               	movlb	1	; select bank1
  9502  008A' 0800'              	movf	(??_powf+3)^(0+128),w
  9503  008B' 0022               	movlb	2	; select bank2
  9504  008C' 3D80'              	addwfc	(powf@n+3)^(0+256),f
  9505  008D' 30FF               	movlw	255
  9506  008E' 0023               	movlb	3	; select bank3
  9507  008F' 0500'              	andwf	powf@ix^(0+384),w
  9508  0090' 0080'              	movwf	powf@j^(0+384)
  9509  0091' 30FF               	movlw	255
  9510  0092' 0500'              	andwf	(powf@ix+1)^(0+384),w
  9511  0093' 0080'              	movwf	(powf@j+1)^(0+384)
  9512  0094' 307F               	movlw	127
  9513  0095' 0500'              	andwf	(powf@ix+2)^(0+384),w
  9514  0096' 0080'              	movwf	(powf@j+2)^(0+384)
  9515  0097' 3000               	movlw	0
  9516  0098' 0500'              	andwf	(powf@ix+3)^(0+384),w
  9517  0099' 0080'              	movwf	(powf@j+3)^(0+384)
  9518  009A' 3000               	movlw	0
  9519  009B' 0080'              	movwf	(powf@k+3)^(0+384)
  9520  009C' 3000               	movlw	0
  9521  009D' 0080'              	movwf	(powf@k+2)^(0+384)
  9522  009E' 3000               	movlw	0
  9523  009F' 0080'              	movwf	(powf@k+1)^(0+384)
  9524  00A0' 3000               	movlw	0
  9525  00A1' 0080'              	movwf	powf@k^(0+384)
  9526  00A2' 3000               	movlw	0
  9527  00A3' 0400'              	iorwf	powf@j^(0+384),w
  9528  00A4' 0080'              	movwf	powf@ix^(0+384)
  9529  00A5' 3000               	movlw	0
  9530  00A6' 0400'              	iorwf	(powf@j+1)^(0+384),w
  9531  00A7' 0080'              	movwf	(powf@ix+1)^(0+384)
  9532  00A8' 3080               	movlw	128
  9533  00A9' 0400'              	iorwf	(powf@j+2)^(0+384),w
  9534  00AA' 0080'              	movwf	(powf@ix+2)^(0+384)
  9535  00AB' 303F               	movlw	63
  9536  00AC' 0400'              	iorwf	(powf@j+3)^(0+384),w
  9537  00AD' 0080'              	movwf	(powf@ix+3)^(0+384)
  9538  00AE' 1B80'              	btfsc	(powf@j+3)^(0+384),7
  9539  00AF' 2800'              	goto	i1l847
  9540  00B0' 0800'              	movf	(powf@j+3)^(0+384),w
  9541  00B1' 1D03               	btfss	3,2
  9542  00B2' 2800'              	goto	i1l3007
  9543  00B3' 3072               	movlw	114
  9544  00B4' 0200'              	subwf	powf@j^(0+384),w
  9545  00B5' 30C4               	movlw	196
  9546  00B6' 3B00'              	subwfb	(powf@j+1)^(0+384),w
  9547  00B7' 301C               	movlw	28
  9548  00B8' 3B00'              	subwfb	(powf@j+2)^(0+384),w
  9549  00B9' 1C03               	btfss	3,0
  9550  00BA' 2800'              	goto	i1l847
  9551  00BB'                    i1l3007:
  9552  00BB' 0023               	movlb	3	; select bank3
  9553  00BC' 1B80'              	btfsc	(powf@j+3)^(0+384),7
  9554  00BD' 2800'              	goto	i1l3009
  9555  00BE' 0800'              	movf	(powf@j+3)^(0+384),w
  9556  00BF' 1D03               	btfss	3,2
  9557  00C0' 2800'              	goto	i1l3011
  9558  00C1' 30D7               	movlw	215
  9559  00C2' 0200'              	subwf	powf@j^(0+384),w
  9560  00C3' 30B3               	movlw	179
  9561  00C4' 3B00'              	subwfb	(powf@j+1)^(0+384),w
  9562  00C5' 305D               	movlw	93
  9563  00C6' 3B00'              	subwfb	(powf@j+2)^(0+384),w
  9564  00C7' 1803               	btfsc	3,0
  9565  00C8' 2800'              	goto	i1l3011
  9566  00C9'                    i1l3009:
  9567  00C9' 3000               	movlw	0
  9568  00CA' 0023               	movlb	3	; select bank3
  9569  00CB' 0080'              	movwf	(powf@k+3)^(0+384)
  9570  00CC' 3000               	movlw	0
  9571  00CD' 0080'              	movwf	(powf@k+2)^(0+384)
  9572  00CE' 3000               	movlw	0
  9573  00CF' 0080'              	movwf	(powf@k+1)^(0+384)
  9574  00D0' 3001               	movlw	1
  9575  00D1' 0080'              	movwf	powf@k^(0+384)
  9576  00D2' 2800'              	goto	i1l847
  9577  00D3'                    i1l3011:
  9578  00D3' 3001               	movlw	1
  9579  00D4' 0022               	movlb	2	; select bank2
  9580  00D5' 0780'              	addwf	powf@n^(0+256),f
  9581  00D6' 3000               	movlw	0
  9582  00D7' 3D80'              	addwfc	(powf@n+1)^(0+256),f
  9583  00D8' 3000               	movlw	0
  9584  00D9' 3D80'              	addwfc	(powf@n+2)^(0+256),f
  9585  00DA' 3000               	movlw	0
  9586  00DB' 3D80'              	addwfc	(powf@n+3)^(0+256),f
  9587  00DC' 3000               	movlw	0
  9588  00DD' 0023               	movlb	3	; select bank3
  9589  00DE' 0780'              	addwf	powf@ix^(0+384),f
  9590  00DF' 3000               	movlw	0
  9591  00E0' 3D80'              	addwfc	(powf@ix+1)^(0+384),f
  9592  00E1' 3080               	movlw	128
  9593  00E2' 3D80'              	addwfc	(powf@ix+2)^(0+384),f
  9594  00E3' 30FF               	movlw	255
  9595  00E4' 3D80'              	addwfc	(powf@ix+3)^(0+384),f
  9596  00E5'                    i1l847:
  9597  00E5' 0023               	movlb	3	; select bank3
  9598  00E6' 0800'              	movf	(powf@ix+3)^(0+384),w
  9599  00E7' 0022               	movlb	2	; select bank2
  9600  00E8' 0080'              	movwf	(powf@ax+3)^(0+256)
  9601  00E9' 0023               	movlb	3	; select bank3
  9602  00EA' 0800'              	movf	(powf@ix+2)^(0+384),w
  9603  00EB' 0022               	movlb	2	; select bank2
  9604  00EC' 0080'              	movwf	(powf@ax+2)^(0+256)
  9605  00ED' 0023               	movlb	3	; select bank3
  9606  00EE' 0800'              	movf	(powf@ix+1)^(0+384),w
  9607  00EF' 0022               	movlb	2	; select bank2
  9608  00F0' 0080'              	movwf	(powf@ax+1)^(0+256)
  9609  00F1' 0023               	movlb	3	; select bank3
  9610  00F2' 0800'              	movf	powf@ix^(0+384),w
  9611  00F3' 0022               	movlb	2	; select bank2
  9612  00F4' 0080'              	movwf	powf@ax^(0+256)
  9613  00F5' 0023               	movlb	3	; select bank3
  9614  00F6' 0800'              	movf	(powf@k+1)^(0+384),w
  9615  00F7' 0085               	movwf	5
  9616  00F8' 0800'              	movf	powf@k^(0+384),w
  9617  00F9' 0084               	movwf	4
  9618  00FA' 3584               	lslf	4,f
  9619  00FB' 0D85               	rlf	5,f
  9620  00FC' 3584               	lslf	4,f
  9621  00FD' 0D85               	rlf	5,f
  9622  00FE' 3000'              	movlw	low _bp
  9623  00FF' 0784               	addwf	4,f
  9624  0100' 3000'              	movlw	high _bp
  9625  0101' 3D05               	addwfc	5,w
  9626  0102' 3880               	iorlw	128
  9627  0103' 0085               	movwf	5
  9628  0104' 3F00               	moviw [0]fsr0
  9629  0105' 0021               	movlb	1	; select bank1
  9630  0106' 0080'              	movwf	??_powf^(0+128)
  9631  0107' 3F01               	moviw [1]fsr0
  9632  0108' 0081'              	movwf	(??_powf^(0+128)+1)
  9633  0109' 3F02               	moviw [2]fsr0
  9634  010A' 0082'              	movwf	(??_powf^(0+128)+2)
  9635  010B' 3F03               	moviw [3]fsr0
  9636  010C' 0083'              	movwf	(??_powf^(0+128)+3)
  9637  010D' 0800'              	movf	(??_powf+3)^(0+128),w
  9638  010E' 0020               	movlb	0	; select bank0
  9639  010F' 00C6'              	movwf	___flsub@a+3
  9640  0110' 0021               	movlb	1	; select bank1
  9641  0111' 0800'              	movf	(??_powf+2)^(0+128),w
  9642  0112' 0020               	movlb	0	; select bank0
  9643  0113' 00C5'              	movwf	___flsub@a+2
  9644  0114' 0021               	movlb	1	; select bank1
  9645  0115' 0800'              	movf	(??_powf+1)^(0+128),w
  9646  0116' 0020               	movlb	0	; select bank0
  9647  0117' 00C4'              	movwf	___flsub@a+1
  9648  0118' 0021               	movlb	1	; select bank1
  9649  0119' 0800'              	movf	??_powf^(0+128),w
  9650  011A' 0020               	movlb	0	; select bank0
  9651  011B' 00C3'              	movwf	___flsub@a
  9652  011C' 0022               	movlb	2	; select bank2
  9653  011D' 0800'              	movf	(powf@ax+3)^(0+256),w
  9654  011E' 0020               	movlb	0	; select bank0
  9655  011F' 00CA'              	movwf	___flsub@b+3
  9656  0120' 0022               	movlb	2	; select bank2
  9657  0121' 0800'              	movf	(powf@ax+2)^(0+256),w
  9658  0122' 0020               	movlb	0	; select bank0
  9659  0123' 00C9'              	movwf	___flsub@b+2
  9660  0124' 0022               	movlb	2	; select bank2
  9661  0125' 0800'              	movf	(powf@ax+1)^(0+256),w
  9662  0126' 0020               	movlb	0	; select bank0
  9663  0127' 00C8'              	movwf	___flsub@b+1
  9664  0128' 0022               	movlb	2	; select bank2
  9665  0129' 0800'              	movf	powf@ax^(0+256),w
  9666  012A' 0020               	movlb	0	; select bank0
  9667  012B' 00C7'              	movwf	___flsub@b
  9668  012C' 3180' 2000'        	fcall	___flsub
  9669  012E' 0846'              	movf	?___flsub+3,w
  9670  012F' 3180' 2800'        	ljmp	L25
  9671                           
  9672                           	psect	text7_split_8
  9673  0000'                    L25:
  9674  0000' 0022               	movlb	2	; select bank2
  9675  0001' 0080'              	movwf	(powf@u+3)^(0+256)
  9676  0002' 0020               	movlb	0	; select bank0
  9677  0003' 0845'              	movf	?___flsub+2,w
  9678  0004' 0022               	movlb	2	; select bank2
  9679  0005' 0080'              	movwf	(powf@u+2)^(0+256)
  9680  0006' 0020               	movlb	0	; select bank0
  9681  0007' 0844'              	movf	?___flsub+1,w
  9682  0008' 0022               	movlb	2	; select bank2
  9683  0009' 0080'              	movwf	(powf@u+1)^(0+256)
  9684  000A' 0020               	movlb	0	; select bank0
  9685  000B' 0843'              	movf	?___flsub,w
  9686  000C' 0022               	movlb	2	; select bank2
  9687  000D' 0080'              	movwf	powf@u^(0+256)
  9688  000E' 0800'              	movf	(powf@ax+3)^(0+256),w
  9689  000F' 0020               	movlb	0	; select bank0
  9690  0010' 0098'              	movwf	___fladd@b+3
  9691  0011' 0022               	movlb	2	; select bank2
  9692  0012' 0800'              	movf	(powf@ax+2)^(0+256),w
  9693  0013' 0020               	movlb	0	; select bank0
  9694  0014' 0097'              	movwf	___fladd@b+2
  9695  0015' 0022               	movlb	2	; select bank2
  9696  0016' 0800'              	movf	(powf@ax+1)^(0+256),w
  9697  0017' 0020               	movlb	0	; select bank0
  9698  0018' 0096'              	movwf	___fladd@b+1
  9699  0019' 0022               	movlb	2	; select bank2
  9700  001A' 0800'              	movf	powf@ax^(0+256),w
  9701  001B' 0020               	movlb	0	; select bank0
  9702  001C' 0095'              	movwf	___fladd@b
  9703  001D' 0023               	movlb	3	; select bank3
  9704  001E' 0800'              	movf	(powf@k+1)^(0+384),w
  9705  001F' 0085               	movwf	5
  9706  0020' 0800'              	movf	powf@k^(0+384),w
  9707  0021' 0084               	movwf	4
  9708  0022' 3584               	lslf	4,f
  9709  0023' 0D85               	rlf	5,f
  9710  0024' 3584               	lslf	4,f
  9711  0025' 0D85               	rlf	5,f
  9712  0026' 3000'              	movlw	low _bp
  9713  0027' 0784               	addwf	4,f
  9714  0028' 3000'              	movlw	high _bp
  9715  0029' 3D05               	addwfc	5,w
  9716  002A' 3880               	iorlw	128
  9717  002B' 0085               	movwf	5
  9718  002C' 3F00               	moviw [0]fsr0
  9719  002D' 0021               	movlb	1	; select bank1
  9720  002E' 0080'              	movwf	??_powf^(0+128)
  9721  002F' 3F01               	moviw [1]fsr0
  9722  0030' 0081'              	movwf	(??_powf^(0+128)+1)
  9723  0031' 3F02               	moviw [2]fsr0
  9724  0032' 0082'              	movwf	(??_powf^(0+128)+2)
  9725  0033' 3F03               	moviw [3]fsr0
  9726  0034' 0083'              	movwf	(??_powf^(0+128)+3)
  9727  0035' 0800'              	movf	(??_powf+3)^(0+128),w
  9728  0036' 0020               	movlb	0	; select bank0
  9729  0037' 009C'              	movwf	___fladd@a+3
  9730  0038' 0021               	movlb	1	; select bank1
  9731  0039' 0800'              	movf	(??_powf+2)^(0+128),w
  9732  003A' 0020               	movlb	0	; select bank0
  9733  003B' 009B'              	movwf	___fladd@a+2
  9734  003C' 0021               	movlb	1	; select bank1
  9735  003D' 0800'              	movf	(??_powf+1)^(0+128),w
  9736  003E' 0020               	movlb	0	; select bank0
  9737  003F' 009A'              	movwf	___fladd@a+1
  9738  0040' 0021               	movlb	1	; select bank1
  9739  0041' 0800'              	movf	??_powf^(0+128),w
  9740  0042' 0020               	movlb	0	; select bank0
  9741  0043' 0099'              	movwf	___fladd@a
  9742  0044' 3180' 2000' 3180'  	fcall	___fladd
  9743  0047' 0818'              	movf	?___fladd+3,w
  9744  0048' 00AC'              	movwf	___fldiv@a+3
  9745  0049' 0817'              	movf	?___fladd+2,w
  9746  004A' 00AB'              	movwf	___fldiv@a+2
  9747  004B' 0816'              	movf	?___fladd+1,w
  9748  004C' 00AA'              	movwf	___fldiv@a+1
  9749  004D' 0815'              	movf	?___fladd,w
  9750  004E' 00A9'              	movwf	___fldiv@a
  9751  004F' 303F               	movlw	63
  9752  0050' 00B0'              	movwf	___fldiv@b+3
  9753  0051' 3080               	movlw	128
  9754  0052' 00AF'              	movwf	___fldiv@b+2
  9755  0053' 3000               	movlw	0
  9756  0054' 00AE'              	movwf	___fldiv@b+1
  9757  0055' 3000               	movlw	0
  9758  0056' 00AD'              	movwf	___fldiv@b
  9759  0057' 3180' 2000' 3180'  	fcall	___fldiv
  9760  005A' 082C'              	movf	?___fldiv+3,w
  9761  005B' 0023               	movlb	3	; select bank3
  9762  005C' 0080'              	movwf	(powf@v+3)^(0+384)
  9763  005D' 0020               	movlb	0	; select bank0
  9764  005E' 082B'              	movf	?___fldiv+2,w
  9765  005F' 0023               	movlb	3	; select bank3
  9766  0060' 0080'              	movwf	(powf@v+2)^(0+384)
  9767  0061' 0020               	movlb	0	; select bank0
  9768  0062' 082A'              	movf	?___fldiv+1,w
  9769  0063' 0023               	movlb	3	; select bank3
  9770  0064' 0080'              	movwf	(powf@v+1)^(0+384)
  9771  0065' 0020               	movlb	0	; select bank0
  9772  0066' 0829'              	movf	?___fldiv,w
  9773  0067' 0023               	movlb	3	; select bank3
  9774  0068' 0080'              	movwf	powf@v^(0+384)
  9775  0069' 0800'              	movf	(powf@v+3)^(0+384),w
  9776  006A' 0020               	movlb	0	; select bank0
  9777  006B' 0083'              	movwf	___flmul@b+3
  9778  006C' 0023               	movlb	3	; select bank3
  9779  006D' 0800'              	movf	(powf@v+2)^(0+384),w
  9780  006E' 0020               	movlb	0	; select bank0
  9781  006F' 0082'              	movwf	___flmul@b+2
  9782  0070' 0023               	movlb	3	; select bank3
  9783  0071' 0800'              	movf	(powf@v+1)^(0+384),w
  9784  0072' 0020               	movlb	0	; select bank0
  9785  0073' 0081'              	movwf	___flmul@b+1
  9786  0074' 0023               	movlb	3	; select bank3
  9787  0075' 0800'              	movf	powf@v^(0+384),w
  9788  0076' 0020               	movlb	0	; select bank0
  9789  0077' 0080'              	movwf	___flmul@b
  9790  0078' 0022               	movlb	2	; select bank2
  9791  0079' 0800'              	movf	(powf@u+3)^(0+256),w
  9792  007A' 0020               	movlb	0	; select bank0
  9793  007B' 0087'              	movwf	___flmul@a+3
  9794  007C' 0022               	movlb	2	; select bank2
  9795  007D' 0800'              	movf	(powf@u+2)^(0+256),w
  9796  007E' 0020               	movlb	0	; select bank0
  9797  007F' 0086'              	movwf	___flmul@a+2
  9798  0080' 0022               	movlb	2	; select bank2
  9799  0081' 0800'              	movf	(powf@u+1)^(0+256),w
  9800  0082' 0020               	movlb	0	; select bank0
  9801  0083' 0085'              	movwf	___flmul@a+1
  9802  0084' 0022               	movlb	2	; select bank2
  9803  0085' 0800'              	movf	powf@u^(0+256),w
  9804  0086' 0020               	movlb	0	; select bank0
  9805  0087' 0084'              	movwf	___flmul@a
  9806  0088' 3180' 2000'        	fcall	___flmul
  9807  008A' 0803'              	movf	?___flmul+3,w
  9808  008B' 3180' 2800'        	ljmp	L26
  9809                           
  9810                           	psect	text7_split_9
  9811  0000'                    L26:
  9812  0000' 0022               	movlb	2	; select bank2
  9813  0001' 0080'              	movwf	(powf@s+3)^(0+256)
  9814  0002' 0020               	movlb	0	; select bank0
  9815  0003' 0802'              	movf	?___flmul+2,w
  9816  0004' 0022               	movlb	2	; select bank2
  9817  0005' 0080'              	movwf	(powf@s+2)^(0+256)
  9818  0006' 0020               	movlb	0	; select bank0
  9819  0007' 0801'              	movf	?___flmul+1,w
  9820  0008' 0022               	movlb	2	; select bank2
  9821  0009' 0080'              	movwf	(powf@s+1)^(0+256)
  9822  000A' 0020               	movlb	0	; select bank0
  9823  000B' 0800'              	movf	?___flmul,w
  9824  000C' 0022               	movlb	2	; select bank2
  9825  000D' 0080'              	movwf	powf@s^(0+256)
  9826  000E' 0800'              	movf	(powf@s+3)^(0+256),w
  9827  000F' 0080'              	movwf	(powf@s_h+3)^(0+256)
  9828  0010' 0800'              	movf	(powf@s+2)^(0+256),w
  9829  0011' 0080'              	movwf	(powf@s_h+2)^(0+256)
  9830  0012' 0800'              	movf	(powf@s+1)^(0+256),w
  9831  0013' 0080'              	movwf	(powf@s_h+1)^(0+256)
  9832  0014' 0800'              	movf	powf@s^(0+256),w
  9833  0015' 0080'              	movwf	powf@s_h^(0+256)
  9834  0016' 0800'              	movf	(powf@s_h+3)^(0+256),w
  9835  0017' 0023               	movlb	3	; select bank3
  9836  0018' 0080'              	movwf	(powf@is+3)^(0+384)
  9837  0019' 0022               	movlb	2	; select bank2
  9838  001A' 0800'              	movf	(powf@s_h+2)^(0+256),w
  9839  001B' 0023               	movlb	3	; select bank3
  9840  001C' 0080'              	movwf	(powf@is+2)^(0+384)
  9841  001D' 0022               	movlb	2	; select bank2
  9842  001E' 0800'              	movf	(powf@s_h+1)^(0+256),w
  9843  001F' 0023               	movlb	3	; select bank3
  9844  0020' 0080'              	movwf	(powf@is+1)^(0+384)
  9845  0021' 0022               	movlb	2	; select bank2
  9846  0022' 0800'              	movf	powf@s_h^(0+256),w
  9847  0023' 0023               	movlb	3	; select bank3
  9848  0024' 0080'              	movwf	powf@is^(0+384)
  9849  0025' 3000               	movlw	0
  9850  0026' 0500'              	andwf	powf@is^(0+384),w
  9851  0027' 0022               	movlb	2	; select bank2
  9852  0028' 0080'              	movwf	powf@s_h^(0+256)
  9853  0029' 30F0               	movlw	240
  9854  002A' 0023               	movlb	3	; select bank3
  9855  002B' 0500'              	andwf	(powf@is+1)^(0+384),w
  9856  002C' 0022               	movlb	2	; select bank2
  9857  002D' 0080'              	movwf	(powf@s_h+1)^(0+256)
  9858  002E' 30FF               	movlw	255
  9859  002F' 0023               	movlb	3	; select bank3
  9860  0030' 0500'              	andwf	(powf@is+2)^(0+384),w
  9861  0031' 0022               	movlb	2	; select bank2
  9862  0032' 0080'              	movwf	(powf@s_h+2)^(0+256)
  9863  0033' 30FF               	movlw	255
  9864  0034' 0023               	movlb	3	; select bank3
  9865  0035' 0500'              	andwf	(powf@is+3)^(0+384),w
  9866  0036' 0022               	movlb	2	; select bank2
  9867  0037' 0080'              	movwf	(powf@s_h+3)^(0+256)
  9868  0038' 3000               	movlw	0
  9869  0039' 0021               	movlb	1	; select bank1
  9870  003A' 0080'              	movwf	??_powf^(0+128)
  9871  003B' 30F0               	movlw	240
  9872  003C' 0081'              	movwf	(??_powf^(0+128)+1)
  9873  003D' 30FF               	movlw	255
  9874  003E' 0082'              	movwf	(??_powf^(0+128)+2)
  9875  003F' 30FF               	movlw	255
  9876  0040' 0083'              	movwf	(??_powf^(0+128)+3)
  9877  0041' 0023               	movlb	3	; select bank3
  9878  0042' 0800'              	movf	powf@ix^(0+384),w
  9879  0043' 0021               	movlb	1	; select bank1
  9880  0044' 0080'              	movwf	(??_powf+4)^(0+128)
  9881  0045' 0023               	movlb	3	; select bank3
  9882  0046' 0800'              	movf	(powf@ix+1)^(0+384),w
  9883  0047' 0021               	movlb	1	; select bank1
  9884  0048' 0081'              	movwf	((??_powf+4)^(0+128)+1)
  9885  0049' 0023               	movlb	3	; select bank3
  9886  004A' 0800'              	movf	(powf@ix+2)^(0+384),w
  9887  004B' 0021               	movlb	1	; select bank1
  9888  004C' 0082'              	movwf	((??_powf+4)^(0+128)+2)
  9889  004D' 0023               	movlb	3	; select bank3
  9890  004E' 0800'              	movf	(powf@ix+3)^(0+384),w
  9891  004F' 0021               	movlb	1	; select bank1
  9892  0050' 0083'              	movwf	((??_powf+4)^(0+128)+3)
  9893  0051' 3001               	movlw	1
  9894  0052' 0080'              	movwf	(??_powf+8)^(0+128)
  9895  0053'                    u422_25:
  9896  0053' 3783'              	asrf	((??_powf+4)^(0+128)+3),f
  9897  0054' 0C82'              	rrf	((??_powf+4)^(0+128)+2),f
  9898  0055' 0C81'              	rrf	((??_powf+4)^(0+128)+1),f
  9899  0056' 0C80'              	rrf	(??_powf+4)^(0+128),f
  9900  0057' 0B80'              	decfsz	(??_powf+8)^(0+128),f
  9901  0058' 2800'              	goto	u422_25
  9902  0059' 0800'              	movf	(??_powf+4)^(0+128),w
  9903  005A' 0580'              	andwf	??_powf^(0+128),f
  9904  005B' 0800'              	movf	(??_powf+5)^(0+128),w
  9905  005C' 0581'              	andwf	(??_powf^(0+128)+1),f
  9906  005D' 0800'              	movf	(??_powf+6)^(0+128),w
  9907  005E' 0582'              	andwf	(??_powf^(0+128)+2),f
  9908  005F' 0800'              	movf	(??_powf+7)^(0+128),w
  9909  0060' 0583'              	andwf	(??_powf^(0+128)+3),f
  9910  0061' 3000               	movlw	0
  9911  0062' 0400'              	iorwf	??_powf^(0+128),w
  9912  0063' 0023               	movlb	3	; select bank3
  9913  0064' 0080'              	movwf	powf@is^(0+384)
  9914  0065' 3000               	movlw	0
  9915  0066' 0021               	movlb	1	; select bank1
  9916  0067' 0400'              	iorwf	(??_powf+1)^(0+128),w
  9917  0068' 0023               	movlb	3	; select bank3
  9918  0069' 0080'              	movwf	(powf@is+1)^(0+384)
  9919  006A' 3000               	movlw	0
  9920  006B' 0021               	movlb	1	; select bank1
  9921  006C' 0400'              	iorwf	(??_powf+2)^(0+128),w
  9922  006D' 0023               	movlb	3	; select bank3
  9923  006E' 0080'              	movwf	(powf@is+2)^(0+384)
  9924  006F' 3020               	movlw	32
  9925  0070' 0021               	movlb	1	; select bank1
  9926  0071' 0400'              	iorwf	(??_powf+3)^(0+128),w
  9927  0072' 0023               	movlb	3	; select bank3
  9928  0073' 0080'              	movwf	(powf@is+3)^(0+384)
  9929  0074' 0800'              	movf	powf@is^(0+384),w
  9930  0075' 0021               	movlb	1	; select bank1
  9931  0076' 0080'              	movwf	??_powf^(0+128)
  9932  0077' 0023               	movlb	3	; select bank3
  9933  0078' 0800'              	movf	(powf@is+1)^(0+384),w
  9934  0079' 0021               	movlb	1	; select bank1
  9935  007A' 0081'              	movwf	(??_powf^(0+128)+1)
  9936  007B' 0023               	movlb	3	; select bank3
  9937  007C' 0800'              	movf	(powf@is+2)^(0+384),w
  9938  007D' 0021               	movlb	1	; select bank1
  9939  007E' 0082'              	movwf	(??_powf^(0+128)+2)
  9940  007F' 0023               	movlb	3	; select bank3
  9941  0080' 0800'              	movf	(powf@is+3)^(0+384),w
  9942  0081' 0021               	movlb	1	; select bank1
  9943  0082' 0083'              	movwf	(??_powf^(0+128)+3)
  9944  0083' 0023               	movlb	3	; select bank3
  9945  0084' 0800'              	movf	powf@k^(0+384),w
  9946  0085' 0021               	movlb	1	; select bank1
  9947  0086' 0080'              	movwf	(??_powf+4)^(0+128)
  9948  0087' 0023               	movlb	3	; select bank3
  9949  0088' 0800'              	movf	(powf@k+1)^(0+384),w
  9950  0089' 0021               	movlb	1	; select bank1
  9951  008A' 0081'              	movwf	((??_powf+4)^(0+128)+1)
  9952  008B' 0023               	movlb	3	; select bank3
  9953  008C' 0800'              	movf	(powf@k+2)^(0+384),w
  9954  008D' 0021               	movlb	1	; select bank1
  9955  008E' 0082'              	movwf	((??_powf+4)^(0+128)+2)
  9956  008F' 0023               	movlb	3	; select bank3
  9957  0090' 0800'              	movf	(powf@k+3)^(0+384),w
  9958  0091' 0021               	movlb	1	; select bank1
  9959  0092' 0083'              	movwf	((??_powf+4)^(0+128)+3)
  9960  0093' 3015               	movlw	21
  9961  0094'                    u423_25:
  9962  0094' 3580'              	lslf	(??_powf+4)^(0+128),f
  9963  0095' 0D81'              	rlf	((??_powf+4)^(0+128)+1),f
  9964  0096' 0D82'              	rlf	((??_powf+4)^(0+128)+2),f
  9965  0097' 0D83'              	rlf	((??_powf+4)^(0+128)+3),f
  9966  0098' 0B89               	decfsz	9,f
  9967  0099' 2800'              	goto	u423_25
  9968  009A' 0800'              	movf	(??_powf+4)^(0+128),w
  9969  009B' 0780'              	addwf	??_powf^(0+128),f
  9970  009C' 0800'              	movf	(??_powf+5)^(0+128),w
  9971  009D' 3D81'              	addwfc	(??_powf^(0+128)+1),f
  9972  009E' 0800'              	movf	(??_powf+6)^(0+128),w
  9973  009F' 3D82'              	addwfc	(??_powf^(0+128)+2),f
  9974  00A0' 0800'              	movf	(??_powf+7)^(0+128),w
  9975  00A1' 3D83'              	addwfc	(??_powf^(0+128)+3),f
  9976  00A2' 3000               	movlw	0
  9977  00A3' 0700'              	addwf	??_powf^(0+128),w
  9978  00A4' 0022               	movlb	2	; select bank2
  9979  00A5' 0080'              	movwf	powf@t_h^(0+256)
  9980  00A6' 3000               	movlw	0
  9981  00A7' 0021               	movlb	1	; select bank1
  9982  00A8' 3D00'              	addwfc	(??_powf+1)^(0+128),w
  9983  00A9' 0022               	movlb	2	; select bank2
  9984  00AA' 0080'              	movwf	(powf@t_h+1)^(0+256)
  9985  00AB' 3040               	movlw	64
  9986  00AC' 0021               	movlb	1	; select bank1
  9987  00AD' 3D00'              	addwfc	(??_powf+2)^(0+128),w
  9988  00AE' 0022               	movlb	2	; select bank2
  9989  00AF' 0080'              	movwf	(powf@t_h+2)^(0+256)
  9990  00B0' 3000               	movlw	0
  9991  00B1' 0021               	movlb	1	; select bank1
  9992  00B2' 3D00'              	addwfc	(??_powf+3)^(0+128),w
  9993  00B3' 0022               	movlb	2	; select bank2
  9994  00B4' 0080'              	movwf	(powf@t_h+3)^(0+256)
  9995  00B5' 0023               	movlb	3	; select bank3
  9996  00B6' 0800'              	movf	(powf@k+1)^(0+384),w
  9997  00B7' 0085               	movwf	5
  9998  00B8' 0800'              	movf	powf@k^(0+384),w
  9999  00B9' 0084               	movwf	4
 10000  00BA' 3584               	lslf	4,f
 10001  00BB' 0D85               	rlf	5,f
 10002  00BC' 3584               	lslf	4,f
 10003  00BD' 0D85               	rlf	5,f
 10004  00BE' 3000'              	movlw	low _bp
 10005  00BF' 0784               	addwf	4,f
 10006  00C0' 3000'              	movlw	high _bp
 10007  00C1' 3D05               	addwfc	5,w
 10008  00C2' 3880               	iorlw	128
 10009  00C3' 0085               	movwf	5
 10010  00C4' 3F00               	moviw [0]fsr0
 10011  00C5' 0021               	movlb	1	; select bank1
 10012  00C6' 0080'              	movwf	??_powf^(0+128)
 10013  00C7' 3F01               	moviw [1]fsr0
 10014  00C8' 0081'              	movwf	(??_powf^(0+128)+1)
 10015  00C9' 3F02               	moviw [2]fsr0
 10016  00CA' 0082'              	movwf	(??_powf^(0+128)+2)
 10017  00CB' 3F03               	moviw [3]fsr0
 10018  00CC' 0083'              	movwf	(??_powf^(0+128)+3)
 10019  00CD' 0800'              	movf	(??_powf+3)^(0+128),w
 10020  00CE' 0020               	movlb	0	; select bank0
 10021  00CF' 00C6'              	movwf	___flsub@a+3
 10022  00D0' 0021               	movlb	1	; select bank1
 10023  00D1' 0800'              	movf	(??_powf+2)^(0+128),w
 10024  00D2' 0020               	movlb	0	; select bank0
 10025  00D3' 00C5'              	movwf	___flsub@a+2
 10026  00D4' 0021               	movlb	1	; select bank1
 10027  00D5' 0800'              	movf	(??_powf+1)^(0+128),w
 10028  00D6' 0020               	movlb	0	; select bank0
 10029  00D7' 00C4'              	movwf	___flsub@a+1
 10030  00D8' 0021               	movlb	1	; select bank1
 10031  00D9' 0800'              	movf	??_powf^(0+128),w
 10032  00DA' 0020               	movlb	0	; select bank0
 10033  00DB' 00C3'              	movwf	___flsub@a
 10034  00DC' 0022               	movlb	2	; select bank2
 10035  00DD' 0800'              	movf	(powf@t_h+3)^(0+256),w
 10036  00DE' 0020               	movlb	0	; select bank0
 10037  00DF' 00CA'              	movwf	___flsub@b+3
 10038  00E0' 0022               	movlb	2	; select bank2
 10039  00E1' 0800'              	movf	(powf@t_h+2)^(0+256),w
 10040  00E2' 0020               	movlb	0	; select bank0
 10041  00E3' 00C9'              	movwf	___flsub@b+2
 10042  00E4' 0022               	movlb	2	; select bank2
 10043  00E5' 0800'              	movf	(powf@t_h+1)^(0+256),w
 10044  00E6' 0020               	movlb	0	; select bank0
 10045  00E7' 00C8'              	movwf	___flsub@b+1
 10046  00E8' 0022               	movlb	2	; select bank2
 10047  00E9' 0800'              	movf	powf@t_h^(0+256),w
 10048  00EA' 0020               	movlb	0	; select bank0
 10049  00EB' 00C7'              	movwf	___flsub@b
 10050  00EC' 3180' 2000'        	fcall	___flsub
 10051  00EE' 0846'              	movf	?___flsub+3,w
 10052  00EF' 3180' 2800'        	ljmp	L27
 10053                           
 10054                           	psect	text7_split_10
 10055  0000'                    L27:
 10056  0000' 0023               	movlb	3	; select bank3
 10057  0001' 0080'              	movwf	(_powf$1039+3)^(0+384)
 10058  0002' 0020               	movlb	0	; select bank0
 10059  0003' 0845'              	movf	?___flsub+2,w
 10060  0004' 0023               	movlb	3	; select bank3
 10061  0005' 0080'              	movwf	(_powf$1039+2)^(0+384)
 10062  0006' 0020               	movlb	0	; select bank0
 10063  0007' 0844'              	movf	?___flsub+1,w
 10064  0008' 0023               	movlb	3	; select bank3
 10065  0009' 0080'              	movwf	(_powf$1039+1)^(0+384)
 10066  000A' 0020               	movlb	0	; select bank0
 10067  000B' 0843'              	movf	?___flsub,w
 10068  000C' 0023               	movlb	3	; select bank3
 10069  000D' 0080'              	movwf	_powf$1039^(0+384)
 10070  000E' 0800'              	movf	(_powf$1039+3)^(0+384),w
 10071  000F' 0020               	movlb	0	; select bank0
 10072  0010' 00C6'              	movwf	___flsub@a+3
 10073  0011' 0023               	movlb	3	; select bank3
 10074  0012' 0800'              	movf	(_powf$1039+2)^(0+384),w
 10075  0013' 0020               	movlb	0	; select bank0
 10076  0014' 00C5'              	movwf	___flsub@a+2
 10077  0015' 0023               	movlb	3	; select bank3
 10078  0016' 0800'              	movf	(_powf$1039+1)^(0+384),w
 10079  0017' 0020               	movlb	0	; select bank0
 10080  0018' 00C4'              	movwf	___flsub@a+1
 10081  0019' 0023               	movlb	3	; select bank3
 10082  001A' 0800'              	movf	_powf$1039^(0+384),w
 10083  001B' 0020               	movlb	0	; select bank0
 10084  001C' 00C3'              	movwf	___flsub@a
 10085  001D' 0022               	movlb	2	; select bank2
 10086  001E' 0800'              	movf	(powf@ax+3)^(0+256),w
 10087  001F' 0020               	movlb	0	; select bank0
 10088  0020' 00CA'              	movwf	___flsub@b+3
 10089  0021' 0022               	movlb	2	; select bank2
 10090  0022' 0800'              	movf	(powf@ax+2)^(0+256),w
 10091  0023' 0020               	movlb	0	; select bank0
 10092  0024' 00C9'              	movwf	___flsub@b+2
 10093  0025' 0022               	movlb	2	; select bank2
 10094  0026' 0800'              	movf	(powf@ax+1)^(0+256),w
 10095  0027' 0020               	movlb	0	; select bank0
 10096  0028' 00C8'              	movwf	___flsub@b+1
 10097  0029' 0022               	movlb	2	; select bank2
 10098  002A' 0800'              	movf	powf@ax^(0+256),w
 10099  002B' 0020               	movlb	0	; select bank0
 10100  002C' 00C7'              	movwf	___flsub@b
 10101  002D' 3180' 2000' 3180'  	fcall	___flsub
 10102  0030' 0846'              	movf	?___flsub+3,w
 10103  0031' 0022               	movlb	2	; select bank2
 10104  0032' 0080'              	movwf	(powf@t_l+3)^(0+256)
 10105  0033' 0020               	movlb	0	; select bank0
 10106  0034' 0845'              	movf	?___flsub+2,w
 10107  0035' 0022               	movlb	2	; select bank2
 10108  0036' 0080'              	movwf	(powf@t_l+2)^(0+256)
 10109  0037' 0020               	movlb	0	; select bank0
 10110  0038' 0844'              	movf	?___flsub+1,w
 10111  0039' 0022               	movlb	2	; select bank2
 10112  003A' 0080'              	movwf	(powf@t_l+1)^(0+256)
 10113  003B' 0020               	movlb	0	; select bank0
 10114  003C' 0843'              	movf	?___flsub,w
 10115  003D' 0022               	movlb	2	; select bank2
 10116  003E' 0080'              	movwf	powf@t_l^(0+256)
 10117  003F' 0800'              	movf	(powf@t_h+3)^(0+256),w
 10118  0040' 0020               	movlb	0	; select bank0
 10119  0041' 0083'              	movwf	___flmul@b+3
 10120  0042' 0022               	movlb	2	; select bank2
 10121  0043' 0800'              	movf	(powf@t_h+2)^(0+256),w
 10122  0044' 0020               	movlb	0	; select bank0
 10123  0045' 0082'              	movwf	___flmul@b+2
 10124  0046' 0022               	movlb	2	; select bank2
 10125  0047' 0800'              	movf	(powf@t_h+1)^(0+256),w
 10126  0048' 0020               	movlb	0	; select bank0
 10127  0049' 0081'              	movwf	___flmul@b+1
 10128  004A' 0022               	movlb	2	; select bank2
 10129  004B' 0800'              	movf	powf@t_h^(0+256),w
 10130  004C' 0020               	movlb	0	; select bank0
 10131  004D' 0080'              	movwf	___flmul@b
 10132  004E' 0022               	movlb	2	; select bank2
 10133  004F' 0800'              	movf	(powf@s_h+3)^(0+256),w
 10134  0050' 0020               	movlb	0	; select bank0
 10135  0051' 0087'              	movwf	___flmul@a+3
 10136  0052' 0022               	movlb	2	; select bank2
 10137  0053' 0800'              	movf	(powf@s_h+2)^(0+256),w
 10138  0054' 0020               	movlb	0	; select bank0
 10139  0055' 0086'              	movwf	___flmul@a+2
 10140  0056' 0022               	movlb	2	; select bank2
 10141  0057' 0800'              	movf	(powf@s_h+1)^(0+256),w
 10142  0058' 0020               	movlb	0	; select bank0
 10143  0059' 0085'              	movwf	___flmul@a+1
 10144  005A' 0022               	movlb	2	; select bank2
 10145  005B' 0800'              	movf	powf@s_h^(0+256),w
 10146  005C' 0020               	movlb	0	; select bank0
 10147  005D' 0084'              	movwf	___flmul@a
 10148  005E' 3180' 2000' 3180'  	fcall	___flmul
 10149  0061' 0803'              	movf	?___flmul+3,w
 10150  0062' 00C6'              	movwf	___flsub@a+3
 10151  0063' 0802'              	movf	?___flmul+2,w
 10152  0064' 00C5'              	movwf	___flsub@a+2
 10153  0065' 0801'              	movf	?___flmul+1,w
 10154  0066' 00C4'              	movwf	___flsub@a+1
 10155  0067' 0800'              	movf	?___flmul,w
 10156  0068' 00C3'              	movwf	___flsub@a
 10157  0069' 0022               	movlb	2	; select bank2
 10158  006A' 0800'              	movf	(powf@u+3)^(0+256),w
 10159  006B' 0020               	movlb	0	; select bank0
 10160  006C' 00CA'              	movwf	___flsub@b+3
 10161  006D' 0022               	movlb	2	; select bank2
 10162  006E' 0800'              	movf	(powf@u+2)^(0+256),w
 10163  006F' 0020               	movlb	0	; select bank0
 10164  0070' 00C9'              	movwf	___flsub@b+2
 10165  0071' 0022               	movlb	2	; select bank2
 10166  0072' 0800'              	movf	(powf@u+1)^(0+256),w
 10167  0073' 0020               	movlb	0	; select bank0
 10168  0074' 00C8'              	movwf	___flsub@b+1
 10169  0075' 0022               	movlb	2	; select bank2
 10170  0076' 0800'              	movf	powf@u^(0+256),w
 10171  0077' 0020               	movlb	0	; select bank0
 10172  0078' 00C7'              	movwf	___flsub@b
 10173  0079' 3180' 2000' 3180'  	fcall	___flsub
 10174  007C' 0846'              	movf	?___flsub+3,w
 10175  007D' 0023               	movlb	3	; select bank3
 10176  007E' 0080'              	movwf	(_powf$1039+3)^(0+384)
 10177  007F' 0020               	movlb	0	; select bank0
 10178  0080' 0845'              	movf	?___flsub+2,w
 10179  0081' 0023               	movlb	3	; select bank3
 10180  0082' 0080'              	movwf	(_powf$1039+2)^(0+384)
 10181  0083' 0020               	movlb	0	; select bank0
 10182  0084' 0844'              	movf	?___flsub+1,w
 10183  0085' 0023               	movlb	3	; select bank3
 10184  0086' 0080'              	movwf	(_powf$1039+1)^(0+384)
 10185  0087' 0020               	movlb	0	; select bank0
 10186  0088' 0843'              	movf	?___flsub,w
 10187  0089' 0023               	movlb	3	; select bank3
 10188  008A' 0080'              	movwf	_powf$1039^(0+384)
 10189  008B' 0022               	movlb	2	; select bank2
 10190  008C' 0800'              	movf	(powf@t_l+3)^(0+256),w
 10191  008D' 0020               	movlb	0	; select bank0
 10192  008E' 0083'              	movwf	___flmul@b+3
 10193  008F' 0022               	movlb	2	; select bank2
 10194  0090' 0800'              	movf	(powf@t_l+2)^(0+256),w
 10195  0091' 0020               	movlb	0	; select bank0
 10196  0092' 0082'              	movwf	___flmul@b+2
 10197  0093' 0022               	movlb	2	; select bank2
 10198  0094' 0800'              	movf	(powf@t_l+1)^(0+256),w
 10199  0095' 0020               	movlb	0	; select bank0
 10200  0096' 0081'              	movwf	___flmul@b+1
 10201  0097' 0022               	movlb	2	; select bank2
 10202  0098' 0800'              	movf	powf@t_l^(0+256),w
 10203  0099' 0020               	movlb	0	; select bank0
 10204  009A' 0080'              	movwf	___flmul@b
 10205  009B' 0022               	movlb	2	; select bank2
 10206  009C' 0800'              	movf	(powf@s_h+3)^(0+256),w
 10207  009D' 0020               	movlb	0	; select bank0
 10208  009E' 0087'              	movwf	___flmul@a+3
 10209  009F' 0022               	movlb	2	; select bank2
 10210  00A0' 0800'              	movf	(powf@s_h+2)^(0+256),w
 10211  00A1' 0020               	movlb	0	; select bank0
 10212  00A2' 0086'              	movwf	___flmul@a+2
 10213  00A3' 0022               	movlb	2	; select bank2
 10214  00A4' 0800'              	movf	(powf@s_h+1)^(0+256),w
 10215  00A5' 0020               	movlb	0	; select bank0
 10216  00A6' 0085'              	movwf	___flmul@a+1
 10217  00A7' 0022               	movlb	2	; select bank2
 10218  00A8' 0800'              	movf	powf@s_h^(0+256),w
 10219  00A9' 0020               	movlb	0	; select bank0
 10220  00AA' 0084'              	movwf	___flmul@a
 10221  00AB' 3180' 2000'        	fcall	___flmul
 10222  00AD' 0803'              	movf	?___flmul+3,w
 10223  00AE' 3180' 2800'        	ljmp	L28
 10224                           
 10225                           	psect	text7_split_11
 10226  0000'                    L28:
 10227  0000' 00C6'              	movwf	___flsub@a+3
 10228  0001' 0802'              	movf	?___flmul+2,w
 10229  0002' 00C5'              	movwf	___flsub@a+2
 10230  0003' 0801'              	movf	?___flmul+1,w
 10231  0004' 00C4'              	movwf	___flsub@a+1
 10232  0005' 0800'              	movf	?___flmul,w
 10233  0006' 00C3'              	movwf	___flsub@a
 10234  0007' 0023               	movlb	3	; select bank3
 10235  0008' 0800'              	movf	(_powf$1039+3)^(0+384),w
 10236  0009' 0020               	movlb	0	; select bank0
 10237  000A' 00CA'              	movwf	___flsub@b+3
 10238  000B' 0023               	movlb	3	; select bank3
 10239  000C' 0800'              	movf	(_powf$1039+2)^(0+384),w
 10240  000D' 0020               	movlb	0	; select bank0
 10241  000E' 00C9'              	movwf	___flsub@b+2
 10242  000F' 0023               	movlb	3	; select bank3
 10243  0010' 0800'              	movf	(_powf$1039+1)^(0+384),w
 10244  0011' 0020               	movlb	0	; select bank0
 10245  0012' 00C8'              	movwf	___flsub@b+1
 10246  0013' 0023               	movlb	3	; select bank3
 10247  0014' 0800'              	movf	_powf$1039^(0+384),w
 10248  0015' 0020               	movlb	0	; select bank0
 10249  0016' 00C7'              	movwf	___flsub@b
 10250  0017' 3180' 2000' 3180'  	fcall	___flsub
 10251  001A' 0846'              	movf	?___flsub+3,w
 10252  001B' 0022               	movlb	2	; select bank2
 10253  001C' 0080'              	movwf	(_powf$1037+3)^(0+256)
 10254  001D' 0020               	movlb	0	; select bank0
 10255  001E' 0845'              	movf	?___flsub+2,w
 10256  001F' 0022               	movlb	2	; select bank2
 10257  0020' 0080'              	movwf	(_powf$1037+2)^(0+256)
 10258  0021' 0020               	movlb	0	; select bank0
 10259  0022' 0844'              	movf	?___flsub+1,w
 10260  0023' 0022               	movlb	2	; select bank2
 10261  0024' 0080'              	movwf	(_powf$1037+1)^(0+256)
 10262  0025' 0020               	movlb	0	; select bank0
 10263  0026' 0843'              	movf	?___flsub,w
 10264  0027' 0022               	movlb	2	; select bank2
 10265  0028' 0080'              	movwf	_powf$1037^(0+256)
 10266  0029' 0023               	movlb	3	; select bank3
 10267  002A' 0800'              	movf	(powf@v+3)^(0+384),w
 10268  002B' 0020               	movlb	0	; select bank0
 10269  002C' 0083'              	movwf	___flmul@b+3
 10270  002D' 0023               	movlb	3	; select bank3
 10271  002E' 0800'              	movf	(powf@v+2)^(0+384),w
 10272  002F' 0020               	movlb	0	; select bank0
 10273  0030' 0082'              	movwf	___flmul@b+2
 10274  0031' 0023               	movlb	3	; select bank3
 10275  0032' 0800'              	movf	(powf@v+1)^(0+384),w
 10276  0033' 0020               	movlb	0	; select bank0
 10277  0034' 0081'              	movwf	___flmul@b+1
 10278  0035' 0023               	movlb	3	; select bank3
 10279  0036' 0800'              	movf	powf@v^(0+384),w
 10280  0037' 0020               	movlb	0	; select bank0
 10281  0038' 0080'              	movwf	___flmul@b
 10282  0039' 0022               	movlb	2	; select bank2
 10283  003A' 0800'              	movf	(_powf$1037+3)^(0+256),w
 10284  003B' 0020               	movlb	0	; select bank0
 10285  003C' 0087'              	movwf	___flmul@a+3
 10286  003D' 0022               	movlb	2	; select bank2
 10287  003E' 0800'              	movf	(_powf$1037+2)^(0+256),w
 10288  003F' 0020               	movlb	0	; select bank0
 10289  0040' 0086'              	movwf	___flmul@a+2
 10290  0041' 0022               	movlb	2	; select bank2
 10291  0042' 0800'              	movf	(_powf$1037+1)^(0+256),w
 10292  0043' 0020               	movlb	0	; select bank0
 10293  0044' 0085'              	movwf	___flmul@a+1
 10294  0045' 0022               	movlb	2	; select bank2
 10295  0046' 0800'              	movf	_powf$1037^(0+256),w
 10296  0047' 0020               	movlb	0	; select bank0
 10297  0048' 0084'              	movwf	___flmul@a
 10298  0049' 3180' 2000' 3180'  	fcall	___flmul
 10299  004C' 0803'              	movf	?___flmul+3,w
 10300  004D' 0021               	movlb	1	; select bank1
 10301  004E' 0080'              	movwf	(powf@s_l+3)^(0+128)
 10302  004F' 0020               	movlb	0	; select bank0
 10303  0050' 0802'              	movf	?___flmul+2,w
 10304  0051' 0021               	movlb	1	; select bank1
 10305  0052' 0080'              	movwf	(powf@s_l+2)^(0+128)
 10306  0053' 0020               	movlb	0	; select bank0
 10307  0054' 0801'              	movf	?___flmul+1,w
 10308  0055' 0021               	movlb	1	; select bank1
 10309  0056' 0080'              	movwf	(powf@s_l+1)^(0+128)
 10310  0057' 0020               	movlb	0	; select bank0
 10311  0058' 0800'              	movf	?___flmul,w
 10312  0059' 0021               	movlb	1	; select bank1
 10313  005A' 0080'              	movwf	powf@s_l^(0+128)
 10314  005B' 0022               	movlb	2	; select bank2
 10315  005C' 0800'              	movf	(powf@s+3)^(0+256),w
 10316  005D' 0020               	movlb	0	; select bank0
 10317  005E' 0083'              	movwf	___flmul@b+3
 10318  005F' 0022               	movlb	2	; select bank2
 10319  0060' 0800'              	movf	(powf@s+2)^(0+256),w
 10320  0061' 0020               	movlb	0	; select bank0
 10321  0062' 0082'              	movwf	___flmul@b+2
 10322  0063' 0022               	movlb	2	; select bank2
 10323  0064' 0800'              	movf	(powf@s+1)^(0+256),w
 10324  0065' 0020               	movlb	0	; select bank0
 10325  0066' 0081'              	movwf	___flmul@b+1
 10326  0067' 0022               	movlb	2	; select bank2
 10327  0068' 0800'              	movf	powf@s^(0+256),w
 10328  0069' 0020               	movlb	0	; select bank0
 10329  006A' 0080'              	movwf	___flmul@b
 10330  006B' 0022               	movlb	2	; select bank2
 10331  006C' 0800'              	movf	(powf@s+3)^(0+256),w
 10332  006D' 0020               	movlb	0	; select bank0
 10333  006E' 0087'              	movwf	___flmul@a+3
 10334  006F' 0022               	movlb	2	; select bank2
 10335  0070' 0800'              	movf	(powf@s+2)^(0+256),w
 10336  0071' 0020               	movlb	0	; select bank0
 10337  0072' 0086'              	movwf	___flmul@a+2
 10338  0073' 0022               	movlb	2	; select bank2
 10339  0074' 0800'              	movf	(powf@s+1)^(0+256),w
 10340  0075' 0020               	movlb	0	; select bank0
 10341  0076' 0085'              	movwf	___flmul@a+1
 10342  0077' 0022               	movlb	2	; select bank2
 10343  0078' 0800'              	movf	powf@s^(0+256),w
 10344  0079' 0020               	movlb	0	; select bank0
 10345  007A' 0084'              	movwf	___flmul@a
 10346  007B' 3180' 2000' 3180'  	fcall	___flmul
 10347  007E' 0803'              	movf	?___flmul+3,w
 10348  007F' 0023               	movlb	3	; select bank3
 10349  0080' 0080'              	movwf	(powf@s2+3)^(0+384)
 10350  0081' 0020               	movlb	0	; select bank0
 10351  0082' 0802'              	movf	?___flmul+2,w
 10352  0083' 0023               	movlb	3	; select bank3
 10353  0084' 0080'              	movwf	(powf@s2+2)^(0+384)
 10354  0085' 0020               	movlb	0	; select bank0
 10355  0086' 0801'              	movf	?___flmul+1,w
 10356  0087' 0023               	movlb	3	; select bank3
 10357  0088' 0080'              	movwf	(powf@s2+1)^(0+384)
 10358  0089' 0020               	movlb	0	; select bank0
 10359  008A' 0800'              	movf	?___flmul,w
 10360  008B' 0023               	movlb	3	; select bank3
 10361  008C' 0080'              	movwf	powf@s2^(0+384)
 10362  008D' 303E               	movlw	62
 10363  008E' 0020               	movlb	0	; select bank0
 10364  008F' 0098'              	movwf	___fladd@b+3
 10365  0090' 306C               	movlw	108
 10366  0091' 0097'              	movwf	___fladd@b+2
 10367  0092' 3032               	movlw	50
 10368  0093' 0096'              	movwf	___fladd@b+1
 10369  0094' 3055               	movlw	85
 10370  0095' 0095'              	movwf	___fladd@b
 10371  0096' 303E               	movlw	62
 10372  0097' 0083'              	movwf	___flmul@b+3
 10373  0098' 3053               	movlw	83
 10374  0099' 0082'              	movwf	___flmul@b+2
 10375  009A' 30F1               	movlw	241
 10376  009B' 0081'              	movwf	___flmul@b+1
 10377  009C' 3042               	movlw	66
 10378  009D' 0080'              	movwf	___flmul@b
 10379  009E' 0023               	movlb	3	; select bank3
 10380  009F' 0800'              	movf	(powf@s2+3)^(0+384),w
 10381  00A0' 0020               	movlb	0	; select bank0
 10382  00A1' 0087'              	movwf	___flmul@a+3
 10383  00A2' 0023               	movlb	3	; select bank3
 10384  00A3' 0800'              	movf	(powf@s2+2)^(0+384),w
 10385  00A4' 0020               	movlb	0	; select bank0
 10386  00A5' 0086'              	movwf	___flmul@a+2
 10387  00A6' 0023               	movlb	3	; select bank3
 10388  00A7' 0800'              	movf	(powf@s2+1)^(0+384),w
 10389  00A8' 0020               	movlb	0	; select bank0
 10390  00A9' 0085'              	movwf	___flmul@a+1
 10391  00AA' 0023               	movlb	3	; select bank3
 10392  00AB' 0800'              	movf	powf@s2^(0+384),w
 10393  00AC' 0020               	movlb	0	; select bank0
 10394  00AD' 0084'              	movwf	___flmul@a
 10395  00AE' 3180' 2000'        	fcall	___flmul
 10396  00B0' 0803'              	movf	?___flmul+3,w
 10397  00B1' 3180' 2800'        	ljmp	L29
 10398                           
 10399                           	psect	text7_split_12
 10400  0000'                    L29:
 10401  0000' 009C'              	movwf	___fladd@a+3
 10402  0001' 0802'              	movf	?___flmul+2,w
 10403  0002' 009B'              	movwf	___fladd@a+2
 10404  0003' 0801'              	movf	?___flmul+1,w
 10405  0004' 009A'              	movwf	___fladd@a+1
 10406  0005' 0800'              	movf	?___flmul,w
 10407  0006' 0099'              	movwf	___fladd@a
 10408  0007' 3180' 2000' 3180'  	fcall	___fladd
 10409  000A' 0818'              	movf	?___fladd+3,w
 10410  000B' 0022               	movlb	2	; select bank2
 10411  000C' 0080'              	movwf	(_powf$1036+3)^(0+256)
 10412  000D' 0020               	movlb	0	; select bank0
 10413  000E' 0817'              	movf	?___fladd+2,w
 10414  000F' 0022               	movlb	2	; select bank2
 10415  0010' 0080'              	movwf	(_powf$1036+2)^(0+256)
 10416  0011' 0020               	movlb	0	; select bank0
 10417  0012' 0816'              	movf	?___fladd+1,w
 10418  0013' 0022               	movlb	2	; select bank2
 10419  0014' 0080'              	movwf	(_powf$1036+1)^(0+256)
 10420  0015' 0020               	movlb	0	; select bank0
 10421  0016' 0815'              	movf	?___fladd,w
 10422  0017' 0022               	movlb	2	; select bank2
 10423  0018' 0080'              	movwf	_powf$1036^(0+256)
 10424  0019' 303E               	movlw	62
 10425  001A' 0020               	movlb	0	; select bank0
 10426  001B' 0098'              	movwf	___fladd@b+3
 10427  001C' 308B               	movlw	139
 10428  001D' 0097'              	movwf	___fladd@b+2
 10429  001E' 30A3               	movlw	163
 10430  001F' 0096'              	movwf	___fladd@b+1
 10431  0020' 3005               	movlw	5
 10432  0021' 0095'              	movwf	___fladd@b
 10433  0022' 0023               	movlb	3	; select bank3
 10434  0023' 0800'              	movf	(powf@s2+3)^(0+384),w
 10435  0024' 0020               	movlb	0	; select bank0
 10436  0025' 0083'              	movwf	___flmul@b+3
 10437  0026' 0023               	movlb	3	; select bank3
 10438  0027' 0800'              	movf	(powf@s2+2)^(0+384),w
 10439  0028' 0020               	movlb	0	; select bank0
 10440  0029' 0082'              	movwf	___flmul@b+2
 10441  002A' 0023               	movlb	3	; select bank3
 10442  002B' 0800'              	movf	(powf@s2+1)^(0+384),w
 10443  002C' 0020               	movlb	0	; select bank0
 10444  002D' 0081'              	movwf	___flmul@b+1
 10445  002E' 0023               	movlb	3	; select bank3
 10446  002F' 0800'              	movf	powf@s2^(0+384),w
 10447  0030' 0020               	movlb	0	; select bank0
 10448  0031' 0080'              	movwf	___flmul@b
 10449  0032' 0022               	movlb	2	; select bank2
 10450  0033' 0800'              	movf	(_powf$1036+3)^(0+256),w
 10451  0034' 0020               	movlb	0	; select bank0
 10452  0035' 0087'              	movwf	___flmul@a+3
 10453  0036' 0022               	movlb	2	; select bank2
 10454  0037' 0800'              	movf	(_powf$1036+2)^(0+256),w
 10455  0038' 0020               	movlb	0	; select bank0
 10456  0039' 0086'              	movwf	___flmul@a+2
 10457  003A' 0022               	movlb	2	; select bank2
 10458  003B' 0800'              	movf	(_powf$1036+1)^(0+256),w
 10459  003C' 0020               	movlb	0	; select bank0
 10460  003D' 0085'              	movwf	___flmul@a+1
 10461  003E' 0022               	movlb	2	; select bank2
 10462  003F' 0800'              	movf	_powf$1036^(0+256),w
 10463  0040' 0020               	movlb	0	; select bank0
 10464  0041' 0084'              	movwf	___flmul@a
 10465  0042' 3180' 2000' 3180'  	fcall	___flmul
 10466  0045' 0803'              	movf	?___flmul+3,w
 10467  0046' 009C'              	movwf	___fladd@a+3
 10468  0047' 0802'              	movf	?___flmul+2,w
 10469  0048' 009B'              	movwf	___fladd@a+2
 10470  0049' 0801'              	movf	?___flmul+1,w
 10471  004A' 009A'              	movwf	___fladd@a+1
 10472  004B' 0800'              	movf	?___flmul,w
 10473  004C' 0099'              	movwf	___fladd@a
 10474  004D' 3180' 2000' 3180'  	fcall	___fladd
 10475  0050' 0818'              	movf	?___fladd+3,w
 10476  0051' 0022               	movlb	2	; select bank2
 10477  0052' 0080'              	movwf	(_powf$1037+3)^(0+256)
 10478  0053' 0020               	movlb	0	; select bank0
 10479  0054' 0817'              	movf	?___fladd+2,w
 10480  0055' 0022               	movlb	2	; select bank2
 10481  0056' 0080'              	movwf	(_powf$1037+2)^(0+256)
 10482  0057' 0020               	movlb	0	; select bank0
 10483  0058' 0816'              	movf	?___fladd+1,w
 10484  0059' 0022               	movlb	2	; select bank2
 10485  005A' 0080'              	movwf	(_powf$1037+1)^(0+256)
 10486  005B' 0020               	movlb	0	; select bank0
 10487  005C' 0815'              	movf	?___fladd,w
 10488  005D' 0022               	movlb	2	; select bank2
 10489  005E' 0080'              	movwf	_powf$1037^(0+256)
 10490  005F' 303E               	movlw	62
 10491  0060' 0020               	movlb	0	; select bank0
 10492  0061' 0098'              	movwf	___fladd@b+3
 10493  0062' 30AA               	movlw	170
 10494  0063' 0097'              	movwf	___fladd@b+2
 10495  0064' 30AA               	movlw	170
 10496  0065' 0096'              	movwf	___fladd@b+1
 10497  0066' 30AB               	movlw	171
 10498  0067' 0095'              	movwf	___fladd@b
 10499  0068' 0023               	movlb	3	; select bank3
 10500  0069' 0800'              	movf	(powf@s2+3)^(0+384),w
 10501  006A' 0020               	movlb	0	; select bank0
 10502  006B' 0083'              	movwf	___flmul@b+3
 10503  006C' 0023               	movlb	3	; select bank3
 10504  006D' 0800'              	movf	(powf@s2+2)^(0+384),w
 10505  006E' 0020               	movlb	0	; select bank0
 10506  006F' 0082'              	movwf	___flmul@b+2
 10507  0070' 0023               	movlb	3	; select bank3
 10508  0071' 0800'              	movf	(powf@s2+1)^(0+384),w
 10509  0072' 0020               	movlb	0	; select bank0
 10510  0073' 0081'              	movwf	___flmul@b+1
 10511  0074' 0023               	movlb	3	; select bank3
 10512  0075' 0800'              	movf	powf@s2^(0+384),w
 10513  0076' 0020               	movlb	0	; select bank0
 10514  0077' 0080'              	movwf	___flmul@b
 10515  0078' 0022               	movlb	2	; select bank2
 10516  0079' 0800'              	movf	(_powf$1037+3)^(0+256),w
 10517  007A' 0020               	movlb	0	; select bank0
 10518  007B' 0087'              	movwf	___flmul@a+3
 10519  007C' 0022               	movlb	2	; select bank2
 10520  007D' 0800'              	movf	(_powf$1037+2)^(0+256),w
 10521  007E' 0020               	movlb	0	; select bank0
 10522  007F' 0086'              	movwf	___flmul@a+2
 10523  0080' 0022               	movlb	2	; select bank2
 10524  0081' 0800'              	movf	(_powf$1037+1)^(0+256),w
 10525  0082' 0020               	movlb	0	; select bank0
 10526  0083' 0085'              	movwf	___flmul@a+1
 10527  0084' 0022               	movlb	2	; select bank2
 10528  0085' 0800'              	movf	_powf$1037^(0+256),w
 10529  0086' 0020               	movlb	0	; select bank0
 10530  0087' 0084'              	movwf	___flmul@a
 10531  0088' 3180' 2000'        	fcall	___flmul
 10532  008A' 0803'              	movf	?___flmul+3,w
 10533  008B' 3180' 2800'        	ljmp	L30
 10534                           
 10535                           	psect	text7_split_13
 10536  0000'                    L30:
 10537  0000' 009C'              	movwf	___fladd@a+3
 10538  0001' 0802'              	movf	?___flmul+2,w
 10539  0002' 009B'              	movwf	___fladd@a+2
 10540  0003' 0801'              	movf	?___flmul+1,w
 10541  0004' 009A'              	movwf	___fladd@a+1
 10542  0005' 0800'              	movf	?___flmul,w
 10543  0006' 0099'              	movwf	___fladd@a
 10544  0007' 3180' 2000' 3180'  	fcall	___fladd
 10545  000A' 0818'              	movf	?___fladd+3,w
 10546  000B' 0022               	movlb	2	; select bank2
 10547  000C' 0080'              	movwf	(_powf$1038+3)^(0+256)
 10548  000D' 0020               	movlb	0	; select bank0
 10549  000E' 0817'              	movf	?___fladd+2,w
 10550  000F' 0022               	movlb	2	; select bank2
 10551  0010' 0080'              	movwf	(_powf$1038+2)^(0+256)
 10552  0011' 0020               	movlb	0	; select bank0
 10553  0012' 0816'              	movf	?___fladd+1,w
 10554  0013' 0022               	movlb	2	; select bank2
 10555  0014' 0080'              	movwf	(_powf$1038+1)^(0+256)
 10556  0015' 0020               	movlb	0	; select bank0
 10557  0016' 0815'              	movf	?___fladd,w
 10558  0017' 0022               	movlb	2	; select bank2
 10559  0018' 0080'              	movwf	_powf$1038^(0+256)
 10560  0019' 303E               	movlw	62
 10561  001A' 0020               	movlb	0	; select bank0
 10562  001B' 0098'              	movwf	___fladd@b+3
 10563  001C' 30DB               	movlw	219
 10564  001D' 0097'              	movwf	___fladd@b+2
 10565  001E' 306D               	movlw	109
 10566  001F' 0096'              	movwf	___fladd@b+1
 10567  0020' 30B7               	movlw	183
 10568  0021' 0095'              	movwf	___fladd@b
 10569  0022' 0023               	movlb	3	; select bank3
 10570  0023' 0800'              	movf	(powf@s2+3)^(0+384),w
 10571  0024' 0020               	movlb	0	; select bank0
 10572  0025' 0083'              	movwf	___flmul@b+3
 10573  0026' 0023               	movlb	3	; select bank3
 10574  0027' 0800'              	movf	(powf@s2+2)^(0+384),w
 10575  0028' 0020               	movlb	0	; select bank0
 10576  0029' 0082'              	movwf	___flmul@b+2
 10577  002A' 0023               	movlb	3	; select bank3
 10578  002B' 0800'              	movf	(powf@s2+1)^(0+384),w
 10579  002C' 0020               	movlb	0	; select bank0
 10580  002D' 0081'              	movwf	___flmul@b+1
 10581  002E' 0023               	movlb	3	; select bank3
 10582  002F' 0800'              	movf	powf@s2^(0+384),w
 10583  0030' 0020               	movlb	0	; select bank0
 10584  0031' 0080'              	movwf	___flmul@b
 10585  0032' 0022               	movlb	2	; select bank2
 10586  0033' 0800'              	movf	(_powf$1038+3)^(0+256),w
 10587  0034' 0020               	movlb	0	; select bank0
 10588  0035' 0087'              	movwf	___flmul@a+3
 10589  0036' 0022               	movlb	2	; select bank2
 10590  0037' 0800'              	movf	(_powf$1038+2)^(0+256),w
 10591  0038' 0020               	movlb	0	; select bank0
 10592  0039' 0086'              	movwf	___flmul@a+2
 10593  003A' 0022               	movlb	2	; select bank2
 10594  003B' 0800'              	movf	(_powf$1038+1)^(0+256),w
 10595  003C' 0020               	movlb	0	; select bank0
 10596  003D' 0085'              	movwf	___flmul@a+1
 10597  003E' 0022               	movlb	2	; select bank2
 10598  003F' 0800'              	movf	_powf$1038^(0+256),w
 10599  0040' 0020               	movlb	0	; select bank0
 10600  0041' 0084'              	movwf	___flmul@a
 10601  0042' 3180' 2000' 3180'  	fcall	___flmul
 10602  0045' 0803'              	movf	?___flmul+3,w
 10603  0046' 009C'              	movwf	___fladd@a+3
 10604  0047' 0802'              	movf	?___flmul+2,w
 10605  0048' 009B'              	movwf	___fladd@a+2
 10606  0049' 0801'              	movf	?___flmul+1,w
 10607  004A' 009A'              	movwf	___fladd@a+1
 10608  004B' 0800'              	movf	?___flmul,w
 10609  004C' 0099'              	movwf	___fladd@a
 10610  004D' 3180' 2000' 3180'  	fcall	___fladd
 10611  0050' 0818'              	movf	?___fladd+3,w
 10612  0051' 0022               	movlb	2	; select bank2
 10613  0052' 0080'              	movwf	(_powf$1040+3)^(0+256)
 10614  0053' 0020               	movlb	0	; select bank0
 10615  0054' 0817'              	movf	?___fladd+2,w
 10616  0055' 0022               	movlb	2	; select bank2
 10617  0056' 0080'              	movwf	(_powf$1040+2)^(0+256)
 10618  0057' 0020               	movlb	0	; select bank0
 10619  0058' 0816'              	movf	?___fladd+1,w
 10620  0059' 0022               	movlb	2	; select bank2
 10621  005A' 0080'              	movwf	(_powf$1040+1)^(0+256)
 10622  005B' 0020               	movlb	0	; select bank0
 10623  005C' 0815'              	movf	?___fladd,w
 10624  005D' 0022               	movlb	2	; select bank2
 10625  005E' 0080'              	movwf	_powf$1040^(0+256)
 10626  005F' 0023               	movlb	3	; select bank3
 10627  0060' 0800'              	movf	(powf@s2+3)^(0+384),w
 10628  0061' 0020               	movlb	0	; select bank0
 10629  0062' 0083'              	movwf	___flmul@b+3
 10630  0063' 0023               	movlb	3	; select bank3
 10631  0064' 0800'              	movf	(powf@s2+2)^(0+384),w
 10632  0065' 0020               	movlb	0	; select bank0
 10633  0066' 0082'              	movwf	___flmul@b+2
 10634  0067' 0023               	movlb	3	; select bank3
 10635  0068' 0800'              	movf	(powf@s2+1)^(0+384),w
 10636  0069' 0020               	movlb	0	; select bank0
 10637  006A' 0081'              	movwf	___flmul@b+1
 10638  006B' 0023               	movlb	3	; select bank3
 10639  006C' 0800'              	movf	powf@s2^(0+384),w
 10640  006D' 0020               	movlb	0	; select bank0
 10641  006E' 0080'              	movwf	___flmul@b
 10642  006F' 0023               	movlb	3	; select bank3
 10643  0070' 0800'              	movf	(powf@s2+3)^(0+384),w
 10644  0071' 0020               	movlb	0	; select bank0
 10645  0072' 0087'              	movwf	___flmul@a+3
 10646  0073' 0023               	movlb	3	; select bank3
 10647  0074' 0800'              	movf	(powf@s2+2)^(0+384),w
 10648  0075' 0020               	movlb	0	; select bank0
 10649  0076' 0086'              	movwf	___flmul@a+2
 10650  0077' 0023               	movlb	3	; select bank3
 10651  0078' 0800'              	movf	(powf@s2+1)^(0+384),w
 10652  0079' 0020               	movlb	0	; select bank0
 10653  007A' 0085'              	movwf	___flmul@a+1
 10654  007B' 0023               	movlb	3	; select bank3
 10655  007C' 0800'              	movf	powf@s2^(0+384),w
 10656  007D' 0020               	movlb	0	; select bank0
 10657  007E' 0084'              	movwf	___flmul@a
 10658  007F' 3180' 2000'        	fcall	___flmul
 10659  0081' 0803'              	movf	?___flmul+3,w
 10660  0082' 3180' 2800'        	ljmp	L31
 10661                           
 10662                           	psect	text7_split_14
 10663  0000'                    L31:
 10664  0000' 0021               	movlb	1	; select bank1
 10665  0001' 0080'              	movwf	(_powf$1041+3)^(0+128)
 10666  0002' 0020               	movlb	0	; select bank0
 10667  0003' 0802'              	movf	?___flmul+2,w
 10668  0004' 0021               	movlb	1	; select bank1
 10669  0005' 0080'              	movwf	(_powf$1041+2)^(0+128)
 10670  0006' 0020               	movlb	0	; select bank0
 10671  0007' 0801'              	movf	?___flmul+1,w
 10672  0008' 0021               	movlb	1	; select bank1
 10673  0009' 0080'              	movwf	(_powf$1041+1)^(0+128)
 10674  000A' 0020               	movlb	0	; select bank0
 10675  000B' 0800'              	movf	?___flmul,w
 10676  000C' 0021               	movlb	1	; select bank1
 10677  000D' 0080'              	movwf	_powf$1041^(0+128)
 10678  000E' 303F               	movlw	63
 10679  000F' 0020               	movlb	0	; select bank0
 10680  0010' 0098'              	movwf	___fladd@b+3
 10681  0011' 3019               	movlw	25
 10682  0012' 0097'              	movwf	___fladd@b+2
 10683  0013' 3099               	movlw	153
 10684  0014' 0096'              	movwf	___fladd@b+1
 10685  0015' 309A               	movlw	154
 10686  0016' 0095'              	movwf	___fladd@b
 10687  0017' 0023               	movlb	3	; select bank3
 10688  0018' 0800'              	movf	(powf@s2+3)^(0+384),w
 10689  0019' 0020               	movlb	0	; select bank0
 10690  001A' 0083'              	movwf	___flmul@b+3
 10691  001B' 0023               	movlb	3	; select bank3
 10692  001C' 0800'              	movf	(powf@s2+2)^(0+384),w
 10693  001D' 0020               	movlb	0	; select bank0
 10694  001E' 0082'              	movwf	___flmul@b+2
 10695  001F' 0023               	movlb	3	; select bank3
 10696  0020' 0800'              	movf	(powf@s2+1)^(0+384),w
 10697  0021' 0020               	movlb	0	; select bank0
 10698  0022' 0081'              	movwf	___flmul@b+1
 10699  0023' 0023               	movlb	3	; select bank3
 10700  0024' 0800'              	movf	powf@s2^(0+384),w
 10701  0025' 0020               	movlb	0	; select bank0
 10702  0026' 0080'              	movwf	___flmul@b
 10703  0027' 0022               	movlb	2	; select bank2
 10704  0028' 0800'              	movf	(_powf$1040+3)^(0+256),w
 10705  0029' 0020               	movlb	0	; select bank0
 10706  002A' 0087'              	movwf	___flmul@a+3
 10707  002B' 0022               	movlb	2	; select bank2
 10708  002C' 0800'              	movf	(_powf$1040+2)^(0+256),w
 10709  002D' 0020               	movlb	0	; select bank0
 10710  002E' 0086'              	movwf	___flmul@a+2
 10711  002F' 0022               	movlb	2	; select bank2
 10712  0030' 0800'              	movf	(_powf$1040+1)^(0+256),w
 10713  0031' 0020               	movlb	0	; select bank0
 10714  0032' 0085'              	movwf	___flmul@a+1
 10715  0033' 0022               	movlb	2	; select bank2
 10716  0034' 0800'              	movf	_powf$1040^(0+256),w
 10717  0035' 0020               	movlb	0	; select bank0
 10718  0036' 0084'              	movwf	___flmul@a
 10719  0037' 3180' 2000' 3180'  	fcall	___flmul
 10720  003A' 0803'              	movf	?___flmul+3,w
 10721  003B' 009C'              	movwf	___fladd@a+3
 10722  003C' 0802'              	movf	?___flmul+2,w
 10723  003D' 009B'              	movwf	___fladd@a+2
 10724  003E' 0801'              	movf	?___flmul+1,w
 10725  003F' 009A'              	movwf	___fladd@a+1
 10726  0040' 0800'              	movf	?___flmul,w
 10727  0041' 0099'              	movwf	___fladd@a
 10728  0042' 3180' 2000' 3180'  	fcall	___fladd
 10729  0045' 0818'              	movf	?___fladd+3,w
 10730  0046' 0021               	movlb	1	; select bank1
 10731  0047' 0080'              	movwf	(_powf$1042+3)^(0+128)
 10732  0048' 0020               	movlb	0	; select bank0
 10733  0049' 0817'              	movf	?___fladd+2,w
 10734  004A' 0021               	movlb	1	; select bank1
 10735  004B' 0080'              	movwf	(_powf$1042+2)^(0+128)
 10736  004C' 0020               	movlb	0	; select bank0
 10737  004D' 0816'              	movf	?___fladd+1,w
 10738  004E' 0021               	movlb	1	; select bank1
 10739  004F' 0080'              	movwf	(_powf$1042+1)^(0+128)
 10740  0050' 0020               	movlb	0	; select bank0
 10741  0051' 0815'              	movf	?___fladd,w
 10742  0052' 0021               	movlb	1	; select bank1
 10743  0053' 0080'              	movwf	_powf$1042^(0+128)
 10744  0054' 0800'              	movf	(_powf$1041+3)^(0+128),w
 10745  0055' 0020               	movlb	0	; select bank0
 10746  0056' 0083'              	movwf	___flmul@b+3
 10747  0057' 0021               	movlb	1	; select bank1
 10748  0058' 0800'              	movf	(_powf$1041+2)^(0+128),w
 10749  0059' 0020               	movlb	0	; select bank0
 10750  005A' 0082'              	movwf	___flmul@b+2
 10751  005B' 0021               	movlb	1	; select bank1
 10752  005C' 0800'              	movf	(_powf$1041+1)^(0+128),w
 10753  005D' 0020               	movlb	0	; select bank0
 10754  005E' 0081'              	movwf	___flmul@b+1
 10755  005F' 0021               	movlb	1	; select bank1
 10756  0060' 0800'              	movf	_powf$1041^(0+128),w
 10757  0061' 0020               	movlb	0	; select bank0
 10758  0062' 0080'              	movwf	___flmul@b
 10759  0063' 0021               	movlb	1	; select bank1
 10760  0064' 0800'              	movf	(_powf$1042+3)^(0+128),w
 10761  0065' 0020               	movlb	0	; select bank0
 10762  0066' 0087'              	movwf	___flmul@a+3
 10763  0067' 0021               	movlb	1	; select bank1
 10764  0068' 0800'              	movf	(_powf$1042+2)^(0+128),w
 10765  0069' 0020               	movlb	0	; select bank0
 10766  006A' 0086'              	movwf	___flmul@a+2
 10767  006B' 0021               	movlb	1	; select bank1
 10768  006C' 0800'              	movf	(_powf$1042+1)^(0+128),w
 10769  006D' 0020               	movlb	0	; select bank0
 10770  006E' 0085'              	movwf	___flmul@a+1
 10771  006F' 0021               	movlb	1	; select bank1
 10772  0070' 0800'              	movf	_powf$1042^(0+128),w
 10773  0071' 0020               	movlb	0	; select bank0
 10774  0072' 0084'              	movwf	___flmul@a
 10775  0073' 3180' 2000' 3180'  	fcall	___flmul
 10776  0076' 0803'              	movf	?___flmul+3,w
 10777  0077' 0022               	movlb	2	; select bank2
 10778  0078' 0080'              	movwf	(powf@r+3)^(0+256)
 10779  0079' 0020               	movlb	0	; select bank0
 10780  007A' 0802'              	movf	?___flmul+2,w
 10781  007B' 0022               	movlb	2	; select bank2
 10782  007C' 0080'              	movwf	(powf@r+2)^(0+256)
 10783  007D' 0020               	movlb	0	; select bank0
 10784  007E' 0801'              	movf	?___flmul+1,w
 10785  007F' 0022               	movlb	2	; select bank2
 10786  0080' 0080'              	movwf	(powf@r+1)^(0+256)
 10787  0081' 0020               	movlb	0	; select bank0
 10788  0082' 0800'              	movf	?___flmul,w
 10789  0083' 0022               	movlb	2	; select bank2
 10790  0084' 0080'              	movwf	powf@r^(0+256)
 10791  0085' 0800'              	movf	(powf@s_h+3)^(0+256),w
 10792  0086' 0020               	movlb	0	; select bank0
 10793  0087' 009C'              	movwf	___fladd@a+3
 10794  0088' 0022               	movlb	2	; select bank2
 10795  0089' 0800'              	movf	(powf@s_h+2)^(0+256),w
 10796  008A' 0020               	movlb	0	; select bank0
 10797  008B' 009B'              	movwf	___fladd@a+2
 10798  008C' 0022               	movlb	2	; select bank2
 10799  008D' 0800'              	movf	(powf@s_h+1)^(0+256),w
 10800  008E' 0020               	movlb	0	; select bank0
 10801  008F' 009A'              	movwf	___fladd@a+1
 10802  0090' 0022               	movlb	2	; select bank2
 10803  0091' 0800'              	movf	powf@s_h^(0+256),w
 10804  0092' 0020               	movlb	0	; select bank0
 10805  0093' 0099'              	movwf	___fladd@a
 10806  0094' 0022               	movlb	2	; select bank2
 10807  0095' 0800'              	movf	(powf@s+3)^(0+256),w
 10808  0096' 0020               	movlb	0	; select bank0
 10809  0097' 0098'              	movwf	___fladd@b+3
 10810  0098' 0022               	movlb	2	; select bank2
 10811  0099' 0800'              	movf	(powf@s+2)^(0+256),w
 10812  009A' 0020               	movlb	0	; select bank0
 10813  009B' 0097'              	movwf	___fladd@b+2
 10814  009C' 0022               	movlb	2	; select bank2
 10815  009D' 0800'              	movf	(powf@s+1)^(0+256),w
 10816  009E' 0020               	movlb	0	; select bank0
 10817  009F' 0096'              	movwf	___fladd@b+1
 10818  00A0' 0022               	movlb	2	; select bank2
 10819  00A1' 0800'              	movf	powf@s^(0+256),w
 10820  00A2' 0020               	movlb	0	; select bank0
 10821  00A3' 0095'              	movwf	___fladd@b
 10822  00A4' 3180' 2000'        	fcall	___fladd
 10823  00A6' 0818'              	movf	?___fladd+3,w
 10824  00A7' 3180' 2800'        	ljmp	L32
 10825                           
 10826                           	psect	text7_split_15
 10827  0000'                    L32:
 10828  0000' 0087'              	movwf	___flmul@a+3
 10829  0001' 0817'              	movf	?___fladd+2,w
 10830  0002' 0086'              	movwf	___flmul@a+2
 10831  0003' 0816'              	movf	?___fladd+1,w
 10832  0004' 0085'              	movwf	___flmul@a+1
 10833  0005' 0815'              	movf	?___fladd,w
 10834  0006' 0084'              	movwf	___flmul@a
 10835  0007' 0021               	movlb	1	; select bank1
 10836  0008' 0800'              	movf	(powf@s_l+3)^(0+128),w
 10837  0009' 0020               	movlb	0	; select bank0
 10838  000A' 0083'              	movwf	___flmul@b+3
 10839  000B' 0021               	movlb	1	; select bank1
 10840  000C' 0800'              	movf	(powf@s_l+2)^(0+128),w
 10841  000D' 0020               	movlb	0	; select bank0
 10842  000E' 0082'              	movwf	___flmul@b+2
 10843  000F' 0021               	movlb	1	; select bank1
 10844  0010' 0800'              	movf	(powf@s_l+1)^(0+128),w
 10845  0011' 0020               	movlb	0	; select bank0
 10846  0012' 0081'              	movwf	___flmul@b+1
 10847  0013' 0021               	movlb	1	; select bank1
 10848  0014' 0800'              	movf	powf@s_l^(0+128),w
 10849  0015' 0020               	movlb	0	; select bank0
 10850  0016' 0080'              	movwf	___flmul@b
 10851  0017' 3180' 2000' 3180'  	fcall	___flmul
 10852  001A' 0803'              	movf	?___flmul+3,w
 10853  001B' 0022               	movlb	2	; select bank2
 10854  001C' 0080'              	movwf	(_powf$1043+3)^(0+256)
 10855  001D' 0020               	movlb	0	; select bank0
 10856  001E' 0802'              	movf	?___flmul+2,w
 10857  001F' 0022               	movlb	2	; select bank2
 10858  0020' 0080'              	movwf	(_powf$1043+2)^(0+256)
 10859  0021' 0020               	movlb	0	; select bank0
 10860  0022' 0801'              	movf	?___flmul+1,w
 10861  0023' 0022               	movlb	2	; select bank2
 10862  0024' 0080'              	movwf	(_powf$1043+1)^(0+256)
 10863  0025' 0020               	movlb	0	; select bank0
 10864  0026' 0800'              	movf	?___flmul,w
 10865  0027' 0022               	movlb	2	; select bank2
 10866  0028' 0080'              	movwf	_powf$1043^(0+256)
 10867  0029' 0800'              	movf	(_powf$1043+3)^(0+256),w
 10868  002A' 0020               	movlb	0	; select bank0
 10869  002B' 0098'              	movwf	___fladd@b+3
 10870  002C' 0022               	movlb	2	; select bank2
 10871  002D' 0800'              	movf	(_powf$1043+2)^(0+256),w
 10872  002E' 0020               	movlb	0	; select bank0
 10873  002F' 0097'              	movwf	___fladd@b+2
 10874  0030' 0022               	movlb	2	; select bank2
 10875  0031' 0800'              	movf	(_powf$1043+1)^(0+256),w
 10876  0032' 0020               	movlb	0	; select bank0
 10877  0033' 0096'              	movwf	___fladd@b+1
 10878  0034' 0022               	movlb	2	; select bank2
 10879  0035' 0800'              	movf	_powf$1043^(0+256),w
 10880  0036' 0020               	movlb	0	; select bank0
 10881  0037' 0095'              	movwf	___fladd@b
 10882  0038' 0022               	movlb	2	; select bank2
 10883  0039' 0800'              	movf	(powf@r+3)^(0+256),w
 10884  003A' 0020               	movlb	0	; select bank0
 10885  003B' 009C'              	movwf	___fladd@a+3
 10886  003C' 0022               	movlb	2	; select bank2
 10887  003D' 0800'              	movf	(powf@r+2)^(0+256),w
 10888  003E' 0020               	movlb	0	; select bank0
 10889  003F' 009B'              	movwf	___fladd@a+2
 10890  0040' 0022               	movlb	2	; select bank2
 10891  0041' 0800'              	movf	(powf@r+1)^(0+256),w
 10892  0042' 0020               	movlb	0	; select bank0
 10893  0043' 009A'              	movwf	___fladd@a+1
 10894  0044' 0022               	movlb	2	; select bank2
 10895  0045' 0800'              	movf	powf@r^(0+256),w
 10896  0046' 0020               	movlb	0	; select bank0
 10897  0047' 0099'              	movwf	___fladd@a
 10898  0048' 3180' 2000' 3180'  	fcall	___fladd
 10899  004B' 0818'              	movf	?___fladd+3,w
 10900  004C' 0022               	movlb	2	; select bank2
 10901  004D' 0080'              	movwf	(powf@r+3)^(0+256)
 10902  004E' 0020               	movlb	0	; select bank0
 10903  004F' 0817'              	movf	?___fladd+2,w
 10904  0050' 0022               	movlb	2	; select bank2
 10905  0051' 0080'              	movwf	(powf@r+2)^(0+256)
 10906  0052' 0020               	movlb	0	; select bank0
 10907  0053' 0816'              	movf	?___fladd+1,w
 10908  0054' 0022               	movlb	2	; select bank2
 10909  0055' 0080'              	movwf	(powf@r+1)^(0+256)
 10910  0056' 0020               	movlb	0	; select bank0
 10911  0057' 0815'              	movf	?___fladd,w
 10912  0058' 0022               	movlb	2	; select bank2
 10913  0059' 0080'              	movwf	powf@r^(0+256)
 10914  005A' 0800'              	movf	(powf@s_h+3)^(0+256),w
 10915  005B' 0020               	movlb	0	; select bank0
 10916  005C' 0083'              	movwf	___flmul@b+3
 10917  005D' 0022               	movlb	2	; select bank2
 10918  005E' 0800'              	movf	(powf@s_h+2)^(0+256),w
 10919  005F' 0020               	movlb	0	; select bank0
 10920  0060' 0082'              	movwf	___flmul@b+2
 10921  0061' 0022               	movlb	2	; select bank2
 10922  0062' 0800'              	movf	(powf@s_h+1)^(0+256),w
 10923  0063' 0020               	movlb	0	; select bank0
 10924  0064' 0081'              	movwf	___flmul@b+1
 10925  0065' 0022               	movlb	2	; select bank2
 10926  0066' 0800'              	movf	powf@s_h^(0+256),w
 10927  0067' 0020               	movlb	0	; select bank0
 10928  0068' 0080'              	movwf	___flmul@b
 10929  0069' 0022               	movlb	2	; select bank2
 10930  006A' 0800'              	movf	(powf@s_h+3)^(0+256),w
 10931  006B' 0020               	movlb	0	; select bank0
 10932  006C' 0087'              	movwf	___flmul@a+3
 10933  006D' 0022               	movlb	2	; select bank2
 10934  006E' 0800'              	movf	(powf@s_h+2)^(0+256),w
 10935  006F' 0020               	movlb	0	; select bank0
 10936  0070' 0086'              	movwf	___flmul@a+2
 10937  0071' 0022               	movlb	2	; select bank2
 10938  0072' 0800'              	movf	(powf@s_h+1)^(0+256),w
 10939  0073' 0020               	movlb	0	; select bank0
 10940  0074' 0085'              	movwf	___flmul@a+1
 10941  0075' 0022               	movlb	2	; select bank2
 10942  0076' 0800'              	movf	powf@s_h^(0+256),w
 10943  0077' 0020               	movlb	0	; select bank0
 10944  0078' 0084'              	movwf	___flmul@a
 10945  0079' 3180' 2000' 3180'  	fcall	___flmul
 10946  007C' 0803'              	movf	?___flmul+3,w
 10947  007D' 0023               	movlb	3	; select bank3
 10948  007E' 0080'              	movwf	(powf@s2+3)^(0+384)
 10949  007F' 0020               	movlb	0	; select bank0
 10950  0080' 0802'              	movf	?___flmul+2,w
 10951  0081' 0023               	movlb	3	; select bank3
 10952  0082' 0080'              	movwf	(powf@s2+2)^(0+384)
 10953  0083' 0020               	movlb	0	; select bank0
 10954  0084' 0801'              	movf	?___flmul+1,w
 10955  0085' 0023               	movlb	3	; select bank3
 10956  0086' 0080'              	movwf	(powf@s2+1)^(0+384)
 10957  0087' 0020               	movlb	0	; select bank0
 10958  0088' 0800'              	movf	?___flmul,w
 10959  0089' 0023               	movlb	3	; select bank3
 10960  008A' 0080'              	movwf	powf@s2^(0+384)
 10961  008B' 3040               	movlw	64
 10962  008C' 0020               	movlb	0	; select bank0
 10963  008D' 0098'              	movwf	___fladd@b+3
 10964  008E' 3040               	movlw	64
 10965  008F' 0097'              	movwf	___fladd@b+2
 10966  0090' 3000               	movlw	0
 10967  0091' 0096'              	movwf	___fladd@b+1
 10968  0092' 3000               	movlw	0
 10969  0093' 0095'              	movwf	___fladd@b
 10970  0094' 0023               	movlb	3	; select bank3
 10971  0095' 0800'              	movf	(powf@s2+3)^(0+384),w
 10972  0096' 0020               	movlb	0	; select bank0
 10973  0097' 009C'              	movwf	___fladd@a+3
 10974  0098' 0023               	movlb	3	; select bank3
 10975  0099' 0800'              	movf	(powf@s2+2)^(0+384),w
 10976  009A' 0020               	movlb	0	; select bank0
 10977  009B' 009B'              	movwf	___fladd@a+2
 10978  009C' 0023               	movlb	3	; select bank3
 10979  009D' 0800'              	movf	(powf@s2+1)^(0+384),w
 10980  009E' 0020               	movlb	0	; select bank0
 10981  009F' 009A'              	movwf	___fladd@a+1
 10982  00A0' 0023               	movlb	3	; select bank3
 10983  00A1' 0800'              	movf	powf@s2^(0+384),w
 10984  00A2' 0020               	movlb	0	; select bank0
 10985  00A3' 0099'              	movwf	___fladd@a
 10986  00A4' 3180' 2000' 3180'  	fcall	___fladd
 10987  00A7' 0818'              	movf	?___fladd+3,w
 10988  00A8' 0022               	movlb	2	; select bank2
 10989  00A9' 0080'              	movwf	(_powf$1043+3)^(0+256)
 10990  00AA' 0020               	movlb	0	; select bank0
 10991  00AB' 0817'              	movf	?___fladd+2,w
 10992  00AC' 0022               	movlb	2	; select bank2
 10993  00AD' 0080'              	movwf	(_powf$1043+2)^(0+256)
 10994  00AE' 0020               	movlb	0	; select bank0
 10995  00AF' 0816'              	movf	?___fladd+1,w
 10996  00B0' 0022               	movlb	2	; select bank2
 10997  00B1' 0080'              	movwf	(_powf$1043+1)^(0+256)
 10998  00B2' 0020               	movlb	0	; select bank0
 10999  00B3' 0815'              	movf	?___fladd,w
 11000  00B4' 0022               	movlb	2	; select bank2
 11001  00B5' 0080'              	movwf	_powf$1043^(0+256)
 11002  00B6' 0800'              	movf	(powf@r+3)^(0+256),w
 11003  00B7' 0020               	movlb	0	; select bank0
 11004  00B8' 0098'              	movwf	___fladd@b+3
 11005  00B9' 0022               	movlb	2	; select bank2
 11006  00BA' 0800'              	movf	(powf@r+2)^(0+256),w
 11007  00BB' 0020               	movlb	0	; select bank0
 11008  00BC' 0097'              	movwf	___fladd@b+2
 11009  00BD' 0022               	movlb	2	; select bank2
 11010  00BE' 0800'              	movf	(powf@r+1)^(0+256),w
 11011  00BF' 0020               	movlb	0	; select bank0
 11012  00C0' 0096'              	movwf	___fladd@b+1
 11013  00C1' 0022               	movlb	2	; select bank2
 11014  00C2' 0800'              	movf	powf@r^(0+256),w
 11015  00C3' 0020               	movlb	0	; select bank0
 11016  00C4' 0095'              	movwf	___fladd@b
 11017  00C5' 0022               	movlb	2	; select bank2
 11018  00C6' 0800'              	movf	(_powf$1043+3)^(0+256),w
 11019  00C7' 0020               	movlb	0	; select bank0
 11020  00C8' 009C'              	movwf	___fladd@a+3
 11021  00C9' 0022               	movlb	2	; select bank2
 11022  00CA' 0800'              	movf	(_powf$1043+2)^(0+256),w
 11023  00CB' 0020               	movlb	0	; select bank0
 11024  00CC' 009B'              	movwf	___fladd@a+2
 11025  00CD' 0022               	movlb	2	; select bank2
 11026  00CE' 0800'              	movf	(_powf$1043+1)^(0+256),w
 11027  00CF' 0020               	movlb	0	; select bank0
 11028  00D0' 009A'              	movwf	___fladd@a+1
 11029  00D1' 0022               	movlb	2	; select bank2
 11030  00D2' 0800'              	movf	_powf$1043^(0+256),w
 11031  00D3' 0020               	movlb	0	; select bank0
 11032  00D4' 0099'              	movwf	___fladd@a
 11033  00D5' 3180' 2000' 3180'  	fcall	___fladd
 11034  00D8' 0818'              	movf	?___fladd+3,w
 11035  00D9' 0022               	movlb	2	; select bank2
 11036  00DA' 0080'              	movwf	(powf@t_h+3)^(0+256)
 11037  00DB' 0020               	movlb	0	; select bank0
 11038  00DC' 0817'              	movf	?___fladd+2,w
 11039  00DD' 0022               	movlb	2	; select bank2
 11040  00DE' 0080'              	movwf	(powf@t_h+2)^(0+256)
 11041  00DF' 0020               	movlb	0	; select bank0
 11042  00E0' 0816'              	movf	?___fladd+1,w
 11043  00E1' 0022               	movlb	2	; select bank2
 11044  00E2' 0080'              	movwf	(powf@t_h+1)^(0+256)
 11045  00E3' 0020               	movlb	0	; select bank0
 11046  00E4' 0815'              	movf	?___fladd,w
 11047  00E5' 0022               	movlb	2	; select bank2
 11048  00E6' 0080'              	movwf	powf@t_h^(0+256)
 11049  00E7' 0800'              	movf	(powf@t_h+3)^(0+256),w
 11050  00E8' 0023               	movlb	3	; select bank3
 11051  00E9' 0080'              	movwf	(powf@is+3)^(0+384)
 11052  00EA' 0022               	movlb	2	; select bank2
 11053  00EB' 0800'              	movf	(powf@t_h+2)^(0+256),w
 11054  00EC' 0023               	movlb	3	; select bank3
 11055  00ED' 0080'              	movwf	(powf@is+2)^(0+384)
 11056  00EE' 0022               	movlb	2	; select bank2
 11057  00EF' 0800'              	movf	(powf@t_h+1)^(0+256),w
 11058  00F0' 0023               	movlb	3	; select bank3
 11059  00F1' 0080'              	movwf	(powf@is+1)^(0+384)
 11060  00F2' 0022               	movlb	2	; select bank2
 11061  00F3' 0800'              	movf	powf@t_h^(0+256),w
 11062  00F4' 0023               	movlb	3	; select bank3
 11063  00F5' 0080'              	movwf	powf@is^(0+384)
 11064  00F6' 3000               	movlw	0
 11065  00F7' 0500'              	andwf	powf@is^(0+384),w
 11066  00F8' 0022               	movlb	2	; select bank2
 11067  00F9' 0080'              	movwf	powf@t_h^(0+256)
 11068  00FA' 30F0               	movlw	240
 11069  00FB' 0023               	movlb	3	; select bank3
 11070  00FC' 0500'              	andwf	(powf@is+1)^(0+384),w
 11071  00FD' 0022               	movlb	2	; select bank2
 11072  00FE' 0080'              	movwf	(powf@t_h+1)^(0+256)
 11073  00FF' 30FF               	movlw	255
 11074  0100' 0023               	movlb	3	; select bank3
 11075  0101' 0500'              	andwf	(powf@is+2)^(0+384),w
 11076  0102' 0022               	movlb	2	; select bank2
 11077  0103' 0080'              	movwf	(powf@t_h+2)^(0+256)
 11078  0104' 30FF               	movlw	255
 11079  0105' 0023               	movlb	3	; select bank3
 11080  0106' 0500'              	andwf	(powf@is+3)^(0+384),w
 11081  0107' 0022               	movlb	2	; select bank2
 11082  0108' 0080'              	movwf	(powf@t_h+3)^(0+256)
 11083  0109' 30C0               	movlw	192
 11084  010A' 0020               	movlb	0	; select bank0
 11085  010B' 0098'              	movwf	___fladd@b+3
 11086  010C' 3040               	movlw	64
 11087  010D' 0097'              	movwf	___fladd@b+2
 11088  010E' 3000               	movlw	0
 11089  010F' 0096'              	movwf	___fladd@b+1
 11090  0110' 3000               	movlw	0
 11091  0111' 0095'              	movwf	___fladd@b
 11092  0112' 0022               	movlb	2	; select bank2
 11093  0113' 0800'              	movf	(powf@t_h+3)^(0+256),w
 11094  0114' 0020               	movlb	0	; select bank0
 11095  0115' 009C'              	movwf	___fladd@a+3
 11096  0116' 0022               	movlb	2	; select bank2
 11097  0117' 0800'              	movf	(powf@t_h+2)^(0+256),w
 11098  0118' 0020               	movlb	0	; select bank0
 11099  0119' 009B'              	movwf	___fladd@a+2
 11100  011A' 0022               	movlb	2	; select bank2
 11101  011B' 0800'              	movf	(powf@t_h+1)^(0+256),w
 11102  011C' 0020               	movlb	0	; select bank0
 11103  011D' 009A'              	movwf	___fladd@a+1
 11104  011E' 0022               	movlb	2	; select bank2
 11105  011F' 0800'              	movf	powf@t_h^(0+256),w
 11106  0120' 0020               	movlb	0	; select bank0
 11107  0121' 0099'              	movwf	___fladd@a
 11108  0122' 3180' 2000' 3180'  	fcall	___fladd
 11109  0125' 0818'              	movf	?___fladd+3,w
 11110  0126' 0022               	movlb	2	; select bank2
 11111  0127' 0080'              	movwf	(_powf$1044+3)^(0+256)
 11112  0128' 0020               	movlb	0	; select bank0
 11113  0129' 0817'              	movf	?___fladd+2,w
 11114  012A' 0022               	movlb	2	; select bank2
 11115  012B' 0080'              	movwf	(_powf$1044+2)^(0+256)
 11116  012C' 0020               	movlb	0	; select bank0
 11117  012D' 0816'              	movf	?___fladd+1,w
 11118  012E' 0022               	movlb	2	; select bank2
 11119  012F' 0080'              	movwf	(_powf$1044+1)^(0+256)
 11120  0130' 0020               	movlb	0	; select bank0
 11121  0131' 0815'              	movf	?___fladd,w
 11122  0132' 0022               	movlb	2	; select bank2
 11123  0133' 0080'              	movwf	_powf$1044^(0+256)
 11124  0134' 0023               	movlb	3	; select bank3
 11125  0135' 0800'              	movf	(powf@s2+3)^(0+384),w
 11126  0136' 0020               	movlb	0	; select bank0
 11127  0137' 00C6'              	movwf	___flsub@a+3
 11128  0138' 0023               	movlb	3	; select bank3
 11129  0139' 0800'              	movf	(powf@s2+2)^(0+384),w
 11130  013A' 0020               	movlb	0	; select bank0
 11131  013B' 00C5'              	movwf	___flsub@a+2
 11132  013C' 0023               	movlb	3	; select bank3
 11133  013D' 0800'              	movf	(powf@s2+1)^(0+384),w
 11134  013E' 0020               	movlb	0	; select bank0
 11135  013F' 00C4'              	movwf	___flsub@a+1
 11136  0140' 0023               	movlb	3	; select bank3
 11137  0141' 0800'              	movf	powf@s2^(0+384),w
 11138  0142' 0020               	movlb	0	; select bank0
 11139  0143' 00C3'              	movwf	___flsub@a
 11140  0144' 0022               	movlb	2	; select bank2
 11141  0145' 0800'              	movf	(_powf$1044+3)^(0+256),w
 11142  0146' 0020               	movlb	0	; select bank0
 11143  0147' 00CA'              	movwf	___flsub@b+3
 11144  0148' 0022               	movlb	2	; select bank2
 11145  0149' 0800'              	movf	(_powf$1044+2)^(0+256),w
 11146  014A' 0020               	movlb	0	; select bank0
 11147  014B' 00C9'              	movwf	___flsub@b+2
 11148  014C' 0022               	movlb	2	; select bank2
 11149  014D' 0800'              	movf	(_powf$1044+1)^(0+256),w
 11150  014E' 0020               	movlb	0	; select bank0
 11151  014F' 00C8'              	movwf	___flsub@b+1
 11152  0150' 0022               	movlb	2	; select bank2
 11153  0151' 0800'              	movf	_powf$1044^(0+256),w
 11154  0152' 0020               	movlb	0	; select bank0
 11155  0153' 00C7'              	movwf	___flsub@b
 11156  0154' 3180' 2000' 3180'  	fcall	___flsub
 11157  0157' 0846'              	movf	?___flsub+3,w
 11158  0158' 0022               	movlb	2	; select bank2
 11159  0159' 0080'              	movwf	(_powf$1045+3)^(0+256)
 11160  015A' 0020               	movlb	0	; select bank0
 11161  015B' 0845'              	movf	?___flsub+2,w
 11162  015C' 0022               	movlb	2	; select bank2
 11163  015D' 0080'              	movwf	(_powf$1045+2)^(0+256)
 11164  015E' 0020               	movlb	0	; select bank0
 11165  015F' 0844'              	movf	?___flsub+1,w
 11166  0160' 0022               	movlb	2	; select bank2
 11167  0161' 0080'              	movwf	(_powf$1045+1)^(0+256)
 11168  0162' 0020               	movlb	0	; select bank0
 11169  0163' 0843'              	movf	?___flsub,w
 11170  0164' 0022               	movlb	2	; select bank2
 11171  0165' 0080'              	movwf	_powf$1045^(0+256)
 11172  0166' 0800'              	movf	(_powf$1045+3)^(0+256),w
 11173  0167' 0020               	movlb	0	; select bank0
 11174  0168' 00C6'              	movwf	___flsub@a+3
 11175  0169' 0022               	movlb	2	; select bank2
 11176  016A' 0800'              	movf	(_powf$1045+2)^(0+256),w
 11177  016B' 0020               	movlb	0	; select bank0
 11178  016C' 00C5'              	movwf	___flsub@a+2
 11179  016D' 0022               	movlb	2	; select bank2
 11180  016E' 0800'              	movf	(_powf$1045+1)^(0+256),w
 11181  016F' 0020               	movlb	0	; select bank0
 11182  0170' 00C4'              	movwf	___flsub@a+1
 11183  0171' 0022               	movlb	2	; select bank2
 11184  0172' 0800'              	movf	_powf$1045^(0+256),w
 11185  0173' 0020               	movlb	0	; select bank0
 11186  0174' 00C3'              	movwf	___flsub@a
 11187  0175' 0022               	movlb	2	; select bank2
 11188  0176' 0800'              	movf	(powf@r+3)^(0+256),w
 11189  0177' 0020               	movlb	0	; select bank0
 11190  0178' 00CA'              	movwf	___flsub@b+3
 11191  0179' 0022               	movlb	2	; select bank2
 11192  017A' 0800'              	movf	(powf@r+2)^(0+256),w
 11193  017B' 0020               	movlb	0	; select bank0
 11194  017C' 00C9'              	movwf	___flsub@b+2
 11195  017D' 0022               	movlb	2	; select bank2
 11196  017E' 0800'              	movf	(powf@r+1)^(0+256),w
 11197  017F' 0020               	movlb	0	; select bank0
 11198  0180' 00C8'              	movwf	___flsub@b+1
 11199  0181' 0022               	movlb	2	; select bank2
 11200  0182' 0800'              	movf	powf@r^(0+256),w
 11201  0183' 0020               	movlb	0	; select bank0
 11202  0184' 00C7'              	movwf	___flsub@b
 11203  0185' 3180' 2000' 3180'  	fcall	___flsub
 11204  0188' 0846'              	movf	?___flsub+3,w
 11205  0189' 0022               	movlb	2	; select bank2
 11206  018A' 0080'              	movwf	(powf@t_l+3)^(0+256)
 11207  018B' 0020               	movlb	0	; select bank0
 11208  018C' 0845'              	movf	?___flsub+2,w
 11209  018D' 0022               	movlb	2	; select bank2
 11210  018E' 0080'              	movwf	(powf@t_l+2)^(0+256)
 11211  018F' 0020               	movlb	0	; select bank0
 11212  0190' 0844'              	movf	?___flsub+1,w
 11213  0191' 0022               	movlb	2	; select bank2
 11214  0192' 0080'              	movwf	(powf@t_l+1)^(0+256)
 11215  0193' 0020               	movlb	0	; select bank0
 11216  0194' 0843'              	movf	?___flsub,w
 11217  0195' 0022               	movlb	2	; select bank2
 11218  0196' 0080'              	movwf	powf@t_l^(0+256)
 11219  0197' 0800'              	movf	(powf@t_h+3)^(0+256),w
 11220  0198' 0020               	movlb	0	; select bank0
 11221  0199' 0083'              	movwf	___flmul@b+3
 11222  019A' 0022               	movlb	2	; select bank2
 11223  019B' 0800'              	movf	(powf@t_h+2)^(0+256),w
 11224  019C' 0020               	movlb	0	; select bank0
 11225  019D' 0082'              	movwf	___flmul@b+2
 11226  019E' 0022               	movlb	2	; select bank2
 11227  019F' 0800'              	movf	(powf@t_h+1)^(0+256),w
 11228  01A0' 0020               	movlb	0	; select bank0
 11229  01A1' 0081'              	movwf	___flmul@b+1
 11230  01A2' 0022               	movlb	2	; select bank2
 11231  01A3' 0800'              	movf	powf@t_h^(0+256),w
 11232  01A4' 0020               	movlb	0	; select bank0
 11233  01A5' 0080'              	movwf	___flmul@b
 11234  01A6' 0022               	movlb	2	; select bank2
 11235  01A7' 0800'              	movf	(powf@s_h+3)^(0+256),w
 11236  01A8' 0020               	movlb	0	; select bank0
 11237  01A9' 0087'              	movwf	___flmul@a+3
 11238  01AA' 0022               	movlb	2	; select bank2
 11239  01AB' 0800'              	movf	(powf@s_h+2)^(0+256),w
 11240  01AC' 0020               	movlb	0	; select bank0
 11241  01AD' 0086'              	movwf	___flmul@a+2
 11242  01AE' 0022               	movlb	2	; select bank2
 11243  01AF' 0800'              	movf	(powf@s_h+1)^(0+256),w
 11244  01B0' 0020               	movlb	0	; select bank0
 11245  01B1' 0085'              	movwf	___flmul@a+1
 11246  01B2' 0022               	movlb	2	; select bank2
 11247  01B3' 0800'              	movf	powf@s_h^(0+256),w
 11248  01B4' 0020               	movlb	0	; select bank0
 11249  01B5' 0084'              	movwf	___flmul@a
 11250  01B6' 3180' 2000' 3180'  	fcall	___flmul
 11251  01B9' 0803'              	movf	?___flmul+3,w
 11252  01BA' 0022               	movlb	2	; select bank2
 11253  01BB' 0080'              	movwf	(powf@u+3)^(0+256)
 11254  01BC' 0020               	movlb	0	; select bank0
 11255  01BD' 0802'              	movf	?___flmul+2,w
 11256  01BE' 0022               	movlb	2	; select bank2
 11257  01BF' 0080'              	movwf	(powf@u+2)^(0+256)
 11258  01C0' 0020               	movlb	0	; select bank0
 11259  01C1' 0801'              	movf	?___flmul+1,w
 11260  01C2' 0022               	movlb	2	; select bank2
 11261  01C3' 0080'              	movwf	(powf@u+1)^(0+256)
 11262  01C4' 0020               	movlb	0	; select bank0
 11263  01C5' 0800'              	movf	?___flmul,w
 11264  01C6' 0022               	movlb	2	; select bank2
 11265  01C7' 0080'              	movwf	powf@u^(0+256)
 11266  01C8' 0800'              	movf	(powf@s+3)^(0+256),w
 11267  01C9' 0020               	movlb	0	; select bank0
 11268  01CA' 0083'              	movwf	___flmul@b+3
 11269  01CB' 0022               	movlb	2	; select bank2
 11270  01CC' 0800'              	movf	(powf@s+2)^(0+256),w
 11271  01CD' 0020               	movlb	0	; select bank0
 11272  01CE' 0082'              	movwf	___flmul@b+2
 11273  01CF' 0022               	movlb	2	; select bank2
 11274  01D0' 0800'              	movf	(powf@s+1)^(0+256),w
 11275  01D1' 0020               	movlb	0	; select bank0
 11276  01D2' 0081'              	movwf	___flmul@b+1
 11277  01D3' 0022               	movlb	2	; select bank2
 11278  01D4' 0800'              	movf	powf@s^(0+256),w
 11279  01D5' 0020               	movlb	0	; select bank0
 11280  01D6' 0080'              	movwf	___flmul@b
 11281  01D7' 0022               	movlb	2	; select bank2
 11282  01D8' 0800'              	movf	(powf@t_l+3)^(0+256),w
 11283  01D9' 0020               	movlb	0	; select bank0
 11284  01DA' 0087'              	movwf	___flmul@a+3
 11285  01DB' 0022               	movlb	2	; select bank2
 11286  01DC' 0800'              	movf	(powf@t_l+2)^(0+256),w
 11287  01DD' 0020               	movlb	0	; select bank0
 11288  01DE' 0086'              	movwf	___flmul@a+2
 11289  01DF' 0022               	movlb	2	; select bank2
 11290  01E0' 0800'              	movf	(powf@t_l+1)^(0+256),w
 11291  01E1' 0020               	movlb	0	; select bank0
 11292  01E2' 0085'              	movwf	___flmul@a+1
 11293  01E3' 0022               	movlb	2	; select bank2
 11294  01E4' 0800'              	movf	powf@t_l^(0+256),w
 11295  01E5' 0020               	movlb	0	; select bank0
 11296  01E6' 0084'              	movwf	___flmul@a
 11297  01E7' 3180' 2000' 3180'  	fcall	___flmul
 11298  01EA' 0803'              	movf	?___flmul+3,w
 11299  01EB' 0098'              	movwf	___fladd@b+3
 11300  01EC' 0802'              	movf	?___flmul+2,w
 11301  01ED' 0097'              	movwf	___fladd@b+2
 11302  01EE' 0801'              	movf	?___flmul+1,w
 11303  01EF' 0096'              	movwf	___fladd@b+1
 11304  01F0' 0800'              	movf	?___flmul,w
 11305  01F1' 0095'              	movwf	___fladd@b
 11306  01F2' 0021               	movlb	1	; select bank1
 11307  01F3' 0800'              	movf	(powf@s_l+3)^(0+128),w
 11308  01F4' 0020               	movlb	0	; select bank0
 11309  01F5' 0083'              	movwf	___flmul@b+3
 11310  01F6' 0021               	movlb	1	; select bank1
 11311  01F7' 0800'              	movf	(powf@s_l+2)^(0+128),w
 11312  01F8' 0020               	movlb	0	; select bank0
 11313  01F9' 0082'              	movwf	___flmul@b+2
 11314  01FA' 0021               	movlb	1	; select bank1
 11315  01FB' 0800'              	movf	(powf@s_l+1)^(0+128),w
 11316  01FC' 0020               	movlb	0	; select bank0
 11317  01FD' 0081'              	movwf	___flmul@b+1
 11318  01FE' 0021               	movlb	1	; select bank1
 11319  01FF' 0800'              	movf	powf@s_l^(0+128),w
 11320  0200' 0020               	movlb	0	; select bank0
 11321  0201' 0080'              	movwf	___flmul@b
 11322  0202' 0022               	movlb	2	; select bank2
 11323  0203' 0800'              	movf	(powf@t_h+3)^(0+256),w
 11324  0204' 0020               	movlb	0	; select bank0
 11325  0205' 0087'              	movwf	___flmul@a+3
 11326  0206' 0022               	movlb	2	; select bank2
 11327  0207' 0800'              	movf	(powf@t_h+2)^(0+256),w
 11328  0208' 0020               	movlb	0	; select bank0
 11329  0209' 0086'              	movwf	___flmul@a+2
 11330  020A' 0022               	movlb	2	; select bank2
 11331  020B' 0800'              	movf	(powf@t_h+1)^(0+256),w
 11332  020C' 0020               	movlb	0	; select bank0
 11333  020D' 0085'              	movwf	___flmul@a+1
 11334  020E' 0022               	movlb	2	; select bank2
 11335  020F' 0800'              	movf	powf@t_h^(0+256),w
 11336  0210' 0020               	movlb	0	; select bank0
 11337  0211' 0084'              	movwf	___flmul@a
 11338  0212' 3180' 2000' 3180'  	fcall	___flmul
 11339  0215' 0803'              	movf	?___flmul+3,w
 11340  0216' 009C'              	movwf	___fladd@a+3
 11341  0217' 0802'              	movf	?___flmul+2,w
 11342  0218' 009B'              	movwf	___fladd@a+2
 11343  0219' 0801'              	movf	?___flmul+1,w
 11344  021A' 009A'              	movwf	___fladd@a+1
 11345  021B' 0800'              	movf	?___flmul,w
 11346  021C' 0099'              	movwf	___fladd@a
 11347  021D' 3180' 2000' 3180'  	fcall	___fladd
 11348  0220' 0818'              	movf	?___fladd+3,w
 11349  0221' 0023               	movlb	3	; select bank3
 11350  0222' 0080'              	movwf	(powf@v+3)^(0+384)
 11351  0223' 0020               	movlb	0	; select bank0
 11352  0224' 0817'              	movf	?___fladd+2,w
 11353  0225' 0023               	movlb	3	; select bank3
 11354  0226' 0080'              	movwf	(powf@v+2)^(0+384)
 11355  0227' 0020               	movlb	0	; select bank0
 11356  0228' 0816'              	movf	?___fladd+1,w
 11357  0229' 0023               	movlb	3	; select bank3
 11358  022A' 0080'              	movwf	(powf@v+1)^(0+384)
 11359  022B' 0020               	movlb	0	; select bank0
 11360  022C' 0815'              	movf	?___fladd,w
 11361  022D' 0023               	movlb	3	; select bank3
 11362  022E' 0080'              	movwf	powf@v^(0+384)
 11363  022F' 0800'              	movf	(powf@v+3)^(0+384),w
 11364  0230' 0020               	movlb	0	; select bank0
 11365  0231' 0098'              	movwf	___fladd@b+3
 11366  0232' 0023               	movlb	3	; select bank3
 11367  0233' 0800'              	movf	(powf@v+2)^(0+384),w
 11368  0234' 0020               	movlb	0	; select bank0
 11369  0235' 0097'              	movwf	___fladd@b+2
 11370  0236' 0023               	movlb	3	; select bank3
 11371  0237' 0800'              	movf	(powf@v+1)^(0+384),w
 11372  0238' 0020               	movlb	0	; select bank0
 11373  0239' 0096'              	movwf	___fladd@b+1
 11374  023A' 0023               	movlb	3	; select bank3
 11375  023B' 0800'              	movf	powf@v^(0+384),w
 11376  023C' 0020               	movlb	0	; select bank0
 11377  023D' 0095'              	movwf	___fladd@b
 11378  023E' 0022               	movlb	2	; select bank2
 11379  023F' 0800'              	movf	(powf@u+3)^(0+256),w
 11380  0240' 0020               	movlb	0	; select bank0
 11381  0241' 009C'              	movwf	___fladd@a+3
 11382  0242' 0022               	movlb	2	; select bank2
 11383  0243' 0800'              	movf	(powf@u+2)^(0+256),w
 11384  0244' 0020               	movlb	0	; select bank0
 11385  0245' 009B'              	movwf	___fladd@a+2
 11386  0246' 0022               	movlb	2	; select bank2
 11387  0247' 0800'              	movf	(powf@u+1)^(0+256),w
 11388  0248' 0020               	movlb	0	; select bank0
 11389  0249' 009A'              	movwf	___fladd@a+1
 11390  024A' 0022               	movlb	2	; select bank2
 11391  024B' 0800'              	movf	powf@u^(0+256),w
 11392  024C' 0020               	movlb	0	; select bank0
 11393  024D' 0099'              	movwf	___fladd@a
 11394  024E' 3180' 2000' 3180'  	fcall	___fladd
 11395  0251' 0818'              	movf	?___fladd+3,w
 11396  0252' 0023               	movlb	3	; select bank3
 11397  0253' 0080'              	movwf	(powf@p_h+3)^(0+384)
 11398  0254' 0020               	movlb	0	; select bank0
 11399  0255' 0817'              	movf	?___fladd+2,w
 11400  0256' 0023               	movlb	3	; select bank3
 11401  0257' 0080'              	movwf	(powf@p_h+2)^(0+384)
 11402  0258' 0020               	movlb	0	; select bank0
 11403  0259' 0816'              	movf	?___fladd+1,w
 11404  025A' 0023               	movlb	3	; select bank3
 11405  025B' 0080'              	movwf	(powf@p_h+1)^(0+384)
 11406  025C' 0020               	movlb	0	; select bank0
 11407  025D' 0815'              	movf	?___fladd,w
 11408  025E' 0023               	movlb	3	; select bank3
 11409  025F' 0080'              	movwf	powf@p_h^(0+384)
 11410  0260' 0800'              	movf	(powf@p_h+3)^(0+384),w
 11411  0261' 0080'              	movwf	(powf@is+3)^(0+384)
 11412  0262' 0800'              	movf	(powf@p_h+2)^(0+384),w
 11413  0263' 0080'              	movwf	(powf@is+2)^(0+384)
 11414  0264' 0800'              	movf	(powf@p_h+1)^(0+384),w
 11415  0265' 0080'              	movwf	(powf@is+1)^(0+384)
 11416  0266' 0800'              	movf	powf@p_h^(0+384),w
 11417  0267' 0080'              	movwf	powf@is^(0+384)
 11418  0268' 3000               	movlw	0
 11419  0269' 0500'              	andwf	powf@is^(0+384),w
 11420  026A' 0080'              	movwf	powf@p_h^(0+384)
 11421  026B' 30F0               	movlw	240
 11422  026C' 0500'              	andwf	(powf@is+1)^(0+384),w
 11423  026D' 0080'              	movwf	(powf@p_h+1)^(0+384)
 11424  026E' 30FF               	movlw	255
 11425  026F' 0500'              	andwf	(powf@is+2)^(0+384),w
 11426  0270' 0080'              	movwf	(powf@p_h+2)^(0+384)
 11427  0271' 30FF               	movlw	255
 11428  0272' 0500'              	andwf	(powf@is+3)^(0+384),w
 11429  0273' 0080'              	movwf	(powf@p_h+3)^(0+384)
 11430  0274' 0022               	movlb	2	; select bank2
 11431  0275' 0800'              	movf	(powf@u+3)^(0+256),w
 11432  0276' 0020               	movlb	0	; select bank0
 11433  0277' 00C6'              	movwf	___flsub@a+3
 11434  0278' 0022               	movlb	2	; select bank2
 11435  0279' 0800'              	movf	(powf@u+2)^(0+256),w
 11436  027A' 0020               	movlb	0	; select bank0
 11437  027B' 00C5'              	movwf	___flsub@a+2
 11438  027C' 0022               	movlb	2	; select bank2
 11439  027D' 0800'              	movf	(powf@u+1)^(0+256),w
 11440  027E' 0020               	movlb	0	; select bank0
 11441  027F' 00C4'              	movwf	___flsub@a+1
 11442  0280' 0022               	movlb	2	; select bank2
 11443  0281' 0800'              	movf	powf@u^(0+256),w
 11444  0282' 0020               	movlb	0	; select bank0
 11445  0283' 00C3'              	movwf	___flsub@a
 11446  0284' 0023               	movlb	3	; select bank3
 11447  0285' 0800'              	movf	(powf@p_h+3)^(0+384),w
 11448  0286' 0020               	movlb	0	; select bank0
 11449  0287' 00CA'              	movwf	___flsub@b+3
 11450  0288' 0023               	movlb	3	; select bank3
 11451  0289' 0800'              	movf	(powf@p_h+2)^(0+384),w
 11452  028A' 0020               	movlb	0	; select bank0
 11453  028B' 00C9'              	movwf	___flsub@b+2
 11454  028C' 0023               	movlb	3	; select bank3
 11455  028D' 0800'              	movf	(powf@p_h+1)^(0+384),w
 11456  028E' 0020               	movlb	0	; select bank0
 11457  028F' 00C8'              	movwf	___flsub@b+1
 11458  0290' 0023               	movlb	3	; select bank3
 11459  0291' 0800'              	movf	powf@p_h^(0+384),w
 11460  0292' 0020               	movlb	0	; select bank0
 11461  0293' 00C7'              	movwf	___flsub@b
 11462  0294' 3180' 2000' 3180'  	fcall	___flsub
 11463  0297' 0846'              	movf	?___flsub+3,w
 11464  0298' 0023               	movlb	3	; select bank3
 11465  0299' 0080'              	movwf	(_powf$1039+3)^(0+384)
 11466  029A' 0020               	movlb	0	; select bank0
 11467  029B' 0845'              	movf	?___flsub+2,w
 11468  029C' 0023               	movlb	3	; select bank3
 11469  029D' 0080'              	movwf	(_powf$1039+2)^(0+384)
 11470  029E' 0020               	movlb	0	; select bank0
 11471  029F' 0844'              	movf	?___flsub+1,w
 11472  02A0' 0023               	movlb	3	; select bank3
 11473  02A1' 0080'              	movwf	(_powf$1039+1)^(0+384)
 11474  02A2' 0020               	movlb	0	; select bank0
 11475  02A3' 0843'              	movf	?___flsub,w
 11476  02A4' 0023               	movlb	3	; select bank3
 11477  02A5' 0080'              	movwf	_powf$1039^(0+384)
 11478  02A6' 0800'              	movf	(_powf$1039+3)^(0+384),w
 11479  02A7' 0020               	movlb	0	; select bank0
 11480  02A8' 00C6'              	movwf	___flsub@a+3
 11481  02A9' 0023               	movlb	3	; select bank3
 11482  02AA' 0800'              	movf	(_powf$1039+2)^(0+384),w
 11483  02AB' 0020               	movlb	0	; select bank0
 11484  02AC' 00C5'              	movwf	___flsub@a+2
 11485  02AD' 0023               	movlb	3	; select bank3
 11486  02AE' 0800'              	movf	(_powf$1039+1)^(0+384),w
 11487  02AF' 0020               	movlb	0	; select bank0
 11488  02B0' 00C4'              	movwf	___flsub@a+1
 11489  02B1' 0023               	movlb	3	; select bank3
 11490  02B2' 0800'              	movf	_powf$1039^(0+384),w
 11491  02B3' 0020               	movlb	0	; select bank0
 11492  02B4' 00C3'              	movwf	___flsub@a
 11493  02B5' 0023               	movlb	3	; select bank3
 11494  02B6' 0800'              	movf	(powf@v+3)^(0+384),w
 11495  02B7' 0020               	movlb	0	; select bank0
 11496  02B8' 00CA'              	movwf	___flsub@b+3
 11497  02B9' 0023               	movlb	3	; select bank3
 11498  02BA' 0800'              	movf	(powf@v+2)^(0+384),w
 11499  02BB' 0020               	movlb	0	; select bank0
 11500  02BC' 00C9'              	movwf	___flsub@b+2
 11501  02BD' 0023               	movlb	3	; select bank3
 11502  02BE' 0800'              	movf	(powf@v+1)^(0+384),w
 11503  02BF' 0020               	movlb	0	; select bank0
 11504  02C0' 00C8'              	movwf	___flsub@b+1
 11505  02C1' 0023               	movlb	3	; select bank3
 11506  02C2' 0800'              	movf	powf@v^(0+384),w
 11507  02C3' 0020               	movlb	0	; select bank0
 11508  02C4' 00C7'              	movwf	___flsub@b
 11509  02C5' 3180' 2000' 3180'  	fcall	___flsub
 11510  02C8' 0846'              	movf	?___flsub+3,w
 11511  02C9' 0022               	movlb	2	; select bank2
 11512  02CA' 0080'              	movwf	(powf@p_l+3)^(0+256)
 11513  02CB' 0020               	movlb	0	; select bank0
 11514  02CC' 0845'              	movf	?___flsub+2,w
 11515  02CD' 0022               	movlb	2	; select bank2
 11516  02CE' 0080'              	movwf	(powf@p_l+2)^(0+256)
 11517  02CF' 0020               	movlb	0	; select bank0
 11518  02D0' 0844'              	movf	?___flsub+1,w
 11519  02D1' 0022               	movlb	2	; select bank2
 11520  02D2' 0080'              	movwf	(powf@p_l+1)^(0+256)
 11521  02D3' 0020               	movlb	0	; select bank0
 11522  02D4' 0843'              	movf	?___flsub,w
 11523  02D5' 0022               	movlb	2	; select bank2
 11524  02D6' 0080'              	movwf	powf@p_l^(0+256)
 11525  02D7' 303F               	movlw	63
 11526  02D8' 0020               	movlb	0	; select bank0
 11527  02D9' 0083'              	movwf	___flmul@b+3
 11528  02DA' 3076               	movlw	118
 11529  02DB' 0082'              	movwf	___flmul@b+2
 11530  02DC' 3040               	movlw	64
 11531  02DD' 0081'              	movwf	___flmul@b+1
 11532  02DE' 3000               	movlw	0
 11533  02DF' 0080'              	movwf	___flmul@b
 11534  02E0' 0023               	movlb	3	; select bank3
 11535  02E1' 0800'              	movf	(powf@p_h+3)^(0+384),w
 11536  02E2' 0020               	movlb	0	; select bank0
 11537  02E3' 0087'              	movwf	___flmul@a+3
 11538  02E4' 0023               	movlb	3	; select bank3
 11539  02E5' 0800'              	movf	(powf@p_h+2)^(0+384),w
 11540  02E6' 0020               	movlb	0	; select bank0
 11541  02E7' 0086'              	movwf	___flmul@a+2
 11542  02E8' 0023               	movlb	3	; select bank3
 11543  02E9' 0800'              	movf	(powf@p_h+1)^(0+384),w
 11544  02EA' 0020               	movlb	0	; select bank0
 11545  02EB' 0085'              	movwf	___flmul@a+1
 11546  02EC' 0023               	movlb	3	; select bank3
 11547  02ED' 0800'              	movf	powf@p_h^(0+384),w
 11548  02EE' 0020               	movlb	0	; select bank0
 11549  02EF' 0084'              	movwf	___flmul@a
 11550  02F0' 3180' 2000' 3180'  	fcall	___flmul
 11551  02F3' 0803'              	movf	?___flmul+3,w
 11552  02F4' 0021               	movlb	1	; select bank1
 11553  02F5' 0080'              	movwf	(powf@z_h+3)^(0+128)
 11554  02F6' 0020               	movlb	0	; select bank0
 11555  02F7' 0802'              	movf	?___flmul+2,w
 11556  02F8' 0021               	movlb	1	; select bank1
 11557  02F9' 0080'              	movwf	(powf@z_h+2)^(0+128)
 11558  02FA' 0020               	movlb	0	; select bank0
 11559  02FB' 0801'              	movf	?___flmul+1,w
 11560  02FC' 0021               	movlb	1	; select bank1
 11561  02FD' 0080'              	movwf	(powf@z_h+1)^(0+128)
 11562  02FE' 0020               	movlb	0	; select bank0
 11563  02FF' 0800'              	movf	?___flmul,w
 11564  0300' 0021               	movlb	1	; select bank1
 11565  0301' 0080'              	movwf	powf@z_h^(0+128)
 11566  0302' 303F               	movlw	63
 11567  0303' 0020               	movlb	0	; select bank0
 11568  0304' 0083'              	movwf	___flmul@b+3
 11569  0305' 3076               	movlw	118
 11570  0306' 0082'              	movwf	___flmul@b+2
 11571  0307' 3038               	movlw	56
 11572  0308' 0081'              	movwf	___flmul@b+1
 11573  0309' 304F               	movlw	79
 11574  030A' 0080'              	movwf	___flmul@b
 11575  030B' 0022               	movlb	2	; select bank2
 11576  030C' 0800'              	movf	(powf@p_l+3)^(0+256),w
 11577  030D' 0020               	movlb	0	; select bank0
 11578  030E' 0087'              	movwf	___flmul@a+3
 11579  030F' 0022               	movlb	2	; select bank2
 11580  0310' 0800'              	movf	(powf@p_l+2)^(0+256),w
 11581  0311' 0020               	movlb	0	; select bank0
 11582  0312' 0086'              	movwf	___flmul@a+2
 11583  0313' 0022               	movlb	2	; select bank2
 11584  0314' 0800'              	movf	(powf@p_l+1)^(0+256),w
 11585  0315' 0020               	movlb	0	; select bank0
 11586  0316' 0085'              	movwf	___flmul@a+1
 11587  0317' 0022               	movlb	2	; select bank2
 11588  0318' 0800'              	movf	powf@p_l^(0+256),w
 11589  0319' 0020               	movlb	0	; select bank0
 11590  031A' 0084'              	movwf	___flmul@a
 11591  031B' 3180' 2000' 3180'  	fcall	___flmul
 11592  031E' 0803'              	movf	?___flmul+3,w
 11593  031F' 0098'              	movwf	___fladd@b+3
 11594  0320' 0802'              	movf	?___flmul+2,w
 11595  0321' 0097'              	movwf	___fladd@b+2
 11596  0322' 0801'              	movf	?___flmul+1,w
 11597  0323' 0096'              	movwf	___fladd@b+1
 11598  0324' 0800'              	movf	?___flmul,w
 11599  0325' 0095'              	movwf	___fladd@b
 11600  0326' 30B8               	movlw	184
 11601  0327' 0083'              	movwf	___flmul@b+3
 11602  0328' 30F6               	movlw	246
 11603  0329' 0082'              	movwf	___flmul@b+2
 11604  032A' 3023               	movlw	35
 11605  032B' 0081'              	movwf	___flmul@b+1
 11606  032C' 30C6               	movlw	198
 11607  032D' 0080'              	movwf	___flmul@b
 11608  032E' 0023               	movlb	3	; select bank3
 11609  032F' 0800'              	movf	(powf@p_h+3)^(0+384),w
 11610  0330' 0020               	movlb	0	; select bank0
 11611  0331' 0087'              	movwf	___flmul@a+3
 11612  0332' 0023               	movlb	3	; select bank3
 11613  0333' 0800'              	movf	(powf@p_h+2)^(0+384),w
 11614  0334' 0020               	movlb	0	; select bank0
 11615  0335' 0086'              	movwf	___flmul@a+2
 11616  0336' 0023               	movlb	3	; select bank3
 11617  0337' 0800'              	movf	(powf@p_h+1)^(0+384),w
 11618  0338' 0020               	movlb	0	; select bank0
 11619  0339' 0085'              	movwf	___flmul@a+1
 11620  033A' 0023               	movlb	3	; select bank3
 11621  033B' 0800'              	movf	powf@p_h^(0+384),w
 11622  033C' 0020               	movlb	0	; select bank0
 11623  033D' 0084'              	movwf	___flmul@a
 11624  033E' 3180' 2000' 3180'  	fcall	___flmul
 11625  0341' 0803'              	movf	?___flmul+3,w
 11626  0342' 009C'              	movwf	___fladd@a+3
 11627  0343' 0802'              	movf	?___flmul+2,w
 11628  0344' 009B'              	movwf	___fladd@a+2
 11629  0345' 0801'              	movf	?___flmul+1,w
 11630  0346' 009A'              	movwf	___fladd@a+1
 11631  0347' 0800'              	movf	?___flmul,w
 11632  0348' 0099'              	movwf	___fladd@a
 11633  0349' 3180' 2000' 3180'  	fcall	___fladd
 11634  034C' 0818'              	movf	?___fladd+3,w
 11635  034D' 0022               	movlb	2	; select bank2
 11636  034E' 0080'              	movwf	(_powf$1043+3)^(0+256)
 11637  034F' 0020               	movlb	0	; select bank0
 11638  0350' 0817'              	movf	?___fladd+2,w
 11639  0351' 0022               	movlb	2	; select bank2
 11640  0352' 0080'              	movwf	(_powf$1043+2)^(0+256)
 11641  0353' 0020               	movlb	0	; select bank0
 11642  0354' 0816'              	movf	?___fladd+1,w
 11643  0355' 0022               	movlb	2	; select bank2
 11644  0356' 0080'              	movwf	(_powf$1043+1)^(0+256)
 11645  0357' 0020               	movlb	0	; select bank0
 11646  0358' 0815'              	movf	?___fladd,w
 11647  0359' 0022               	movlb	2	; select bank2
 11648  035A' 0080'              	movwf	_powf$1043^(0+256)
 11649  035B' 0023               	movlb	3	; select bank3
 11650  035C' 0800'              	movf	(powf@k+1)^(0+384),w
 11651  035D' 0085               	movwf	5
 11652  035E' 0800'              	movf	powf@k^(0+384),w
 11653  035F' 0084               	movwf	4
 11654  0360' 3584               	lslf	4,f
 11655  0361' 0D85               	rlf	5,f
 11656  0362' 3584               	lslf	4,f
 11657  0363' 0D85               	rlf	5,f
 11658  0364' 3000'              	movlw	low _dp_l
 11659  0365' 0784               	addwf	4,f
 11660  0366' 3000'              	movlw	high _dp_l
 11661  0367' 3D05               	addwfc	5,w
 11662  0368' 3880               	iorlw	128
 11663  0369' 0085               	movwf	5
 11664  036A' 3F00               	moviw [0]fsr0
 11665  036B' 0021               	movlb	1	; select bank1
 11666  036C' 0080'              	movwf	??_powf^(0+128)
 11667  036D' 3F01               	moviw [1]fsr0
 11668  036E' 0081'              	movwf	(??_powf^(0+128)+1)
 11669  036F' 3F02               	moviw [2]fsr0
 11670  0370' 0082'              	movwf	(??_powf^(0+128)+2)
 11671  0371' 3F03               	moviw [3]fsr0
 11672  0372' 0083'              	movwf	(??_powf^(0+128)+3)
 11673  0373' 0800'              	movf	(??_powf+3)^(0+128),w
 11674  0374' 0020               	movlb	0	; select bank0
 11675  0375' 0098'              	movwf	___fladd@b+3
 11676  0376' 0021               	movlb	1	; select bank1
 11677  0377' 0800'              	movf	(??_powf+2)^(0+128),w
 11678  0378' 0020               	movlb	0	; select bank0
 11679  0379' 0097'              	movwf	___fladd@b+2
 11680  037A' 0021               	movlb	1	; select bank1
 11681  037B' 0800'              	movf	(??_powf+1)^(0+128),w
 11682  037C' 0020               	movlb	0	; select bank0
 11683  037D' 0096'              	movwf	___fladd@b+1
 11684  037E' 0021               	movlb	1	; select bank1
 11685  037F' 0800'              	movf	??_powf^(0+128),w
 11686  0380' 0020               	movlb	0	; select bank0
 11687  0381' 0095'              	movwf	___fladd@b
 11688  0382' 0022               	movlb	2	; select bank2
 11689  0383' 0800'              	movf	(_powf$1043+3)^(0+256),w
 11690  0384' 0020               	movlb	0	; select bank0
 11691  0385' 009C'              	movwf	___fladd@a+3
 11692  0386' 0022               	movlb	2	; select bank2
 11693  0387' 0800'              	movf	(_powf$1043+2)^(0+256),w
 11694  0388' 0020               	movlb	0	; select bank0
 11695  0389' 009B'              	movwf	___fladd@a+2
 11696  038A' 0022               	movlb	2	; select bank2
 11697  038B' 0800'              	movf	(_powf$1043+1)^(0+256),w
 11698  038C' 0020               	movlb	0	; select bank0
 11699  038D' 009A'              	movwf	___fladd@a+1
 11700  038E' 0022               	movlb	2	; select bank2
 11701  038F' 0800'              	movf	_powf$1043^(0+256),w
 11702  0390' 0020               	movlb	0	; select bank0
 11703  0391' 0099'              	movwf	___fladd@a
 11704  0392' 3180' 2000' 3180'  	fcall	___fladd
 11705  0395' 0818'              	movf	?___fladd+3,w
 11706  0396' 0021               	movlb	1	; select bank1
 11707  0397' 0080'              	movwf	(powf@z_l+3)^(0+128)
 11708  0398' 0020               	movlb	0	; select bank0
 11709  0399' 0817'              	movf	?___fladd+2,w
 11710  039A' 0021               	movlb	1	; select bank1
 11711  039B' 0080'              	movwf	(powf@z_l+2)^(0+128)
 11712  039C' 0020               	movlb	0	; select bank0
 11713  039D' 0816'              	movf	?___fladd+1,w
 11714  039E' 0021               	movlb	1	; select bank1
 11715  039F' 0080'              	movwf	(powf@z_l+1)^(0+128)
 11716  03A0' 0020               	movlb	0	; select bank0
 11717  03A1' 0815'              	movf	?___fladd,w
 11718  03A2' 0021               	movlb	1	; select bank1
 11719  03A3' 0080'              	movwf	powf@z_l^(0+128)
 11720  03A4' 0022               	movlb	2	; select bank2
 11721  03A5' 0800'              	movf	(powf@n+3)^(0+256),w
 11722  03A6' 0083'              	movwf	___xxtofl@val+3
 11723  03A7' 0800'              	movf	(powf@n+2)^(0+256),w
 11724  03A8' 0082'              	movwf	___xxtofl@val+2
 11725  03A9' 0800'              	movf	(powf@n+1)^(0+256),w
 11726  03AA' 0081'              	movwf	___xxtofl@val+1
 11727  03AB' 0800'              	movf	powf@n^(0+256),w
 11728  03AC' 0080'              	movwf	___xxtofl@val
 11729  03AD' 3001               	movlw	1
 11730  03AE' 3180' 2000' 3180'  	fcall	___xxtofl
 11731  03B1' 0803'              	movf	?___xxtofl+3,w
 11732  03B2' 0023               	movlb	3	; select bank3
 11733  03B3' 0080'              	movwf	(powf@t+3)^(0+384)
 11734  03B4' 0802'              	movf	?___xxtofl+2,w
 11735  03B5' 0080'              	movwf	(powf@t+2)^(0+384)
 11736  03B6' 0801'              	movf	?___xxtofl+1,w
 11737  03B7' 0080'              	movwf	(powf@t+1)^(0+384)
 11738  03B8' 0800'              	movf	?___xxtofl,w
 11739  03B9' 0080'              	movwf	powf@t^(0+384)
 11740  03BA' 0021               	movlb	1	; select bank1
 11741  03BB' 0800'              	movf	(powf@z_l+3)^(0+128),w
 11742  03BC' 0020               	movlb	0	; select bank0
 11743  03BD' 0098'              	movwf	___fladd@b+3
 11744  03BE' 0021               	movlb	1	; select bank1
 11745  03BF' 0800'              	movf	(powf@z_l+2)^(0+128),w
 11746  03C0' 0020               	movlb	0	; select bank0
 11747  03C1' 0097'              	movwf	___fladd@b+2
 11748  03C2' 0021               	movlb	1	; select bank1
 11749  03C3' 0800'              	movf	(powf@z_l+1)^(0+128),w
 11750  03C4' 0020               	movlb	0	; select bank0
 11751  03C5' 0096'              	movwf	___fladd@b+1
 11752  03C6' 0021               	movlb	1	; select bank1
 11753  03C7' 0800'              	movf	powf@z_l^(0+128),w
 11754  03C8' 0020               	movlb	0	; select bank0
 11755  03C9' 0095'              	movwf	___fladd@b
 11756  03CA' 0021               	movlb	1	; select bank1
 11757  03CB' 0800'              	movf	(powf@z_h+3)^(0+128),w
 11758  03CC' 0020               	movlb	0	; select bank0
 11759  03CD' 009C'              	movwf	___fladd@a+3
 11760  03CE' 0021               	movlb	1	; select bank1
 11761  03CF' 0800'              	movf	(powf@z_h+2)^(0+128),w
 11762  03D0' 0020               	movlb	0	; select bank0
 11763  03D1' 009B'              	movwf	___fladd@a+2
 11764  03D2' 0021               	movlb	1	; select bank1
 11765  03D3' 0800'              	movf	(powf@z_h+1)^(0+128),w
 11766  03D4' 0020               	movlb	0	; select bank0
 11767  03D5' 009A'              	movwf	___fladd@a+1
 11768  03D6' 0021               	movlb	1	; select bank1
 11769  03D7' 0800'              	movf	powf@z_h^(0+128),w
 11770  03D8' 0020               	movlb	0	; select bank0
 11771  03D9' 0099'              	movwf	___fladd@a
 11772  03DA' 3180' 2000' 3180'  	fcall	___fladd
 11773  03DD' 0818'              	movf	?___fladd+3,w
 11774  03DE' 0022               	movlb	2	; select bank2
 11775  03DF' 0080'              	movwf	(_powf$1043+3)^(0+256)
 11776  03E0' 0020               	movlb	0	; select bank0
 11777  03E1' 0817'              	movf	?___fladd+2,w
 11778  03E2' 0022               	movlb	2	; select bank2
 11779  03E3' 0080'              	movwf	(_powf$1043+2)^(0+256)
 11780  03E4' 0020               	movlb	0	; select bank0
 11781  03E5' 0816'              	movf	?___fladd+1,w
 11782  03E6' 0022               	movlb	2	; select bank2
 11783  03E7' 0080'              	movwf	(_powf$1043+1)^(0+256)
 11784  03E8' 0020               	movlb	0	; select bank0
 11785  03E9' 0815'              	movf	?___fladd,w
 11786  03EA' 0022               	movlb	2	; select bank2
 11787  03EB' 0080'              	movwf	_powf$1043^(0+256)
 11788  03EC' 0023               	movlb	3	; select bank3
 11789  03ED' 0800'              	movf	(powf@k+1)^(0+384),w
 11790  03EE' 0085               	movwf	5
 11791  03EF' 0800'              	movf	powf@k^(0+384),w
 11792  03F0' 0084               	movwf	4
 11793  03F1' 3584               	lslf	4,f
 11794  03F2' 0D85               	rlf	5,f
 11795  03F3' 3584               	lslf	4,f
 11796  03F4' 0D85               	rlf	5,f
 11797  03F5' 3000'              	movlw	low _dp_h
 11798  03F6' 0784               	addwf	4,f
 11799  03F7' 3000'              	movlw	high _dp_h
 11800  03F8' 3D05               	addwfc	5,w
 11801  03F9' 3880               	iorlw	128
 11802  03FA' 0085               	movwf	5
 11803  03FB' 3F00               	moviw [0]fsr0
 11804  03FC' 0021               	movlb	1	; select bank1
 11805  03FD' 0080'              	movwf	??_powf^(0+128)
 11806  03FE' 3F01               	moviw [1]fsr0
 11807  03FF' 0081'              	movwf	(??_powf^(0+128)+1)
 11808  0400' 3F02               	moviw [2]fsr0
 11809  0401' 0082'              	movwf	(??_powf^(0+128)+2)
 11810  0402' 3F03               	moviw [3]fsr0
 11811  0403' 0083'              	movwf	(??_powf^(0+128)+3)
 11812  0404' 0800'              	movf	(??_powf+3)^(0+128),w
 11813  0405' 0020               	movlb	0	; select bank0
 11814  0406' 0098'              	movwf	___fladd@b+3
 11815  0407' 0021               	movlb	1	; select bank1
 11816  0408' 0800'              	movf	(??_powf+2)^(0+128),w
 11817  0409' 0020               	movlb	0	; select bank0
 11818  040A' 0097'              	movwf	___fladd@b+2
 11819  040B' 0021               	movlb	1	; select bank1
 11820  040C' 0800'              	movf	(??_powf+1)^(0+128),w
 11821  040D' 0020               	movlb	0	; select bank0
 11822  040E' 0096'              	movwf	___fladd@b+1
 11823  040F' 0021               	movlb	1	; select bank1
 11824  0410' 0800'              	movf	??_powf^(0+128),w
 11825  0411' 0020               	movlb	0	; select bank0
 11826  0412' 0095'              	movwf	___fladd@b
 11827  0413' 0022               	movlb	2	; select bank2
 11828  0414' 0800'              	movf	(_powf$1043+3)^(0+256),w
 11829  0415' 0020               	movlb	0	; select bank0
 11830  0416' 009C'              	movwf	___fladd@a+3
 11831  0417' 0022               	movlb	2	; select bank2
 11832  0418' 0800'              	movf	(_powf$1043+2)^(0+256),w
 11833  0419' 0020               	movlb	0	; select bank0
 11834  041A' 009B'              	movwf	___fladd@a+2
 11835  041B' 0022               	movlb	2	; select bank2
 11836  041C' 0800'              	movf	(_powf$1043+1)^(0+256),w
 11837  041D' 0020               	movlb	0	; select bank0
 11838  041E' 009A'              	movwf	___fladd@a+1
 11839  041F' 0022               	movlb	2	; select bank2
 11840  0420' 0800'              	movf	_powf$1043^(0+256),w
 11841  0421' 0020               	movlb	0	; select bank0
 11842  0422' 0099'              	movwf	___fladd@a
 11843  0423' 3180' 2000' 3180'  	fcall	___fladd
 11844  0426' 0818'              	movf	?___fladd+3,w
 11845  0427' 0021               	movlb	1	; select bank1
 11846  0428' 0080'              	movwf	(_powf$1046+3)^(0+128)
 11847  0429' 0020               	movlb	0	; select bank0
 11848  042A' 0817'              	movf	?___fladd+2,w
 11849  042B' 0021               	movlb	1	; select bank1
 11850  042C' 0080'              	movwf	(_powf$1046+2)^(0+128)
 11851  042D' 0020               	movlb	0	; select bank0
 11852  042E' 0816'              	movf	?___fladd+1,w
 11853  042F' 0021               	movlb	1	; select bank1
 11854  0430' 0080'              	movwf	(_powf$1046+1)^(0+128)
 11855  0431' 0020               	movlb	0	; select bank0
 11856  0432' 0815'              	movf	?___fladd,w
 11857  0433' 0021               	movlb	1	; select bank1
 11858  0434' 0080'              	movwf	_powf$1046^(0+128)
 11859  0435' 0023               	movlb	3	; select bank3
 11860  0436' 0800'              	movf	(powf@t+3)^(0+384),w
 11861  0437' 0020               	movlb	0	; select bank0
 11862  0438' 0098'              	movwf	___fladd@b+3
 11863  0439' 0023               	movlb	3	; select bank3
 11864  043A' 0800'              	movf	(powf@t+2)^(0+384),w
 11865  043B' 0020               	movlb	0	; select bank0
 11866  043C' 0097'              	movwf	___fladd@b+2
 11867  043D' 0023               	movlb	3	; select bank3
 11868  043E' 0800'              	movf	(powf@t+1)^(0+384),w
 11869  043F' 0020               	movlb	0	; select bank0
 11870  0440' 0096'              	movwf	___fladd@b+1
 11871  0441' 0023               	movlb	3	; select bank3
 11872  0442' 0800'              	movf	powf@t^(0+384),w
 11873  0443' 0020               	movlb	0	; select bank0
 11874  0444' 0095'              	movwf	___fladd@b
 11875  0445' 0021               	movlb	1	; select bank1
 11876  0446' 0800'              	movf	(_powf$1046+3)^(0+128),w
 11877  0447' 0020               	movlb	0	; select bank0
 11878  0448' 009C'              	movwf	___fladd@a+3
 11879  0449' 0021               	movlb	1	; select bank1
 11880  044A' 0800'              	movf	(_powf$1046+2)^(0+128),w
 11881  044B' 0020               	movlb	0	; select bank0
 11882  044C' 009B'              	movwf	___fladd@a+2
 11883  044D' 0021               	movlb	1	; select bank1
 11884  044E' 0800'              	movf	(_powf$1046+1)^(0+128),w
 11885  044F' 0020               	movlb	0	; select bank0
 11886  0450' 009A'              	movwf	___fladd@a+1
 11887  0451' 0021               	movlb	1	; select bank1
 11888  0452' 0800'              	movf	_powf$1046^(0+128),w
 11889  0453' 0020               	movlb	0	; select bank0
 11890  0454' 0099'              	movwf	___fladd@a
 11891  0455' 3180' 2000' 3180'  	fcall	___fladd
 11892  0458' 0818'              	movf	?___fladd+3,w
 11893  0459' 0023               	movlb	3	; select bank3
 11894  045A' 0080'              	movwf	(powf@t1+3)^(0+384)
 11895  045B' 0020               	movlb	0	; select bank0
 11896  045C' 0817'              	movf	?___fladd+2,w
 11897  045D' 0023               	movlb	3	; select bank3
 11898  045E' 0080'              	movwf	(powf@t1+2)^(0+384)
 11899  045F' 0020               	movlb	0	; select bank0
 11900  0460' 0816'              	movf	?___fladd+1,w
 11901  0461' 0023               	movlb	3	; select bank3
 11902  0462' 0080'              	movwf	(powf@t1+1)^(0+384)
 11903  0463' 0020               	movlb	0	; select bank0
 11904  0464' 0815'              	movf	?___fladd,w
 11905  0465' 0023               	movlb	3	; select bank3
 11906  0466' 0080'              	movwf	powf@t1^(0+384)
 11907  0467' 0800'              	movf	(powf@t1+3)^(0+384),w
 11908  0468' 0080'              	movwf	(powf@is+3)^(0+384)
 11909  0469' 0800'              	movf	(powf@t1+2)^(0+384),w
 11910  046A' 0080'              	movwf	(powf@is+2)^(0+384)
 11911  046B' 0800'              	movf	(powf@t1+1)^(0+384),w
 11912  046C' 0080'              	movwf	(powf@is+1)^(0+384)
 11913  046D' 0800'              	movf	powf@t1^(0+384),w
 11914  046E' 0080'              	movwf	powf@is^(0+384)
 11915  046F' 3000               	movlw	0
 11916  0470' 0500'              	andwf	powf@is^(0+384),w
 11917  0471' 0080'              	movwf	powf@t1^(0+384)
 11918  0472' 30F0               	movlw	240
 11919  0473' 0500'              	andwf	(powf@is+1)^(0+384),w
 11920  0474' 0080'              	movwf	(powf@t1+1)^(0+384)
 11921  0475' 30FF               	movlw	255
 11922  0476' 0500'              	andwf	(powf@is+2)^(0+384),w
 11923  0477' 0080'              	movwf	(powf@t1+2)^(0+384)
 11924  0478' 30FF               	movlw	255
 11925  0479' 0500'              	andwf	(powf@is+3)^(0+384),w
 11926  047A' 0080'              	movwf	(powf@t1+3)^(0+384)
 11927  047B' 0800'              	movf	(powf@t+3)^(0+384),w
 11928  047C' 0020               	movlb	0	; select bank0
 11929  047D' 00C6'              	movwf	___flsub@a+3
 11930  047E' 0023               	movlb	3	; select bank3
 11931  047F' 0800'              	movf	(powf@t+2)^(0+384),w
 11932  0480' 0020               	movlb	0	; select bank0
 11933  0481' 00C5'              	movwf	___flsub@a+2
 11934  0482' 0023               	movlb	3	; select bank3
 11935  0483' 0800'              	movf	(powf@t+1)^(0+384),w
 11936  0484' 0020               	movlb	0	; select bank0
 11937  0485' 00C4'              	movwf	___flsub@a+1
 11938  0486' 0023               	movlb	3	; select bank3
 11939  0487' 0800'              	movf	powf@t^(0+384),w
 11940  0488' 0020               	movlb	0	; select bank0
 11941  0489' 00C3'              	movwf	___flsub@a
 11942  048A' 0023               	movlb	3	; select bank3
 11943  048B' 0800'              	movf	(powf@t1+3)^(0+384),w
 11944  048C' 0020               	movlb	0	; select bank0
 11945  048D' 00CA'              	movwf	___flsub@b+3
 11946  048E' 0023               	movlb	3	; select bank3
 11947  048F' 0800'              	movf	(powf@t1+2)^(0+384),w
 11948  0490' 0020               	movlb	0	; select bank0
 11949  0491' 00C9'              	movwf	___flsub@b+2
 11950  0492' 0023               	movlb	3	; select bank3
 11951  0493' 0800'              	movf	(powf@t1+1)^(0+384),w
 11952  0494' 0020               	movlb	0	; select bank0
 11953  0495' 00C8'              	movwf	___flsub@b+1
 11954  0496' 0023               	movlb	3	; select bank3
 11955  0497' 0800'              	movf	powf@t1^(0+384),w
 11956  0498' 0020               	movlb	0	; select bank0
 11957  0499' 00C7'              	movwf	___flsub@b
 11958  049A' 3180' 2000' 3180'  	fcall	___flsub
 11959  049D' 0846'              	movf	?___flsub+3,w
 11960  049E' 0023               	movlb	3	; select bank3
 11961  049F' 0080'              	movwf	(_powf$1039+3)^(0+384)
 11962  04A0' 0020               	movlb	0	; select bank0
 11963  04A1' 0845'              	movf	?___flsub+2,w
 11964  04A2' 0023               	movlb	3	; select bank3
 11965  04A3' 0080'              	movwf	(_powf$1039+2)^(0+384)
 11966  04A4' 0020               	movlb	0	; select bank0
 11967  04A5' 0844'              	movf	?___flsub+1,w
 11968  04A6' 0023               	movlb	3	; select bank3
 11969  04A7' 0080'              	movwf	(_powf$1039+1)^(0+384)
 11970  04A8' 0020               	movlb	0	; select bank0
 11971  04A9' 0843'              	movf	?___flsub,w
 11972  04AA' 0023               	movlb	3	; select bank3
 11973  04AB' 0080'              	movwf	_powf$1039^(0+384)
 11974  04AC' 0800'              	movf	(powf@k+1)^(0+384),w
 11975  04AD' 0085               	movwf	5
 11976  04AE' 0800'              	movf	powf@k^(0+384),w
 11977  04AF' 0084               	movwf	4
 11978  04B0' 3584               	lslf	4,f
 11979  04B1' 0D85               	rlf	5,f
 11980  04B2' 3584               	lslf	4,f
 11981  04B3' 0D85               	rlf	5,f
 11982  04B4' 3000'              	movlw	low _dp_h
 11983  04B5' 0784               	addwf	4,f
 11984  04B6' 3000'              	movlw	high _dp_h
 11985  04B7' 3D05               	addwfc	5,w
 11986  04B8' 3880               	iorlw	128
 11987  04B9' 0085               	movwf	5
 11988  04BA' 3F00               	moviw [0]fsr0
 11989  04BB' 0021               	movlb	1	; select bank1
 11990  04BC' 0080'              	movwf	??_powf^(0+128)
 11991  04BD' 3F01               	moviw [1]fsr0
 11992  04BE' 0081'              	movwf	(??_powf^(0+128)+1)
 11993  04BF' 3F02               	moviw [2]fsr0
 11994  04C0' 0082'              	movwf	(??_powf^(0+128)+2)
 11995  04C1' 3F03               	moviw [3]fsr0
 11996  04C2' 0083'              	movwf	(??_powf^(0+128)+3)
 11997  04C3' 0800'              	movf	(??_powf+3)^(0+128),w
 11998  04C4' 0020               	movlb	0	; select bank0
 11999  04C5' 00C6'              	movwf	___flsub@a+3
 12000  04C6' 0021               	movlb	1	; select bank1
 12001  04C7' 0800'              	movf	(??_powf+2)^(0+128),w
 12002  04C8' 0020               	movlb	0	; select bank0
 12003  04C9' 00C5'              	movwf	___flsub@a+2
 12004  04CA' 0021               	movlb	1	; select bank1
 12005  04CB' 0800'              	movf	(??_powf+1)^(0+128),w
 12006  04CC' 0020               	movlb	0	; select bank0
 12007  04CD' 00C4'              	movwf	___flsub@a+1
 12008  04CE' 0021               	movlb	1	; select bank1
 12009  04CF' 0800'              	movf	??_powf^(0+128),w
 12010  04D0' 0020               	movlb	0	; select bank0
 12011  04D1' 00C3'              	movwf	___flsub@a
 12012  04D2' 0023               	movlb	3	; select bank3
 12013  04D3' 0800'              	movf	(_powf$1039+3)^(0+384),w
 12014  04D4' 0020               	movlb	0	; select bank0
 12015  04D5' 00CA'              	movwf	___flsub@b+3
 12016  04D6' 0023               	movlb	3	; select bank3
 12017  04D7' 0800'              	movf	(_powf$1039+2)^(0+384),w
 12018  04D8' 0020               	movlb	0	; select bank0
 12019  04D9' 00C9'              	movwf	___flsub@b+2
 12020  04DA' 0023               	movlb	3	; select bank3
 12021  04DB' 0800'              	movf	(_powf$1039+1)^(0+384),w
 12022  04DC' 0020               	movlb	0	; select bank0
 12023  04DD' 00C8'              	movwf	___flsub@b+1
 12024  04DE' 0023               	movlb	3	; select bank3
 12025  04DF' 0800'              	movf	_powf$1039^(0+384),w
 12026  04E0' 0020               	movlb	0	; select bank0
 12027  04E1' 00C7'              	movwf	___flsub@b
 12028  04E2' 3180' 2000' 3180'  	fcall	___flsub
 12029  04E5' 0846'              	movf	?___flsub+3,w
 12030  04E6' 0022               	movlb	2	; select bank2
 12031  04E7' 0080'              	movwf	(_powf$1045+3)^(0+256)
 12032  04E8' 0020               	movlb	0	; select bank0
 12033  04E9' 0845'              	movf	?___flsub+2,w
 12034  04EA' 0022               	movlb	2	; select bank2
 12035  04EB' 0080'              	movwf	(_powf$1045+2)^(0+256)
 12036  04EC' 0020               	movlb	0	; select bank0
 12037  04ED' 0844'              	movf	?___flsub+1,w
 12038  04EE' 0022               	movlb	2	; select bank2
 12039  04EF' 0080'              	movwf	(_powf$1045+1)^(0+256)
 12040  04F0' 0020               	movlb	0	; select bank0
 12041  04F1' 0843'              	movf	?___flsub,w
 12042  04F2' 0022               	movlb	2	; select bank2
 12043  04F3' 0080'              	movwf	_powf$1045^(0+256)
 12044  04F4' 0021               	movlb	1	; select bank1
 12045  04F5' 0800'              	movf	(powf@z_h+3)^(0+128),w
 12046  04F6' 0020               	movlb	0	; select bank0
 12047  04F7' 00C6'              	movwf	___flsub@a+3
 12048  04F8' 0021               	movlb	1	; select bank1
 12049  04F9' 0800'              	movf	(powf@z_h+2)^(0+128),w
 12050  04FA' 0020               	movlb	0	; select bank0
 12051  04FB' 00C5'              	movwf	___flsub@a+2
 12052  04FC' 0021               	movlb	1	; select bank1
 12053  04FD' 0800'              	movf	(powf@z_h+1)^(0+128),w
 12054  04FE' 0020               	movlb	0	; select bank0
 12055  04FF' 00C4'              	movwf	___flsub@a+1
 12056  0500' 0021               	movlb	1	; select bank1
 12057  0501' 0800'              	movf	powf@z_h^(0+128),w
 12058  0502' 0020               	movlb	0	; select bank0
 12059  0503' 00C3'              	movwf	___flsub@a
 12060  0504' 0022               	movlb	2	; select bank2
 12061  0505' 0800'              	movf	(_powf$1045+3)^(0+256),w
 12062  0506' 0020               	movlb	0	; select bank0
 12063  0507' 00CA'              	movwf	___flsub@b+3
 12064  0508' 0022               	movlb	2	; select bank2
 12065  0509' 0800'              	movf	(_powf$1045+2)^(0+256),w
 12066  050A' 0020               	movlb	0	; select bank0
 12067  050B' 00C9'              	movwf	___flsub@b+2
 12068  050C' 0022               	movlb	2	; select bank2
 12069  050D' 0800'              	movf	(_powf$1045+1)^(0+256),w
 12070  050E' 0020               	movlb	0	; select bank0
 12071  050F' 00C8'              	movwf	___flsub@b+1
 12072  0510' 0022               	movlb	2	; select bank2
 12073  0511' 0800'              	movf	_powf$1045^(0+256),w
 12074  0512' 0020               	movlb	0	; select bank0
 12075  0513' 00C7'              	movwf	___flsub@b
 12076  0514' 3180' 2000' 3180'  	fcall	___flsub
 12077  0517' 0846'              	movf	?___flsub+3,w
 12078  0518' 0021               	movlb	1	; select bank1
 12079  0519' 0080'              	movwf	(_powf$1047+3)^(0+128)
 12080  051A' 0020               	movlb	0	; select bank0
 12081  051B' 0845'              	movf	?___flsub+2,w
 12082  051C' 0021               	movlb	1	; select bank1
 12083  051D' 0080'              	movwf	(_powf$1047+2)^(0+128)
 12084  051E' 0020               	movlb	0	; select bank0
 12085  051F' 0844'              	movf	?___flsub+1,w
 12086  0520' 0021               	movlb	1	; select bank1
 12087  0521' 0080'              	movwf	(_powf$1047+1)^(0+128)
 12088  0522' 0020               	movlb	0	; select bank0
 12089  0523' 0843'              	movf	?___flsub,w
 12090  0524' 0021               	movlb	1	; select bank1
 12091  0525' 0080'              	movwf	_powf$1047^(0+128)
 12092  0526' 0800'              	movf	(_powf$1047+3)^(0+128),w
 12093  0527' 0020               	movlb	0	; select bank0
 12094  0528' 00C6'              	movwf	___flsub@a+3
 12095  0529' 0021               	movlb	1	; select bank1
 12096  052A' 0800'              	movf	(_powf$1047+2)^(0+128),w
 12097  052B' 0020               	movlb	0	; select bank0
 12098  052C' 00C5'              	movwf	___flsub@a+2
 12099  052D' 0021               	movlb	1	; select bank1
 12100  052E' 0800'              	movf	(_powf$1047+1)^(0+128),w
 12101  052F' 0020               	movlb	0	; select bank0
 12102  0530' 00C4'              	movwf	___flsub@a+1
 12103  0531' 0021               	movlb	1	; select bank1
 12104  0532' 0800'              	movf	_powf$1047^(0+128),w
 12105  0533' 0020               	movlb	0	; select bank0
 12106  0534' 00C3'              	movwf	___flsub@a
 12107  0535' 0021               	movlb	1	; select bank1
 12108  0536' 0800'              	movf	(powf@z_l+3)^(0+128),w
 12109  0537' 0020               	movlb	0	; select bank0
 12110  0538' 00CA'              	movwf	___flsub@b+3
 12111  0539' 0021               	movlb	1	; select bank1
 12112  053A' 0800'              	movf	(powf@z_l+2)^(0+128),w
 12113  053B' 0020               	movlb	0	; select bank0
 12114  053C' 00C9'              	movwf	___flsub@b+2
 12115  053D' 0021               	movlb	1	; select bank1
 12116  053E' 0800'              	movf	(powf@z_l+1)^(0+128),w
 12117  053F' 0020               	movlb	0	; select bank0
 12118  0540' 00C8'              	movwf	___flsub@b+1
 12119  0541' 0021               	movlb	1	; select bank1
 12120  0542' 0800'              	movf	powf@z_l^(0+128),w
 12121  0543'                    L5:
 12122  0543' 0020               	movlb	0	; select bank0
 12123  0544' 00C7'              	movwf	___flsub@b
 12124  0545' 3180' 2000' 3180'  	fcall	___flsub
 12125  0548' 0846'              	movf	?___flsub+3,w
 12126  0549' 0021               	movlb	1	; select bank1
 12127  054A' 0080'              	movwf	(powf@t2+3)^(0+128)
 12128  054B' 0020               	movlb	0	; select bank0
 12129  054C' 0845'              	movf	?___flsub+2,w
 12130  054D' 0021               	movlb	1	; select bank1
 12131  054E' 0080'              	movwf	(powf@t2+2)^(0+128)
 12132  054F' 0020               	movlb	0	; select bank0
 12133  0550' 0844'              	movf	?___flsub+1,w
 12134  0551' 0021               	movlb	1	; select bank1
 12135  0552' 0080'              	movwf	(powf@t2+1)^(0+128)
 12136  0553' 0020               	movlb	0	; select bank0
 12137  0554' 0843'              	movf	?___flsub,w
 12138  0555' 0021               	movlb	1	; select bank1
 12139  0556' 0080'              	movwf	powf@t2^(0+128)
 12140  0557' 0800'              	movf	(powf@y+3)^(0+128),w
 12141  0558' 0023               	movlb	3	; select bank3
 12142  0559' 0080'              	movwf	(powf@is+3)^(0+384)
 12143  055A' 0021               	movlb	1	; select bank1
 12144  055B' 0800'              	movf	(powf@y+2)^(0+128),w
 12145  055C' 0023               	movlb	3	; select bank3
 12146  055D' 0080'              	movwf	(powf@is+2)^(0+384)
 12147  055E' 0021               	movlb	1	; select bank1
 12148  055F' 0800'              	movf	(powf@y+1)^(0+128),w
 12149  0560' 0023               	movlb	3	; select bank3
 12150  0561' 0080'              	movwf	(powf@is+1)^(0+384)
 12151  0562' 0021               	movlb	1	; select bank1
 12152  0563' 0800'              	movf	powf@y^(0+128),w
 12153  0564' 0023               	movlb	3	; select bank3
 12154  0565' 0080'              	movwf	powf@is^(0+384)
 12155  0566' 3000               	movlw	0
 12156  0567' 0500'              	andwf	powf@is^(0+384),w
 12157  0568' 0021               	movlb	1	; select bank1
 12158  0569' 0080'              	movwf	powf@y1^(0+128)
 12159  056A' 30F0               	movlw	240
 12160  056B' 0023               	movlb	3	; select bank3
 12161  056C' 0500'              	andwf	(powf@is+1)^(0+384),w
 12162  056D' 0021               	movlb	1	; select bank1
 12163  056E' 0080'              	movwf	(powf@y1+1)^(0+128)
 12164  056F' 30FF               	movlw	255
 12165  0570' 0023               	movlb	3	; select bank3
 12166  0571' 0500'              	andwf	(powf@is+2)^(0+384),w
 12167  0572' 0021               	movlb	1	; select bank1
 12168  0573' 0080'              	movwf	(powf@y1+2)^(0+128)
 12169  0574' 30FF               	movlw	255
 12170  0575' 0023               	movlb	3	; select bank3
 12171  0576' 0500'              	andwf	(powf@is+3)^(0+384),w
 12172  0577' 0021               	movlb	1	; select bank1
 12173  0578' 0080'              	movwf	(powf@y1+3)^(0+128)
 12174  0579' 0023               	movlb	3	; select bank3
 12175  057A' 0800'              	movf	(powf@t1+3)^(0+384),w
 12176  057B' 0020               	movlb	0	; select bank0
 12177  057C' 0083'              	movwf	___flmul@b+3
 12178  057D' 0023               	movlb	3	; select bank3
 12179  057E' 0800'              	movf	(powf@t1+2)^(0+384),w
 12180  057F' 0020               	movlb	0	; select bank0
 12181  0580' 0082'              	movwf	___flmul@b+2
 12182  0581' 0023               	movlb	3	; select bank3
 12183  0582' 0800'              	movf	(powf@t1+1)^(0+384),w
 12184  0583' 0020               	movlb	0	; select bank0
 12185  0584' 0081'              	movwf	___flmul@b+1
 12186  0585' 0023               	movlb	3	; select bank3
 12187  0586' 0800'              	movf	powf@t1^(0+384),w
 12188  0587' 0020               	movlb	0	; select bank0
 12189  0588' 0080'              	movwf	___flmul@b
 12190  0589' 0021               	movlb	1	; select bank1
 12191  058A' 0800'              	movf	(powf@y1+3)^(0+128),w
 12192  058B' 0020               	movlb	0	; select bank0
 12193  058C' 00C6'              	movwf	___flsub@a+3
 12194  058D' 0021               	movlb	1	; select bank1
 12195  058E' 0800'              	movf	(powf@y1+2)^(0+128),w
 12196  058F' 0020               	movlb	0	; select bank0
 12197  0590' 00C5'              	movwf	___flsub@a+2
 12198  0591' 0021               	movlb	1	; select bank1
 12199  0592' 0800'              	movf	(powf@y1+1)^(0+128),w
 12200  0593' 0020               	movlb	0	; select bank0
 12201  0594' 00C4'              	movwf	___flsub@a+1
 12202  0595' 0021               	movlb	1	; select bank1
 12203  0596' 0800'              	movf	powf@y1^(0+128),w
 12204  0597' 0020               	movlb	0	; select bank0
 12205  0598' 00C3'              	movwf	___flsub@a
 12206  0599' 0021               	movlb	1	; select bank1
 12207  059A' 0800'              	movf	(powf@y+3)^(0+128),w
 12208  059B' 0020               	movlb	0	; select bank0
 12209  059C' 00CA'              	movwf	___flsub@b+3
 12210  059D' 0021               	movlb	1	; select bank1
 12211  059E' 0800'              	movf	(powf@y+2)^(0+128),w
 12212  059F' 0020               	movlb	0	; select bank0
 12213  05A0' 00C9'              	movwf	___flsub@b+2
 12214  05A1' 0021               	movlb	1	; select bank1
 12215  05A2' 0800'              	movf	(powf@y+1)^(0+128),w
 12216  05A3' 0020               	movlb	0	; select bank0
 12217  05A4' 00C8'              	movwf	___flsub@b+1
 12218  05A5' 0021               	movlb	1	; select bank1
 12219  05A6' 0800'              	movf	powf@y^(0+128),w
 12220  05A7' 0020               	movlb	0	; select bank0
 12221  05A8' 00C7'              	movwf	___flsub@b
 12222  05A9' 3180' 2000' 3180'  	fcall	___flsub
 12223  05AC' 0846'              	movf	?___flsub+3,w
 12224  05AD' 0087'              	movwf	___flmul@a+3
 12225  05AE' 0845'              	movf	?___flsub+2,w
 12226  05AF' 0086'              	movwf	___flmul@a+2
 12227  05B0' 0844'              	movf	?___flsub+1,w
 12228  05B1' 0085'              	movwf	___flmul@a+1
 12229  05B2' 0843'              	movf	?___flsub,w
 12230  05B3' 0084'              	movwf	___flmul@a
 12231  05B4' 3180' 2000' 3180'  	fcall	___flmul
 12232  05B7' 0803'              	movf	?___flmul+3,w
 12233  05B8' 0021               	movlb	1	; select bank1
 12234  05B9' 0080'              	movwf	(_powf$1048+3)^(0+128)
 12235  05BA' 0020               	movlb	0	; select bank0
 12236  05BB' 0802'              	movf	?___flmul+2,w
 12237  05BC' 0021               	movlb	1	; select bank1
 12238  05BD' 0080'              	movwf	(_powf$1048+2)^(0+128)
 12239  05BE' 0020               	movlb	0	; select bank0
 12240  05BF' 0801'              	movf	?___flmul+1,w
 12241  05C0' 0021               	movlb	1	; select bank1
 12242  05C1' 0080'              	movwf	(_powf$1048+1)^(0+128)
 12243  05C2' 0020               	movlb	0	; select bank0
 12244  05C3' 0800'              	movf	?___flmul,w
 12245  05C4' 0021               	movlb	1	; select bank1
 12246  05C5' 0080'              	movwf	_powf$1048^(0+128)
 12247  05C6' 0800'              	movf	(powf@t2+3)^(0+128),w
 12248  05C7' 0020               	movlb	0	; select bank0
 12249  05C8' 0083'              	movwf	___flmul@b+3
 12250  05C9' 0021               	movlb	1	; select bank1
 12251  05CA' 0800'              	movf	(powf@t2+2)^(0+128),w
 12252  05CB' 0020               	movlb	0	; select bank0
 12253  05CC' 0082'              	movwf	___flmul@b+2
 12254  05CD' 0021               	movlb	1	; select bank1
 12255  05CE' 0800'              	movf	(powf@t2+1)^(0+128),w
 12256  05CF' 0020               	movlb	0	; select bank0
 12257  05D0' 0081'              	movwf	___flmul@b+1
 12258  05D1' 0021               	movlb	1	; select bank1
 12259  05D2' 0800'              	movf	powf@t2^(0+128),w
 12260  05D3' 0020               	movlb	0	; select bank0
 12261  05D4' 0080'              	movwf	___flmul@b
 12262  05D5' 0021               	movlb	1	; select bank1
 12263  05D6' 0800'              	movf	(powf@y+3)^(0+128),w
 12264  05D7' 0020               	movlb	0	; select bank0
 12265  05D8' 0087'              	movwf	___flmul@a+3
 12266  05D9' 0021               	movlb	1	; select bank1
 12267  05DA' 0800'              	movf	(powf@y+2)^(0+128),w
 12268  05DB' 0020               	movlb	0	; select bank0
 12269  05DC' 0086'              	movwf	___flmul@a+2
 12270  05DD' 0021               	movlb	1	; select bank1
 12271  05DE' 0800'              	movf	(powf@y+1)^(0+128),w
 12272  05DF' 0020               	movlb	0	; select bank0
 12273  05E0' 0085'              	movwf	___flmul@a+1
 12274  05E1' 0021               	movlb	1	; select bank1
 12275  05E2' 0800'              	movf	powf@y^(0+128),w
 12276  05E3' 0020               	movlb	0	; select bank0
 12277  05E4' 0084'              	movwf	___flmul@a
 12278  05E5' 3180' 2000' 3180'  	fcall	___flmul
 12279  05E8' 0803'              	movf	?___flmul+3,w
 12280  05E9' 0098'              	movwf	___fladd@b+3
 12281  05EA' 0802'              	movf	?___flmul+2,w
 12282  05EB' 0097'              	movwf	___fladd@b+2
 12283  05EC' 0801'              	movf	?___flmul+1,w
 12284  05ED' 0096'              	movwf	___fladd@b+1
 12285  05EE' 0800'              	movf	?___flmul,w
 12286  05EF' 0095'              	movwf	___fladd@b
 12287  05F0' 0021               	movlb	1	; select bank1
 12288  05F1' 0800'              	movf	(_powf$1048+3)^(0+128),w
 12289  05F2' 0020               	movlb	0	; select bank0
 12290  05F3' 009C'              	movwf	___fladd@a+3
 12291  05F4' 0021               	movlb	1	; select bank1
 12292  05F5' 0800'              	movf	(_powf$1048+2)^(0+128),w
 12293  05F6' 0020               	movlb	0	; select bank0
 12294  05F7' 009B'              	movwf	___fladd@a+2
 12295  05F8' 0021               	movlb	1	; select bank1
 12296  05F9' 0800'              	movf	(_powf$1048+1)^(0+128),w
 12297  05FA' 0020               	movlb	0	; select bank0
 12298  05FB' 009A'              	movwf	___fladd@a+1
 12299  05FC' 0021               	movlb	1	; select bank1
 12300  05FD' 0800'              	movf	_powf$1048^(0+128),w
 12301  05FE' 0020               	movlb	0	; select bank0
 12302  05FF' 0099'              	movwf	___fladd@a
 12303  0600' 3180' 2000' 3180'  	fcall	___fladd
 12304  0603' 0818'              	movf	?___fladd+3,w
 12305  0604' 0022               	movlb	2	; select bank2
 12306  0605' 0080'              	movwf	(powf@p_l+3)^(0+256)
 12307  0606' 0020               	movlb	0	; select bank0
 12308  0607' 0817'              	movf	?___fladd+2,w
 12309  0608' 0022               	movlb	2	; select bank2
 12310  0609' 0080'              	movwf	(powf@p_l+2)^(0+256)
 12311  060A' 0020               	movlb	0	; select bank0
 12312  060B' 0816'              	movf	?___fladd+1,w
 12313  060C' 0022               	movlb	2	; select bank2
 12314  060D' 0080'              	movwf	(powf@p_l+1)^(0+256)
 12315  060E' 0020               	movlb	0	; select bank0
 12316  060F' 0815'              	movf	?___fladd,w
 12317  0610' 0022               	movlb	2	; select bank2
 12318  0611' 0080'              	movwf	powf@p_l^(0+256)
 12319  0612' 0023               	movlb	3	; select bank3
 12320  0613' 0800'              	movf	(powf@t1+3)^(0+384),w
 12321  0614' 0020               	movlb	0	; select bank0
 12322  0615' 0083'              	movwf	___flmul@b+3
 12323  0616' 0023               	movlb	3	; select bank3
 12324  0617' 0800'              	movf	(powf@t1+2)^(0+384),w
 12325  0618' 0020               	movlb	0	; select bank0
 12326  0619' 0082'              	movwf	___flmul@b+2
 12327  061A' 0023               	movlb	3	; select bank3
 12328  061B' 0800'              	movf	(powf@t1+1)^(0+384),w
 12329  061C' 0020               	movlb	0	; select bank0
 12330  061D' 0081'              	movwf	___flmul@b+1
 12331  061E' 0023               	movlb	3	; select bank3
 12332  061F' 0800'              	movf	powf@t1^(0+384),w
 12333  0620' 0020               	movlb	0	; select bank0
 12334  0621' 0080'              	movwf	___flmul@b
 12335  0622' 0021               	movlb	1	; select bank1
 12336  0623' 0800'              	movf	(powf@y1+3)^(0+128),w
 12337  0624' 0020               	movlb	0	; select bank0
 12338  0625' 0087'              	movwf	___flmul@a+3
 12339  0626' 0021               	movlb	1	; select bank1
 12340  0627' 0800'              	movf	(powf@y1+2)^(0+128),w
 12341  0628' 0020               	movlb	0	; select bank0
 12342  0629' 0086'              	movwf	___flmul@a+2
 12343  062A' 0021               	movlb	1	; select bank1
 12344  062B' 0800'              	movf	(powf@y1+1)^(0+128),w
 12345  062C' 0020               	movlb	0	; select bank0
 12346  062D' 0085'              	movwf	___flmul@a+1
 12347  062E' 0021               	movlb	1	; select bank1
 12348  062F' 0800'              	movf	powf@y1^(0+128),w
 12349  0630' 0020               	movlb	0	; select bank0
 12350  0631' 0084'              	movwf	___flmul@a
 12351  0632' 3180' 2000' 3180'  	fcall	___flmul
 12352  0635' 0803'              	movf	?___flmul+3,w
 12353  0636' 0023               	movlb	3	; select bank3
 12354  0637' 0080'              	movwf	(powf@p_h+3)^(0+384)
 12355  0638' 0020               	movlb	0	; select bank0
 12356  0639' 0802'              	movf	?___flmul+2,w
 12357  063A' 0023               	movlb	3	; select bank3
 12358  063B' 0080'              	movwf	(powf@p_h+2)^(0+384)
 12359  063C' 0020               	movlb	0	; select bank0
 12360  063D' 0801'              	movf	?___flmul+1,w
 12361  063E' 0023               	movlb	3	; select bank3
 12362  063F' 0080'              	movwf	(powf@p_h+1)^(0+384)
 12363  0640' 0020               	movlb	0	; select bank0
 12364  0641' 0800'              	movf	?___flmul,w
 12365  0642' 0023               	movlb	3	; select bank3
 12366  0643' 0080'              	movwf	powf@p_h^(0+384)
 12367  0644' 0022               	movlb	2	; select bank2
 12368  0645' 0800'              	movf	(powf@p_l+3)^(0+256),w
 12369  0646' 0020               	movlb	0	; select bank0
 12370  0647' 0098'              	movwf	___fladd@b+3
 12371  0648' 0022               	movlb	2	; select bank2
 12372  0649' 0800'              	movf	(powf@p_l+2)^(0+256),w
 12373  064A' 0020               	movlb	0	; select bank0
 12374  064B' 0097'              	movwf	___fladd@b+2
 12375  064C' 0022               	movlb	2	; select bank2
 12376  064D' 0800'              	movf	(powf@p_l+1)^(0+256),w
 12377  064E' 0020               	movlb	0	; select bank0
 12378  064F' 0096'              	movwf	___fladd@b+1
 12379  0650' 0022               	movlb	2	; select bank2
 12380  0651' 0800'              	movf	powf@p_l^(0+256),w
 12381  0652' 0020               	movlb	0	; select bank0
 12382  0653' 0095'              	movwf	___fladd@b
 12383  0654' 0023               	movlb	3	; select bank3
 12384  0655' 0800'              	movf	(powf@p_h+3)^(0+384),w
 12385  0656' 0020               	movlb	0	; select bank0
 12386  0657' 009C'              	movwf	___fladd@a+3
 12387  0658' 0023               	movlb	3	; select bank3
 12388  0659' 0800'              	movf	(powf@p_h+2)^(0+384),w
 12389  065A' 0020               	movlb	0	; select bank0
 12390  065B' 009B'              	movwf	___fladd@a+2
 12391  065C' 0023               	movlb	3	; select bank3
 12392  065D' 0800'              	movf	(powf@p_h+1)^(0+384),w
 12393  065E' 0020               	movlb	0	; select bank0
 12394  065F' 009A'              	movwf	___fladd@a+1
 12395  0660' 0023               	movlb	3	; select bank3
 12396  0661' 0800'              	movf	powf@p_h^(0+384),w
 12397  0662' 0020               	movlb	0	; select bank0
 12398  0663' 0099'              	movwf	___fladd@a
 12399  0664' 3180' 2000' 3180'  	fcall	___fladd
 12400  0667' 0818'              	movf	?___fladd+3,w
 12401  0668' 0023               	movlb	3	; select bank3
 12402  0669' 0080'              	movwf	(powf@z+3)^(0+384)
 12403  066A' 0020               	movlb	0	; select bank0
 12404  066B' 0817'              	movf	?___fladd+2,w
 12405  066C' 0023               	movlb	3	; select bank3
 12406  066D' 0080'              	movwf	(powf@z+2)^(0+384)
 12407  066E' 0020               	movlb	0	; select bank0
 12408  066F' 0816'              	movf	?___fladd+1,w
 12409  0670' 0023               	movlb	3	; select bank3
 12410  0671' 0080'              	movwf	(powf@z+1)^(0+384)
 12411  0672' 0020               	movlb	0	; select bank0
 12412  0673' 0815'              	movf	?___fladd,w
 12413  0674' 0023               	movlb	3	; select bank3
 12414  0675' 0080'              	movwf	powf@z^(0+384)
 12415  0676' 0800'              	movf	(powf@z+3)^(0+384),w
 12416  0677' 0080'              	movwf	(powf@j+3)^(0+384)
 12417  0678' 0800'              	movf	(powf@z+2)^(0+384),w
 12418  0679' 0080'              	movwf	(powf@j+2)^(0+384)
 12419  067A' 0800'              	movf	(powf@z+1)^(0+384),w
 12420  067B' 0080'              	movwf	(powf@j+1)^(0+384)
 12421  067C' 0800'              	movf	powf@z^(0+384),w
 12422  067D' 0080'              	movwf	powf@j^(0+384)
 12423  067E' 1B80'              	btfsc	(powf@j+3)^(0+384),7
 12424  067F' 2800'              	goto	i1l3131
 12425  0680' 3001               	movlw	1
 12426  0681' 0200'              	subwf	powf@j^(0+384),w
 12427  0682' 3000               	movlw	0
 12428  0683' 3B00'              	subwfb	(powf@j+1)^(0+384),w
 12429  0684' 3000               	movlw	0
 12430  0685' 3B00'              	subwfb	(powf@j+2)^(0+384),w
 12431  0686' 3043               	movlw	67
 12432  0687' 3B00'              	subwfb	(powf@j+3)^(0+384),w
 12433  0688' 1803               	btfsc	3,0
 12434  0689' 2800'              	goto	L22
 12435  068A'                    i1l3131:
 12436  068A' 3043               	movlw	67
 12437  068B' 0023               	movlb	3	; select bank3
 12438  068C' 0600'              	xorwf	(powf@j+3)^(0+384),w
 12439  068D' 0400'              	iorwf	powf@j^(0+384),w
 12440  068E' 0400'              	iorwf	(powf@j+1)^(0+384),w
 12441  068F' 0400'              	iorwf	(powf@j+2)^(0+384),w
 12442  0690' 1D03               	btfss	3,2
 12443  0691' 2800'              	goto	i1l3139
 12444  0692' 0023               	movlb	3	; select bank3
 12445  0693' 0800'              	movf	(powf@p_h+3)^(0+384),w
 12446  0694' 0020               	movlb	0	; select bank0
 12447  0695' 00C6'              	movwf	___flsub@a+3
 12448  0696' 0023               	movlb	3	; select bank3
 12449  0697' 0800'              	movf	(powf@p_h+2)^(0+384),w
 12450  0698' 0020               	movlb	0	; select bank0
 12451  0699' 00C5'              	movwf	___flsub@a+2
 12452  069A' 0023               	movlb	3	; select bank3
 12453  069B' 0800'              	movf	(powf@p_h+1)^(0+384),w
 12454  069C' 0020               	movlb	0	; select bank0
 12455  069D' 00C4'              	movwf	___flsub@a+1
 12456  069E' 0023               	movlb	3	; select bank3
 12457  069F' 0800'              	movf	powf@p_h^(0+384),w
 12458  06A0' 0020               	movlb	0	; select bank0
 12459  06A1' 00C3'              	movwf	___flsub@a
 12460  06A2' 0023               	movlb	3	; select bank3
 12461  06A3' 0800'              	movf	(powf@z+3)^(0+384),w
 12462  06A4' 0020               	movlb	0	; select bank0
 12463  06A5' 00CA'              	movwf	___flsub@b+3
 12464  06A6' 0023               	movlb	3	; select bank3
 12465  06A7' 0800'              	movf	(powf@z+2)^(0+384),w
 12466  06A8' 0020               	movlb	0	; select bank0
 12467  06A9' 00C9'              	movwf	___flsub@b+2
 12468  06AA' 0023               	movlb	3	; select bank3
 12469  06AB' 0800'              	movf	(powf@z+1)^(0+384),w
 12470  06AC' 0020               	movlb	0	; select bank0
 12471  06AD' 00C8'              	movwf	___flsub@b+1
 12472  06AE' 0023               	movlb	3	; select bank3
 12473  06AF' 0800'              	movf	powf@z^(0+384),w
 12474  06B0' 0020               	movlb	0	; select bank0
 12475  06B1' 00C7'              	movwf	___flsub@b
 12476  06B2' 3180' 2000' 3180'  	fcall	___flsub
 12477  06B5' 0846'              	movf	?___flsub+3,w
 12478  06B6' 0021               	movlb	1	; select bank1
 12479  06B7' 0080'              	movwf	(___flge@ff1+3)^(0+128)
 12480  06B8' 0020               	movlb	0	; select bank0
 12481  06B9' 0845'              	movf	?___flsub+2,w
 12482  06BA' 0021               	movlb	1	; select bank1
 12483  06BB' 0080'              	movwf	(___flge@ff1+2)^(0+128)
 12484  06BC' 0020               	movlb	0	; select bank0
 12485  06BD' 0844'              	movf	?___flsub+1,w
 12486  06BE' 0021               	movlb	1	; select bank1
 12487  06BF' 0080'              	movwf	(___flge@ff1+1)^(0+128)
 12488  06C0' 0020               	movlb	0	; select bank0
 12489  06C1' 0843'              	movf	?___flsub,w
 12490  06C2' 0021               	movlb	1	; select bank1
 12491  06C3' 0080'              	movwf	___flge@ff1^(0+128)
 12492  06C4' 3033               	movlw	51
 12493  06C5' 0020               	movlb	0	; select bank0
 12494  06C6' 0098'              	movwf	___fladd@b+3
 12495  06C7' 3038               	movlw	56
 12496  06C8' 0097'              	movwf	___fladd@b+2
 12497  06C9' 30AA               	movlw	170
 12498  06CA' 0096'              	movwf	___fladd@b+1
 12499  06CB' 303C               	movlw	60
 12500  06CC' 0095'              	movwf	___fladd@b
 12501  06CD' 0022               	movlb	2	; select bank2
 12502  06CE' 0800'              	movf	(powf@p_l+3)^(0+256),w
 12503  06CF' 0020               	movlb	0	; select bank0
 12504  06D0' 009C'              	movwf	___fladd@a+3
 12505  06D1' 0022               	movlb	2	; select bank2
 12506  06D2' 0800'              	movf	(powf@p_l+2)^(0+256),w
 12507  06D3' 0020               	movlb	0	; select bank0
 12508  06D4' 009B'              	movwf	___fladd@a+2
 12509  06D5' 0022               	movlb	2	; select bank2
 12510  06D6' 0800'              	movf	(powf@p_l+1)^(0+256),w
 12511  06D7' 0020               	movlb	0	; select bank0
 12512  06D8' 009A'              	movwf	___fladd@a+1
 12513  06D9' 0022               	movlb	2	; select bank2
 12514  06DA' 0800'              	movf	powf@p_l^(0+256),w
 12515  06DB' 0020               	movlb	0	; select bank0
 12516  06DC' 0099'              	movwf	___fladd@a
 12517  06DD' 3180' 2000' 3180'  	fcall	___fladd
 12518  06E0' 0818'              	movf	?___fladd+3,w
 12519  06E1' 0021               	movlb	1	; select bank1
 12520  06E2' 0080'              	movwf	(___flge@ff2+3)^(0+128)
 12521  06E3' 0020               	movlb	0	; select bank0
 12522  06E4' 0817'              	movf	?___fladd+2,w
 12523  06E5' 0021               	movlb	1	; select bank1
 12524  06E6' 0080'              	movwf	(___flge@ff2+2)^(0+128)
 12525  06E7' 0020               	movlb	0	; select bank0
 12526  06E8' 0816'              	movf	?___fladd+1,w
 12527  06E9' 0021               	movlb	1	; select bank1
 12528  06EA' 0080'              	movwf	(___flge@ff2+1)^(0+128)
 12529  06EB' 0020               	movlb	0	; select bank0
 12530  06EC' 0815'              	movf	?___fladd,w
 12531  06ED' 0021               	movlb	1	; select bank1
 12532  06EE' 0080'              	movwf	___flge@ff2^(0+128)
 12533  06EF' 3180' 2000' 3180'  	fcall	___flge
 12534  06F2' 1C03               	btfss	3,0
 12535  06F3' 2800'              	goto	L22
 12536  06F4'                    L16:
 12537  06F4' 3180' 2800'        	goto	i1l3155
 12538  06F6'                    i1l3139:
 12539  06F6' 30FF               	movlw	255
 12540  06F7' 0023               	movlb	3	; select bank3
 12541  06F8' 0500'              	andwf	powf@j^(0+384),w
 12542  06F9' 0021               	movlb	1	; select bank1
 12543  06FA' 0080'              	movwf	??_powf^(0+128)
 12544  06FB' 30FF               	movlw	255
 12545  06FC' 0023               	movlb	3	; select bank3
 12546  06FD' 0500'              	andwf	(powf@j+1)^(0+384),w
 12547  06FE' 0021               	movlb	1	; select bank1
 12548  06FF' 0081'              	movwf	(??_powf^(0+128)+1)
 12549  0700' 30FF               	movlw	255
 12550  0701' 0023               	movlb	3	; select bank3
 12551  0702' 0500'              	andwf	(powf@j+2)^(0+384),w
 12552  0703' 0021               	movlb	1	; select bank1
 12553  0704' 0082'              	movwf	(??_powf^(0+128)+2)
 12554  0705' 307F               	movlw	127
 12555  0706' 0023               	movlb	3	; select bank3
 12556  0707' 0500'              	andwf	(powf@j+3)^(0+384),w
 12557  0708' 0021               	movlb	1	; select bank1
 12558  0709' 0083'              	movwf	(??_powf^(0+128)+3)
 12559  070A' 1B83'              	btfsc	(??_powf^(0+128)+3),7
 12560  070B' 2800'              	goto	i1l3147
 12561  070C' 3001               	movlw	1
 12562  070D' 0200'              	subwf	??_powf^(0+128),w
 12563  070E' 3000               	movlw	0
 12564  070F' 3B01'              	subwfb	(??_powf^(0+128)+1),w
 12565  0710' 3016               	movlw	22
 12566  0711' 3B02'              	subwfb	(??_powf^(0+128)+2),w
 12567  0712' 3043               	movlw	67
 12568  0713' 3B03'              	subwfb	(??_powf^(0+128)+3),w
 12569  0714' 1C03               	btfss	3,0
 12570  0715' 2800'              	goto	i1l3147
 12571  0716' 3000               	movlw	0
 12572  0717' 0021               	movlb	1	; select bank1
 12573  0718' 0080'              	movwf	(?_powf+3)^(0+128)
 12574  0719' 3000               	movlw	0
 12575  071A' 0080'              	movwf	(?_powf+2)^(0+128)
 12576  071B' 3000               	movlw	0
 12577  071C' 0080'              	movwf	(?_powf+1)^(0+128)
 12578  071D' 3000               	movlw	0
 12579  071E' 0080'              	movwf	?_powf^(0+128)
 12580  071F' 0008               	return
 12581  0720'                    i1l3147:
 12582  0720' 3016               	movlw	22
 12583  0721' 0023               	movlb	3	; select bank3
 12584  0722' 0600'              	xorwf	(powf@j+2)^(0+384),w
 12585  0723' 30C3               	movlw	195
 12586  0724' 1903               	skipnz
 12587  0725' 0600'              	xorwf	(powf@j+3)^(0+384),w
 12588  0726' 0400'              	iorwf	powf@j^(0+384),w
 12589  0727' 0400'              	iorwf	(powf@j+1)^(0+384),w
 12590  0728' 1D03               	btfss	3,2
 12591  0729' 2800'              	goto	L16
 12592  072A' 0023               	movlb	3	; select bank3
 12593  072B' 0800'              	movf	(powf@p_h+3)^(0+384),w
 12594  072C' 0020               	movlb	0	; select bank0
 12595  072D' 00C6'              	movwf	___flsub@a+3
 12596  072E' 0023               	movlb	3	; select bank3
 12597  072F' 0800'              	movf	(powf@p_h+2)^(0+384),w
 12598  0730' 0020               	movlb	0	; select bank0
 12599  0731' 00C5'              	movwf	___flsub@a+2
 12600  0732' 0023               	movlb	3	; select bank3
 12601  0733' 0800'              	movf	(powf@p_h+1)^(0+384),w
 12602  0734' 0020               	movlb	0	; select bank0
 12603  0735' 00C4'              	movwf	___flsub@a+1
 12604  0736' 0023               	movlb	3	; select bank3
 12605  0737' 0800'              	movf	powf@p_h^(0+384),w
 12606  0738' 0020               	movlb	0	; select bank0
 12607  0739' 00C3'              	movwf	___flsub@a
 12608  073A' 0023               	movlb	3	; select bank3
 12609  073B' 0800'              	movf	(powf@z+3)^(0+384),w
 12610  073C' 0020               	movlb	0	; select bank0
 12611  073D' 00CA'              	movwf	___flsub@b+3
 12612  073E' 0023               	movlb	3	; select bank3
 12613  073F' 0800'              	movf	(powf@z+2)^(0+384),w
 12614  0740' 0020               	movlb	0	; select bank0
 12615  0741' 00C9'              	movwf	___flsub@b+2
 12616  0742' 0023               	movlb	3	; select bank3
 12617  0743' 0800'              	movf	(powf@z+1)^(0+384),w
 12618  0744' 0020               	movlb	0	; select bank0
 12619  0745' 00C8'              	movwf	___flsub@b+1
 12620  0746' 0023               	movlb	3	; select bank3
 12621  0747' 0800'              	movf	powf@z^(0+384),w
 12622  0748' 0020               	movlb	0	; select bank0
 12623  0749' 00C7'              	movwf	___flsub@b
 12624  074A' 3180' 2000' 3180'  	fcall	___flsub
 12625  074D' 0846'              	movf	?___flsub+3,w
 12626  074E' 0021               	movlb	1	; select bank1
 12627  074F' 0080'              	movwf	(___flge@ff1+3)^(0+128)
 12628  0750' 0020               	movlb	0	; select bank0
 12629  0751' 0845'              	movf	?___flsub+2,w
 12630  0752' 0021               	movlb	1	; select bank1
 12631  0753' 0080'              	movwf	(___flge@ff1+2)^(0+128)
 12632  0754' 0020               	movlb	0	; select bank0
 12633  0755' 0844'              	movf	?___flsub+1,w
 12634  0756' 0021               	movlb	1	; select bank1
 12635  0757' 0080'              	movwf	(___flge@ff1+1)^(0+128)
 12636  0758' 0020               	movlb	0	; select bank0
 12637  0759' 0843'              	movf	?___flsub,w
 12638  075A' 0021               	movlb	1	; select bank1
 12639  075B' 0080'              	movwf	___flge@ff1^(0+128)
 12640  075C' 0022               	movlb	2	; select bank2
 12641  075D' 0800'              	movf	(powf@p_l+3)^(0+256),w
 12642  075E' 0021               	movlb	1	; select bank1
 12643  075F' 0080'              	movwf	(___flge@ff2+3)^(0+128)
 12644  0760' 0022               	movlb	2	; select bank2
 12645  0761' 0800'              	movf	(powf@p_l+2)^(0+256),w
 12646  0762' 0021               	movlb	1	; select bank1
 12647  0763' 0080'              	movwf	(___flge@ff2+2)^(0+128)
 12648  0764' 0022               	movlb	2	; select bank2
 12649  0765' 0800'              	movf	(powf@p_l+1)^(0+256),w
 12650  0766' 0021               	movlb	1	; select bank1
 12651  0767' 0080'              	movwf	(___flge@ff2+1)^(0+128)
 12652  0768' 0022               	movlb	2	; select bank2
 12653  0769' 0800'              	movf	powf@p_l^(0+256),w
 12654  076A' 0021               	movlb	1	; select bank1
 12655  076B' 0080'              	movwf	___flge@ff2^(0+128)
 12656  076C' 3180' 2000' 3180'  	fcall	___flge
 12657  076F' 1C03               	btfss	3,0
 12658  0770' 2800'              	goto	L16
 12659  0771' 3000               	movlw	0
 12660  0772' 0080'              	movwf	(?_powf+3)^(0+128)
 12661  0773' 3000               	movlw	0
 12662  0774' 0080'              	movwf	(?_powf+2)^(0+128)
 12663  0775' 3000               	movlw	0
 12664  0776' 0080'              	movwf	(?_powf+1)^(0+128)
 12665  0777' 3000               	movlw	0
 12666  0778' 0080'              	movwf	?_powf^(0+128)
 12667  0779' 0008               	return
 12668  077A'                    L22:
 12669  077A'                    L21:
 12670  077A' 3180' 2800'        	ljmp	i1l2955

Data Sizes:
    Strings     0
    Constant    112
    Data        2
    BSS         16
    Persistent  32
    Stack       0

Auto Spaces:
    Space          Size  Autos    Used
    COMMON           14     14      14
    BANK0            80     79      79
    BANK1            80     77      79
    BANK2            80     80      80
    BANK3            80     72      72
    BANK4            80     17      33
    BANK5            80      0       0
    BANK6            80      0       0
    BANK7            80      0       0
    BANK8            32      0       0
    BANK9             0      0       0
    BANK10            0      0       0
    BANK11            0      0       0
    BANK12            0      0       0

Pointer List with Targets:

    None.

Critical Paths under _main in COMMON

    None.

Critical Paths under _isr in COMMON

    _isr->___xxtofl
    _timer_calc->___flmul
    _timer_calc->___xxtofl
    _powf->___flmul
    _powf->___xxtofl
    _scalbnf->___flmul
    ___flmul->__Umul8_16
    ___flsub->___flmul
    ___fladd->___flmul
    ___fldiv->___flmul
    ___fldiv->___xxtofl

Critical Paths under _main in BANK0

    None.

Critical Paths under _isr in BANK0

    _powf->___flge
    _scalbnf->___flmul
    ___flsub->___fldiv
    ___fladd->___flmul
    ___flge->___flsub
    ___fldiv->___fladd

Critical Paths under _main in BANK1

    None.

Critical Paths under _isr in BANK1

    _pow->_powf
    _powf->___flge

Critical Paths under _main in BANK2

    None.

Critical Paths under _isr in BANK2

    _pow->_powf

Critical Paths under _main in BANK3

    None.

Critical Paths under _isr in BANK3

    _isr->_timer_calc
    _timer_calc->_pow
    _pow->_powf

Critical Paths under _main in BANK4

    _pic_init->_init_gpio

Critical Paths under _isr in BANK4

    _isr->_timer_calc

Critical Paths under _main in BANK5

    None.

Critical Paths under _isr in BANK5

    None.

Critical Paths under _main in BANK6

    None.

Critical Paths under _isr in BANK6

    None.

Critical Paths under _main in BANK7

    None.

Critical Paths under _isr in BANK7

    None.

Critical Paths under _main in BANK8

    None.

Critical Paths under _isr in BANK8

    None.

Critical Paths under _main in BANK9

    None.

Critical Paths under _isr in BANK9

    None.

Critical Paths under _main in BANK10

    None.

Critical Paths under _isr in BANK10

    None.

Critical Paths under _main in BANK11

    None.

Critical Paths under _isr in BANK11

    None.

Critical Paths under _main in BANK12

    None.

Critical Paths under _isr in BANK12

    None.

Call Graph Tables:

 ---------------------------------------------------------------------------------
 (Depth) Function   	        Calls       Base Space   Used Autos Params    Refs
 ---------------------------------------------------------------------------------
 (0) _main                                                 0     0      0       0
                           _pic_init
 ---------------------------------------------------------------------------------
 (1) _pic_init                                             0     0      0       0
                          _init_gpio
                           _init_osc
 ---------------------------------------------------------------------------------
 (2) _init_osc                                             0     0      0       0
 ---------------------------------------------------------------------------------
 (2) _init_gpio                                            1     1      0       0
                                             16 BANK4      1     1      0
 ---------------------------------------------------------------------------------
 Estimated maximum stack depth 2
 ---------------------------------------------------------------------------------
 (Depth) Function   	        Calls       Base Space   Used Autos Params    Refs
 ---------------------------------------------------------------------------------
 (3) _isr                                                  4     4      0   72611
                                             68 BANK3      4     4      0
                            ___fltol
                           ___xxtofl
                         _timer_calc
 ---------------------------------------------------------------------------------
 (4) _timer_calc                                          24    24      0   71680
                                             60 BANK3      8     8      0
                                              0 BANK4     16    16      0
                            ___fladd
                            ___fldiv
                            ___flmul
                           ___xxtofl
                                _pow
 ---------------------------------------------------------------------------------
 (5) _pow                                                  8     0      8   51067
                                             52 BANK3      8     0      8
                               _powf
 ---------------------------------------------------------------------------------
 (6) _powf                                               201   193      8   50871
                                              8 BANK1     69    61      8
                                              0 BANK2     80    80      0
                                              0 BANK3     52    52      0
                            ___fladd
                            ___fldiv
                             ___flge
                            ___flmul
                            ___flneg
                            ___flsub
                           ___xxtofl
                            _scalbnf
                              _sqrtf
 ---------------------------------------------------------------------------------
 (7) _sqrtf                                               44    40      4     805
                                              0 COMMON    12     8      4
                                              0 BANK0     28    28      0
 ---------------------------------------------------------------------------------
 (7) _scalbnf                                             20    14      6   10817
                                             21 BANK0     20    14      6
                            ___flmul
 ---------------------------------------------------------------------------------
 (8) ___flmul                                             26    18      8   10322
                                              9 COMMON     5     5      0
                                              0 BANK0     21    13      8
                          __Umul8_16
 ---------------------------------------------------------------------------------
 (9) __Umul8_16                                            9     7      2     799
                                              0 COMMON     9     7      2
 ---------------------------------------------------------------------------------
 (7) ___xxtofl                                            14    10      4     550
                                              0 COMMON    14    10      4
 ---------------------------------------------------------------------------------
 (7) ___flsub                                              8     0      8   12061
                                             67 BANK0      8     0      8
                            ___fladd
                            ___fldiv (ARG)
                            ___flmul (ARG)
 ---------------------------------------------------------------------------------
 (8) ___fladd                                             20    12      8    7456
                                             21 BANK0     20    12      8
                            ___flmul (ARG)
 ---------------------------------------------------------------------------------
 (7) ___flneg                                              4     0      4     197
                                              0 COMMON     4     0      4
 ---------------------------------------------------------------------------------
 (7) ___flge                                              12     4      8     486
                                             75 BANK0      4     4      0
                                              0 BANK1      8     0      8
                            ___fladd (ARG)
                            ___flsub (ARG)
 ---------------------------------------------------------------------------------
 (7) ___fldiv                                             26    18      8    1881
                                             41 BANK0     26    18      8
                            ___fladd (ARG)
                            ___flmul (ARG)
                           ___xxtofl (ARG)
 ---------------------------------------------------------------------------------
 (4) ___fltol                                             10     6      4     381
                                              0 COMMON    10     6      4
 ---------------------------------------------------------------------------------
 Estimated maximum stack depth 9
 ---------------------------------------------------------------------------------

 Call Graph Graphs:

 _main (ROOT)
   _pic_init
     _init_gpio
     _init_osc

 _isr (ROOT)
   ___fltol
   ___xxtofl
   _timer_calc
     ___fladd
       ___flmul (ARG)
         __Umul8_16
     ___fldiv
       ___fladd (ARG)
       ___flmul (ARG)
       ___xxtofl (ARG)
     ___flmul
     ___xxtofl
     _pow
       _powf
         ___fladd
         ___fldiv
         ___flge
           ___fladd (ARG)
           ___flsub (ARG)
             ___fladd
             ___fldiv (ARG)
             ___flmul (ARG)
         ___flmul
         ___flneg
         ___flsub
         ___xxtofl
         _scalbnf
           ___flmul
         _sqrtf

 Address spaces:
Name               Size   Autos  Total    Cost      Usage
BIGRAM             3F0      0       0       0        0.0%
EEDATA             100      0       0       0        0.0%
NULL                 0      0       0       0        0.0%
CODE                 0      0       0       0        0.0%
BITCOMMON            E      0       0       1        0.0%
BITSFR0              0      0       0       1        0.0%
SFR0                 0      0       0       1        0.0%
COMMON               E      E       E       2      100.0%
BITSFR1              0      0       0       2        0.0%
SFR1                 0      0       0       2        0.0%
BITSFR2              0      0       0       3        0.0%
SFR2                 0      0       0       3        0.0%
STACK                0      0       0       3        0.0%
BITBANK0            50      0       0       4        0.0%
BITSFR3              0      0       0       4        0.0%
SFR3                 0      0       0       4        0.0%
BANK0               50     4F      4F       5       98.8%
BITSFR4              0      0       0       5        0.0%
SFR4                 0      0       0       5        0.0%
BITBANK1            50      0       0       6        0.0%
BITSFR5              0      0       0       6        0.0%
SFR5                 0      0       0       6        0.0%
BANK1               50     4D      4F       7       98.8%
BITSFR6              0      0       0       7        0.0%
SFR6                 0      0       0       7        0.0%
BITBANK2            50      0       0       8        0.0%
BITSFR7              0      0       0       8        0.0%
SFR7                 0      0       0       8        0.0%
BANK2               50     50      50       9      100.0%
BITSFR8              0      0       0       9        0.0%
SFR8                 0      0       0       9        0.0%
BITBANK3            50      0       0      10        0.0%
BITSFR9              0      0       0      10        0.0%
SFR9                 0      0       0      10        0.0%
BANK3               50     48      48      11       90.0%
BITSFR10             0      0       0      11        0.0%
SFR10                0      0       0      11        0.0%
BITBANK4            50      0       0      12        0.0%
BITSFR11             0      0       0      12        0.0%
SFR11                0      0       0      12        0.0%
BANK4               50     11      21      13       41.2%
BITSFR12             0      0       0      13        0.0%
SFR12                0      0       0      13        0.0%
BITBANK5            50      0       0      14        0.0%
BITSFR13             0      0       0      14        0.0%
SFR13                0      0       0      14        0.0%
BANK5               50      0       0      15        0.0%
BITSFR14             0      0       0      15        0.0%
SFR14                0      0       0      15        0.0%
BITBANK6            50      0       0      16        0.0%
BITSFR15             0      0       0      16        0.0%
SFR15                0      0       0      16        0.0%
BANK6               50      0       0      17        0.0%
BITSFR16             0      0       0      17        0.0%
SFR16                0      0       0      17        0.0%
BITBANK7            50      0       0      18        0.0%
BITSFR17             0      0       0      18        0.0%
SFR17                0      0       0      18        0.0%
BANK7               50      0       0      19        0.0%
BITSFR18             0      0       0      19        0.0%
SFR18                0      0       0      19        0.0%
BITSFR19             0      0       0      20        0.0%
SFR19                0      0       0      20        0.0%
ABS                  0      0     165      20        0.0%
BITBANK8            50      0       0      21        0.0%
BITSFR20             0      0       0      21        0.0%
SFR20                0      0       0      21        0.0%
BANK8               20      0       0      22        0.0%
BITSFR21             0      0       0      22        0.0%
SFR21                0      0       0      22        0.0%
BITBANK9            50      0       0      23        0.0%
BITSFR22             0      0       0      23        0.0%
SFR22                0      0       0      23        0.0%
BITSFR23             0      0       0      24        0.0%
SFR23                0      0       0      24        0.0%
BANK9                0      0       0      24        0.0%
BITBANK10           50      0       0      25        0.0%
BITSFR24             0      0       0      25        0.0%
SFR24                0      0       0      25        0.0%
BITSFR25             0      0       0      26        0.0%
SFR25                0      0       0      26        0.0%
BANK10               0      0       0      26        0.0%
BITBANK11           50      0       0      27        0.0%
BITSFR26             0      0       0      27        0.0%
SFR26                0      0       0      27        0.0%
BITSFR27             0      0       0      28        0.0%
SFR27                0      0       0      28        0.0%
BANK11               0      0       0      28        0.0%
BITBANK12           30      0       0      29        0.0%
BITSFR28             0      0       0      29        0.0%
SFR28                0      0       0      29        0.0%
BITSFR29             0      0       0      30        0.0%
SFR29                0      0       0      30        0.0%
BANK12               0      0       0      30        0.0%
BITSFR30             0      0       0      31        0.0%
SFR30                0      0       0      31        0.0%
DATA                 0      0     165      31        0.0%
BITSFR31             0      0       0      32        0.0%
SFR31                0      0       0      32        0.0%


Microchip Technology PIC Macro Assembler V2.45 build 20230818022343 
Symbol Table                                                                                   Mon Oct 16 15:25:42 2023

           ___fldiv@aexp 0042             ___fldiv@bexp 0041             ___fldiv@sign 003A  
                     _L1 0000                       _L2 0000                       _L3 0000  
                     _L4 0000                       _L5 0000                       _L6 0000  
                     _P1 0000                       _P2 0000                       _P3 0000  
                     _P4 0000                       _P5 0000                       l83 0003  
                     _bp 0000                       _cp 0000          timer_calc@round 000E  
    __Umul8_16@word_mpld 0006                      _GIE 005F                      _PR2 001B  
                    _lg2 0000                      _isr 0000                      _pow 0000  
                    _ovt 0000                      wreg 0009             ___flmul@aexp 0009  
           ___flmul@bexp 000E             ___flmul@sign 0008             ___flmul@temp 0013  
           ___flmul@prod 000F             ___fltol@exp1 0009                     ?_isr 0000  
                   ?_pow 0034                     _PEIE 005E                     _TMR1 0016  
                   _TMR2 001A                     _cp_h 0000                     _cp_l 0000  
                   _dp_h 0000                     _dp_l 0000                     _main 0000  
                   _powf 0000                     fsr0h 0005                     indf0 0000  
                   fsr0l 0004                     fsr1l 0006                     btemp 007E  
                   pow@x 0034                     pow@y 0038                     start 0000* 
        ___fldiv@new_exp 003B                    ??_isr 0044                    ??_pow 000E  
          ___fltol@sign1 0008          __end_of___fladd 01B1                    ?_main 0000  
        __end_of___fldiv 016F          __end_of___flneg 0009          __end_of___flmul 01FC  
                  ?_powf 0008          __end_of___flsub 001D          __end_of___fltol 0061  
                  _T1CON 0018                    _T2CON 001C                    i1l110 0038  
                  i1l112 0024                    i1l114 0027                    i1l124 0131  
                  i1l452 0022                    i1l631 0042                    i1l455 009A  
                  i1l617 01AB                    i1l609 0193                    i1l721 0051  
                  i1l475 0045                    i1l715 001D                    i1l652 0149  
                  i1l653 0161                    i1l581 0098                    i1l655 016C  
                  i1l575 0044                    i1l728 0065                    i1l808 0024  
                  i1l729 006F                    i1l690 0010                    i1l579 00B3  
                  i1l683 01EF                    i1l596 0134                    i1l847 00E5  
                  i1l881 003B                    i1l859 0174                    i1l892 0110  
                  i1l886 0070                    i1l895 018A                    i1l888 00DA  
                  _TRISC 008E                    _lg2_h 0000                    _lg2_l 0000  
                  _errno 0000                    _ivln2 0000          __end_of_ivln2_h 0004  
        __end_of_ivln2_l 0004                    _two24 0000          __end_of_scalbnf 010C  
                  _sqrtf 0000                    powf@i 0041                    powf@j 0024  
                  powf@k 0020                    powf@n 004C                    powf@r 001C  
                  powf@s 002C                    powf@t 002C                    powf@u 0048  
                  powf@v 0000                    powf@w 0010                    powf@x 0008  
                  powf@y 000C                    powf@z 0030                    status 0003  
                  wtemp0 007E          __initialization 0000             __end_of_cp_h 0004  
           __end_of_cp_l 0004             __end_of_dp_h 0008             __end_of_dp_l 0008  
           __end_of_main 0004             __end_of_powf 06A0       pnum$text7_split_10 0044  
     pnum$text7_split_11 0045       pnum$text7_split_12 0046       pnum$text7_split_13 0047  
     pnum$text7_split_14 0048       pnum$text7_split_15 0049                   ??_main 0011  
                 ??_powf 0010                   ?_sqrtf 0000                   _T1GCON 0019  
          _index_counter 0004                   i1l2211 0039                   i1l3011 00D3  
                 i1l2221 004E                   i1l2215 003C                   i1l3007 00BB  
                 i1l2321 0153                   i1l2313 0146                   i1l2305 012C  
                 i1l2401 0038                   i1l3009 00C9                   i1l2251 006C  
                 i1l2163 000A                   i1l2411 004E                   i1l2403 0040  
                 i1l3131 068A                   i1l2261 00A0                   i1l3303 0052  
                 i1l2335 0165                   i1l2327 015A                   i1l2191 0018  
                 i1l2513 0045                   i1l2361 01A7                   i1l2329 015C  
                 i1l2193 0020                   i1l2339 0167                   i1l2259 009E  
                 i1l2187 0015                   i1l3147 0720                   i1l3155 0000  
                 i1l3139 06F6                   i1l3243 0006                   i1l3323 002B  
                 i1l2621 00CD                   i1l2517 0070                   i1l2357 01A3  
                 i1l2285 00D1                   i1l2277 00C1                   i1l2269 00AE  
                 i1l2381 0015                   i1l3181 067F                   i1l3253 00AC  
                 i1l3413 0030                   i1l3317 001C                   i1l2615 00B4  
                 i1l2623 0096                   i1l2287 00D3                   i1l2295 00E2  
                 i1l2471 0189                   i1l2463 015B                   i1l2383 0017  
                 i1l3167 0142                   i1l3247 002A                   i1l3273 0007  
                 i1l2641 00EF                   i1l2625 00D2                   i1l2561 0020  
                 i1l2721 008A                   i1l2465 0172                   i1l2385 001F  
                 i1l2801 006E                   i1l3265 010B                   i1l3361 00C0  
                 i1l3337 006B                   i1l2651 0108                   i1l2555 0015  
                 i1l2707 0063                   i1l2475 018B                   i1l3179 0655  
                 i1l3347 0080                   i1l3293 0033                   i1l3277 0010  
                 i1l2661 0131                   i1l2709 0056                   i1l2485 01B4  
                 i1l2733 0033                   i1l3381 0116                   i1l3295 0041  
                 i1l2647 0106                   i1l2639 00D8                   i1l2575 0037  
                 i1l2559 0018                   i1l2495 01E0                   i1l2399 0036  
                 i1l2831 004F                   i1l2489 01C9                   i1l2817 00D5  
                 i1l2761 00C2                   i1l2737 0044                   i1l2921 0085  
                 i1l2841 007D                   i1l2675 0168                   i1l2595 006D  
                 i1l2579 003A                   i1l2739 0054                   i1l2931 00E5  
                 i1l2915 004A                   i1l2907 0020                   i1l3379 0113  
                 i1l2589 0061                   i1l2693 002C                   i1l2773 0138  
                 i1l2749 0089                   i1l2853 001D                   i1l2845 0000  
                 i1l2837 0063                   i1l2687 0015                   i1l2775 019A  
                 i1l2759 00B0                   i1l2927 00CA                   i1l2935 0000  
                 i1l2839 0070                   i1l2697 002E                   i1l2961 007F  
                 i1l2953 0058                   i1l2945 002F                   i1l2699 003E  
                 i1l2779 01B4                   i1l2955 005B                   i1l2883 003C  
                 i1l2875 001A                   i1l2859 00E1                   i1l2965 0000  
                 i1l2949 003E                   i1l2893 007D                   i1l2869 0000  
                 i1l2975 001F                   i1l2887 0046                   i1l2985 0000  
                 i1l2995 0055                   i1l2979 0029                   i1l2899 0000  
                 i1l2989 0013                   u304_25 01A2                   u305_25 01BD  
                 u250_20 008B                   u330_25 00DB                   u306_25 01D3  
                 u251_20 008C                   u323_25 009E                   u340_25 013A  
                 u332_25 00E4                   u324_25 00A5                   u341_25 0153  
                 u261_25 00D7                   u262_23 00F4                   u326_25 00AE  
                 u254_25 00A4                   u350_25 005D                   u238_25 0011  
                 u430_25 001E                   u422_25 0053                   u327_25 00C2  
                 u423_25 0094                   u432_20 006F                   u432_25 006B  
                 u249_25 0080                   u433_25 00A3                   u434_20 00D5  
                 u266_25 0147                   u354_25 0077                   u346_25 0037  
                 u370_25 0193                   u434_25 00D1                   u442_25 0106  
                 u435_20 0122                   u451_25 0049                   u339_25 011F  
                 u291_25 00BB                   u363_25 0094                   u435_25 011E  
                 u419_25 0070                   u443_25 022A                   u276_25 017E  
                 u348_25 004B                   u292_25 00E4                   u380_25 00CE  
                 u445_25 0019                   u293_25 012E                   u381_25 00E3  
                 u373_25 01BE                   u365_25 00B3                   u437_25 061A  
                 u390_20 006A                   u294_25 014A                   u374_25 01D9  
                 u438_25 0640                   u390_25 0066                   u391_20 0094  
                 u295_25 015E                   u375_25 0011                   u391_25 0090  
                 u471_25 010B                   u448_25 0034                   u376_25 003C  
                 u368_25 0112                   u392_25 00AC                   u369_23 0164  
                 u297_25 0167                   u377_25 0067                   _OSCCON 0099  
                 u378_25 0078                   u379_25 00A3                   u389_25 0038  
                 _TMR1IE 0488                   _TMR1IF 0088                   _TMR2IE 0489  
                 _TMR2IF 0089                   _TMR1ON 00C0                   _TMR2ON 00E2  
       __end_of___xxtofl 0093                   ___flge 0000                ??___fladd 001D  
              ??___fldiv 0031                ??___flneg 0004                ??___flmul 0009  
              ??___flsub 000E                ??___fltol 0004         __end_of_init_osc 0004  
       __end_of_pic_init 0006                ??_scalbnf 001B                   powf@s2 000C  
                 powf@t1 0008                   powf@t2 0035                   powf@y1 0045  
                 powf@ax 0044                   powf@is 0010                   powf@hx 0034  
                 powf@hy 0004                   powf@ix 0028                   powf@iy 0018  
                 powf@sn 0030                   sqrtf@i 0004                   sqrtf@m 0010  
                 sqrtf@q 0008                   sqrtf@r 0014                   sqrtf@s 0000  
                 sqrtf@t 000C                   sqrtf@x 0000      timer_calc@round_253 000C  
             ___flge@ff1 0000               ___flge@ff2 0004             ___xxtofl@arg 000A  
           ___xxtofl@exp 0009             ___xxtofl@val 0000  __end_of__initialization 0021  
             ___flneg@f1 0000               ___fltol@f1 0000          _preload_calc_on 22F4  
         __pcstackCOMMON 0000             __pidataBANK4 0000            __end_of_lg2_h 0004  
          __end_of_lg2_l 0004            __end_of_ivln2 0004            __end_of_two24 0004  
          __end_of_sqrtf 01F0               __end_of_L1 0004               __end_of_L2 0004  
             __end_of_L3 0004               __end_of_L4 0004               __end_of_L5 0004  
             __end_of_L6 0004               __end_of_P1 0004               __end_of_P2 0004  
             __end_of_P3 0004               __end_of_P4 0004               __end_of_P5 0004  
             __end_of_bp 0008               __end_of_cp 0004           _OPTION_REGbits 0095  
                ??_sqrtf 0004               __pbssBANK1 0000               __pbssBANK4 0000  
      __end_of__Umul8_16 001F               __pmaintext 0000                  ?___flge 0000  
             __pintentry 0000                  _T2CKPS0 00E0                  _T2CKPS1 00E1  
              ?___xxtofl 0000                ?_init_osc 0000                ?_pic_init 0000  
                ___fladd 0000                  ___fldiv 0000                  ___flneg 0000  
                ___flmul 0000                  ___flsub 0000                  ___fltol 0000  
                __ptext1 0000                  __ptext2 0000                  __ptext3 0000  
                __ptext5 0000                  __ptext6 0000                  __ptext7 0000  
                __ptext8 0000                  __ptext9 0000                _T1CONbits 0018  
      __end_of_init_gpio 0028                  _ivln2_h 0000                  _ivln2_l 0000  
             ??___xxtofl 0004                  _scalbnf 0000                  _release 000A  
                clrloop0 0001     end_of_initialization 0021          _timer_calc$1033 0000  
        _timer_calc$1034 0004          _timer_calc$1035 0008               ??_init_osc 0010  
     _timer_opname_100ms 000C               ??_pic_init 0011                  powf@p_h 001C  
                powf@p_l 0038                  powf@s_h 0040                  powf@s_l 0049  
                powf@t_h 003C                  powf@t_l 0000                  powf@z_h 0039  
                powf@z_l 003D                  psplit$0 2E003B                  psplit$1 3B003C  
                psplit$2 3C003D                  psplit$3 3D003E                  psplit$4 3E003F  
                psplit$5 3E0040                  psplit$6 400041                  psplit$7 410042  
                psplit$8 420043                  psplit$9 430044                  sqrtf@ix 0018  
             _timer_calc 0000      _button_1_getriggerd 0000              ___fladd@grs 0028  
          ___xxtofl@sign 0008                _TRISAbits 008C              ___fldiv@grs 003D  
            ___fldiv@rem 0036              ___flmul@grs 000A         _preload_calc_off 22A0  
         __end_of___flge 00AD      start_initialization 0000       _aan_uit_schakelaar 0006  
            __end_of_lg2 0004              __end_of_isr 0133              __end_of_pow 0032  
            __end_of_ovt 0004        pnum$text7_split_1 003B        pnum$text7_split_2 003C  
      pnum$text7_split_3 003D        pnum$text7_split_4 003E        pnum$text7_split_5 003F  
      pnum$text7_split_6 0040        pnum$text7_split_7 0041        pnum$text7_split_8 0042  
      pnum$text7_split_9 0043                 ??___flge 004B                __Umul8_16 0000  
            __pdataBANK4 0000              ?_timer_calc 0000                ___fladd@a 0019  
              ___fladd@b 0015                ___fldiv@a 0029                ___fldiv@b 002D  
            __pbssBIGRAM 22A0                ___flmul@a 0004                ___flmul@b 0000  
              ___flsub@a 0043                ___flsub@b 0047                ___latbits 0002  
          __pcstackBANK0 0000            __pcstackBANK1 0000            __pcstackBANK2 0000  
          __pcstackBANK3 0000            __pcstackBANK4 0000                 ?___fladd 0015  
               ?___fldiv 0029                 ?___flneg 0000                 ?___flmul 0000  
               ?___flsub 0043                 ?___fltol 0000               ?__Umul8_16 0000  
               ?_scalbnf 0015                _init_gpio 0000                _powf$1040 0004  
              _powf$1041 0019                _powf$1050 0031                _powf$1042 001D  
              _powf$1043 0028                _powf$1036 0014                _powf$1044 0008  
              _powf$1037 0024                _powf$1045 000C                _powf$1046 0021  
              _powf$1038 0018                _powf$1047 0025                _powf$1039 0014  
              _powf$1048 0029                _powf$1049 002D                 _LATCbits 010E  
              _release_2 0008                clear_ram0 0000               powf@yisint 0020  
             ?_init_gpio 0000              ??__Umul8_16 0002               _ANSELAbits 018C  
               ___xxtofl 0000                 __ptext10 0000                 __ptext11 0000  
               __ptext12 0000                 __ptext13 0000                 __ptext14 0000  
               __ptext15 0000                 __ptext16 0000                 __ptext17 0000  
               __ptext18 0000                pnum$text7 002E                 _init_osc 0000  
               _pic_init 0000                 _tijd_aan 239C                 _tijd_uit 2348  
               int$flags 007E             ??_timer_calc 003C               _INTCONbits 000B  
         __pstringtext10 0000           __pstringtext11 0000           __pstringtext20 0000  
         __pstringtext12 0000           __pstringtext21 0000           __pstringtext13 0000  
         __pstringtext22 0000           __pstringtext14 0000           __pstringtext23 0000  
         __pstringtext15 0000           __pstringtext24 0000           __pstringtext16 0000  
         __pstringtext25 0000           __pstringtext17 0000           __pstringtext18 0000  
         __pstringtext19 0000              ??_init_gpio 0010                 scalbnf@n 0019  
               scalbnf@u 0021                 scalbnf@x 0015                 scalbnf@y 0025  
               intlevel1 0000*      __end_of_timer_calc 022F                 psplit$10 440045  
               psplit$11 450046                 psplit$12 460047                 psplit$13 470048  
               psplit$14 480049              _tijd_opname 0000            __pstringtext1 0000  
          __pstringtext2 0000            __pstringtext3 0000            __pstringtext4 0000  
          __pstringtext5 0000            __pstringtext6 0000            __pstringtext7 0000  
          __pstringtext8 0000            __pstringtext9 0000   __Umul8_16@multiplicand 0000  
          ___fladd@signs 0025             ___fladd@aexp 0026             ___fladd@bexp 0027  
   __Umul8_16@multiplier 0008        __Umul8_16@product 0004  
